
stm32world_freertos.elf:     file format elf32-littlearm

Sections:
Idx Name          Size      VMA       LMA       File off  Algn
  0 .isr_vector   00000188  08000000  08000000  00001000  2**0
                  CONTENTS, ALLOC, LOAD, READONLY, DATA
  1 .text         00008980  08000190  08000190  00001190  2**4
                  CONTENTS, ALLOC, LOAD, READONLY, CODE
  2 .rodata       00000f58  08008b10  08008b10  00009b10  2**3
                  CONTENTS, ALLOC, LOAD, READONLY, DATA
  3 .ARM.extab    00000000  08009a68  08009a68  0001c000  2**0
                  CONTENTS
  4 .ARM          00000008  08009a68  08009a68  0000aa68  2**2
                  CONTENTS, ALLOC, LOAD, READONLY, DATA
  5 .preinit_array 00000000  08009a70  08009a70  0001c000  2**0
                  CONTENTS, ALLOC, LOAD, DATA
  6 .init_array   00000004  08009a70  08009a70  0000aa70  2**2
                  CONTENTS, ALLOC, LOAD, READONLY, DATA
  7 .fini_array   00000004  08009a74  08009a74  0000aa74  2**2
                  CONTENTS, ALLOC, LOAD, READONLY, DATA
  8 .data         000001f8  20000000  08009a78  0000b000  2**2
                  CONTENTS, ALLOC, LOAD, DATA
  9 .ccmram       00010000  10000000  08009c70  0000c000  2**2
                  CONTENTS, ALLOC, LOAD, DATA
 10 .bss          000013fc  200001f8  200001f8  0001c1f8  2**2
                  ALLOC
 11 ._user_heap_stack 00000604  200015f4  200015f4  0001c1f8  2**0
                  ALLOC
 12 .ARM.attributes 00000030  00000000  00000000  0001c000  2**0
                  CONTENTS, READONLY
 13 .debug_info   00025a5d  00000000  00000000  0001c030  2**0
                  CONTENTS, READONLY, DEBUGGING, OCTETS
 14 .debug_abbrev 00004385  00000000  00000000  00041a8d  2**0
                  CONTENTS, READONLY, DEBUGGING, OCTETS
 15 .debug_loclists 0000f9b8  00000000  00000000  00045e12  2**0
                  CONTENTS, READONLY, DEBUGGING, OCTETS
 16 .debug_aranges 00001728  00000000  00000000  000557d0  2**3
                  CONTENTS, READONLY, DEBUGGING, OCTETS
 17 .debug_rnglists 0000129c  00000000  00000000  00056ef8  2**0
                  CONTENTS, READONLY, DEBUGGING, OCTETS
 18 .debug_macro  000050a5  00000000  00000000  00058194  2**0
                  CONTENTS, READONLY, DEBUGGING, OCTETS
 19 .debug_line   0002155f  00000000  00000000  0005d239  2**0
                  CONTENTS, READONLY, DEBUGGING, OCTETS
 20 .debug_str    000d0525  00000000  00000000  0007e798  2**0
                  CONTENTS, READONLY, DEBUGGING, OCTETS
 21 .comment      000000b8  00000000  00000000  0014ecbd  2**0
                  CONTENTS, READONLY
 22 .debug_frame  000051f4  00000000  00000000  0014ed78  2**2
                  CONTENTS, READONLY, DEBUGGING, OCTETS
 23 .debug_line_str 00000059  00000000  00000000  00153f6c  2**0
                  CONTENTS, READONLY, DEBUGGING, OCTETS
 24 .debug_loc    000000fa  00000000  00000000  00153fc5  2**0
                  CONTENTS, READONLY, DEBUGGING, OCTETS
 25 .debug_ranges 00000010  00000000  00000000  001540bf  2**0
                  CONTENTS, READONLY, DEBUGGING, OCTETS

Disassembly of section .text:

08000190 <__do_global_dtors_aux>:
 8000190:	b510      	push	{r4, lr}
 8000192:	4c05      	ldr	r4, [pc, #20]	@ (80001a8 <__do_global_dtors_aux+0x18>)
 8000194:	7823      	ldrb	r3, [r4, #0]
 8000196:	b933      	cbnz	r3, 80001a6 <__do_global_dtors_aux+0x16>
 8000198:	4b04      	ldr	r3, [pc, #16]	@ (80001ac <__do_global_dtors_aux+0x1c>)
 800019a:	b113      	cbz	r3, 80001a2 <__do_global_dtors_aux+0x12>
 800019c:	4804      	ldr	r0, [pc, #16]	@ (80001b0 <__do_global_dtors_aux+0x20>)
 800019e:	f3af 8000 	nop.w
 80001a2:	2301      	movs	r3, #1
 80001a4:	7023      	strb	r3, [r4, #0]
 80001a6:	bd10      	pop	{r4, pc}
 80001a8:	200001f8 	.word	0x200001f8
 80001ac:	00000000 	.word	0x00000000
 80001b0:	08008af8 	.word	0x08008af8

080001b4 <frame_dummy>:
 80001b4:	b508      	push	{r3, lr}
 80001b6:	4b03      	ldr	r3, [pc, #12]	@ (80001c4 <frame_dummy+0x10>)
 80001b8:	b11b      	cbz	r3, 80001c2 <frame_dummy+0xe>
 80001ba:	4903      	ldr	r1, [pc, #12]	@ (80001c8 <frame_dummy+0x14>)
 80001bc:	4803      	ldr	r0, [pc, #12]	@ (80001cc <frame_dummy+0x18>)
 80001be:	f3af 8000 	nop.w
 80001c2:	bd08      	pop	{r3, pc}
 80001c4:	00000000 	.word	0x00000000
 80001c8:	200001fc 	.word	0x200001fc
 80001cc:	08008af8 	.word	0x08008af8

080001d0 <memchr>:
 80001d0:	f001 01ff 	and.w	r1, r1, #255	@ 0xff
 80001d4:	2a10      	cmp	r2, #16
 80001d6:	db2b      	blt.n	8000230 <memchr+0x60>
 80001d8:	f010 0f07 	tst.w	r0, #7
 80001dc:	d008      	beq.n	80001f0 <memchr+0x20>
 80001de:	f810 3b01 	ldrb.w	r3, [r0], #1
 80001e2:	3a01      	subs	r2, #1
 80001e4:	428b      	cmp	r3, r1
 80001e6:	d02d      	beq.n	8000244 <memchr+0x74>
 80001e8:	f010 0f07 	tst.w	r0, #7
 80001ec:	b342      	cbz	r2, 8000240 <memchr+0x70>
 80001ee:	d1f6      	bne.n	80001de <memchr+0xe>
 80001f0:	b4f0      	push	{r4, r5, r6, r7}
 80001f2:	ea41 2101 	orr.w	r1, r1, r1, lsl #8
 80001f6:	ea41 4101 	orr.w	r1, r1, r1, lsl #16
 80001fa:	f022 0407 	bic.w	r4, r2, #7
 80001fe:	f07f 0700 	mvns.w	r7, #0
 8000202:	2300      	movs	r3, #0
 8000204:	e8f0 5602 	ldrd	r5, r6, [r0], #8
 8000208:	3c08      	subs	r4, #8
 800020a:	ea85 0501 	eor.w	r5, r5, r1
 800020e:	ea86 0601 	eor.w	r6, r6, r1
 8000212:	fa85 f547 	uadd8	r5, r5, r7
 8000216:	faa3 f587 	sel	r5, r3, r7
 800021a:	fa86 f647 	uadd8	r6, r6, r7
 800021e:	faa5 f687 	sel	r6, r5, r7
 8000222:	b98e      	cbnz	r6, 8000248 <memchr+0x78>
 8000224:	d1ee      	bne.n	8000204 <memchr+0x34>
 8000226:	bcf0      	pop	{r4, r5, r6, r7}
 8000228:	f001 01ff 	and.w	r1, r1, #255	@ 0xff
 800022c:	f002 0207 	and.w	r2, r2, #7
 8000230:	b132      	cbz	r2, 8000240 <memchr+0x70>
 8000232:	f810 3b01 	ldrb.w	r3, [r0], #1
 8000236:	3a01      	subs	r2, #1
 8000238:	ea83 0301 	eor.w	r3, r3, r1
 800023c:	b113      	cbz	r3, 8000244 <memchr+0x74>
 800023e:	d1f8      	bne.n	8000232 <memchr+0x62>
 8000240:	2000      	movs	r0, #0
 8000242:	4770      	bx	lr
 8000244:	3801      	subs	r0, #1
 8000246:	4770      	bx	lr
 8000248:	2d00      	cmp	r5, #0
 800024a:	bf06      	itte	eq
 800024c:	4635      	moveq	r5, r6
 800024e:	3803      	subeq	r0, #3
 8000250:	3807      	subne	r0, #7
 8000252:	f015 0f01 	tst.w	r5, #1
 8000256:	d107      	bne.n	8000268 <memchr+0x98>
 8000258:	3001      	adds	r0, #1
 800025a:	f415 7f80 	tst.w	r5, #256	@ 0x100
 800025e:	bf02      	ittt	eq
 8000260:	3001      	addeq	r0, #1
 8000262:	f415 3fc0 	tsteq.w	r5, #98304	@ 0x18000
 8000266:	3001      	addeq	r0, #1
 8000268:	bcf0      	pop	{r4, r5, r6, r7}
 800026a:	3801      	subs	r0, #1
 800026c:	4770      	bx	lr
 800026e:	bf00      	nop

08000270 <strlen>:
 8000270:	4603      	mov	r3, r0
 8000272:	f813 2b01 	ldrb.w	r2, [r3], #1
 8000276:	2a00      	cmp	r2, #0
 8000278:	d1fb      	bne.n	8000272 <strlen+0x2>
 800027a:	1a18      	subs	r0, r3, r0
 800027c:	3801      	subs	r0, #1
 800027e:	4770      	bx	lr

08000280 <__aeabi_drsub>:
 8000280:	f081 4100 	eor.w	r1, r1, #2147483648	@ 0x80000000
 8000284:	e002      	b.n	800028c <__adddf3>
 8000286:	bf00      	nop

08000288 <__aeabi_dsub>:
 8000288:	f083 4300 	eor.w	r3, r3, #2147483648	@ 0x80000000

0800028c <__adddf3>:
 800028c:	b530      	push	{r4, r5, lr}
 800028e:	ea4f 0441 	mov.w	r4, r1, lsl #1
 8000292:	ea4f 0543 	mov.w	r5, r3, lsl #1
 8000296:	ea94 0f05 	teq	r4, r5
 800029a:	bf08      	it	eq
 800029c:	ea90 0f02 	teqeq	r0, r2
 80002a0:	bf1f      	itttt	ne
 80002a2:	ea54 0c00 	orrsne.w	ip, r4, r0
 80002a6:	ea55 0c02 	orrsne.w	ip, r5, r2
 80002aa:	ea7f 5c64 	mvnsne.w	ip, r4, asr #21
 80002ae:	ea7f 5c65 	mvnsne.w	ip, r5, asr #21
 80002b2:	f000 80e2 	beq.w	800047a <__adddf3+0x1ee>
 80002b6:	ea4f 5454 	mov.w	r4, r4, lsr #21
 80002ba:	ebd4 5555 	rsbs	r5, r4, r5, lsr #21
 80002be:	bfb8      	it	lt
 80002c0:	426d      	neglt	r5, r5
 80002c2:	dd0c      	ble.n	80002de <__adddf3+0x52>
 80002c4:	442c      	add	r4, r5
 80002c6:	ea80 0202 	eor.w	r2, r0, r2
 80002ca:	ea81 0303 	eor.w	r3, r1, r3
 80002ce:	ea82 0000 	eor.w	r0, r2, r0
 80002d2:	ea83 0101 	eor.w	r1, r3, r1
 80002d6:	ea80 0202 	eor.w	r2, r0, r2
 80002da:	ea81 0303 	eor.w	r3, r1, r3
 80002de:	2d36      	cmp	r5, #54	@ 0x36
 80002e0:	bf88      	it	hi
 80002e2:	bd30      	pophi	{r4, r5, pc}
 80002e4:	f011 4f00 	tst.w	r1, #2147483648	@ 0x80000000
 80002e8:	ea4f 3101 	mov.w	r1, r1, lsl #12
 80002ec:	f44f 1c80 	mov.w	ip, #1048576	@ 0x100000
 80002f0:	ea4c 3111 	orr.w	r1, ip, r1, lsr #12
 80002f4:	d002      	beq.n	80002fc <__adddf3+0x70>
 80002f6:	4240      	negs	r0, r0
 80002f8:	eb61 0141 	sbc.w	r1, r1, r1, lsl #1
 80002fc:	f013 4f00 	tst.w	r3, #2147483648	@ 0x80000000
 8000300:	ea4f 3303 	mov.w	r3, r3, lsl #12
 8000304:	ea4c 3313 	orr.w	r3, ip, r3, lsr #12
 8000308:	d002      	beq.n	8000310 <__adddf3+0x84>
 800030a:	4252      	negs	r2, r2
 800030c:	eb63 0343 	sbc.w	r3, r3, r3, lsl #1
 8000310:	ea94 0f05 	teq	r4, r5
 8000314:	f000 80a7 	beq.w	8000466 <__adddf3+0x1da>
 8000318:	f1a4 0401 	sub.w	r4, r4, #1
 800031c:	f1d5 0e20 	rsbs	lr, r5, #32
 8000320:	db0d      	blt.n	800033e <__adddf3+0xb2>
 8000322:	fa02 fc0e 	lsl.w	ip, r2, lr
 8000326:	fa22 f205 	lsr.w	r2, r2, r5
 800032a:	1880      	adds	r0, r0, r2
 800032c:	f141 0100 	adc.w	r1, r1, #0
 8000330:	fa03 f20e 	lsl.w	r2, r3, lr
 8000334:	1880      	adds	r0, r0, r2
 8000336:	fa43 f305 	asr.w	r3, r3, r5
 800033a:	4159      	adcs	r1, r3
 800033c:	e00e      	b.n	800035c <__adddf3+0xd0>
 800033e:	f1a5 0520 	sub.w	r5, r5, #32
 8000342:	f10e 0e20 	add.w	lr, lr, #32
 8000346:	2a01      	cmp	r2, #1
 8000348:	fa03 fc0e 	lsl.w	ip, r3, lr
 800034c:	bf28      	it	cs
 800034e:	f04c 0c02 	orrcs.w	ip, ip, #2
 8000352:	fa43 f305 	asr.w	r3, r3, r5
 8000356:	18c0      	adds	r0, r0, r3
 8000358:	eb51 71e3 	adcs.w	r1, r1, r3, asr #31
 800035c:	f001 4500 	and.w	r5, r1, #2147483648	@ 0x80000000
 8000360:	d507      	bpl.n	8000372 <__adddf3+0xe6>
 8000362:	f04f 0e00 	mov.w	lr, #0
 8000366:	f1dc 0c00 	rsbs	ip, ip, #0
 800036a:	eb7e 0000 	sbcs.w	r0, lr, r0
 800036e:	eb6e 0101 	sbc.w	r1, lr, r1
 8000372:	f5b1 1f80 	cmp.w	r1, #1048576	@ 0x100000
 8000376:	d31b      	bcc.n	80003b0 <__adddf3+0x124>
 8000378:	f5b1 1f00 	cmp.w	r1, #2097152	@ 0x200000
 800037c:	d30c      	bcc.n	8000398 <__adddf3+0x10c>
 800037e:	0849      	lsrs	r1, r1, #1
 8000380:	ea5f 0030 	movs.w	r0, r0, rrx
 8000384:	ea4f 0c3c 	mov.w	ip, ip, rrx
 8000388:	f104 0401 	add.w	r4, r4, #1
 800038c:	ea4f 5244 	mov.w	r2, r4, lsl #21
 8000390:	f512 0f80 	cmn.w	r2, #4194304	@ 0x400000
 8000394:	f080 809a 	bcs.w	80004cc <__adddf3+0x240>
 8000398:	f1bc 4f00 	cmp.w	ip, #2147483648	@ 0x80000000
 800039c:	bf08      	it	eq
 800039e:	ea5f 0c50 	movseq.w	ip, r0, lsr #1
 80003a2:	f150 0000 	adcs.w	r0, r0, #0
 80003a6:	eb41 5104 	adc.w	r1, r1, r4, lsl #20
 80003aa:	ea41 0105 	orr.w	r1, r1, r5
 80003ae:	bd30      	pop	{r4, r5, pc}
 80003b0:	ea5f 0c4c 	movs.w	ip, ip, lsl #1
 80003b4:	4140      	adcs	r0, r0
 80003b6:	eb41 0101 	adc.w	r1, r1, r1
 80003ba:	3c01      	subs	r4, #1
 80003bc:	bf28      	it	cs
 80003be:	f5b1 1f80 	cmpcs.w	r1, #1048576	@ 0x100000
 80003c2:	d2e9      	bcs.n	8000398 <__adddf3+0x10c>
 80003c4:	f091 0f00 	teq	r1, #0
 80003c8:	bf04      	itt	eq
 80003ca:	4601      	moveq	r1, r0
 80003cc:	2000      	moveq	r0, #0
 80003ce:	fab1 f381 	clz	r3, r1
 80003d2:	bf08      	it	eq
 80003d4:	3320      	addeq	r3, #32
 80003d6:	f1a3 030b 	sub.w	r3, r3, #11
 80003da:	f1b3 0220 	subs.w	r2, r3, #32
 80003de:	da0c      	bge.n	80003fa <__adddf3+0x16e>
 80003e0:	320c      	adds	r2, #12
 80003e2:	dd08      	ble.n	80003f6 <__adddf3+0x16a>
 80003e4:	f102 0c14 	add.w	ip, r2, #20
 80003e8:	f1c2 020c 	rsb	r2, r2, #12
 80003ec:	fa01 f00c 	lsl.w	r0, r1, ip
 80003f0:	fa21 f102 	lsr.w	r1, r1, r2
 80003f4:	e00c      	b.n	8000410 <__adddf3+0x184>
 80003f6:	f102 0214 	add.w	r2, r2, #20
 80003fa:	bfd8      	it	le
 80003fc:	f1c2 0c20 	rsble	ip, r2, #32
 8000400:	fa01 f102 	lsl.w	r1, r1, r2
 8000404:	fa20 fc0c 	lsr.w	ip, r0, ip
 8000408:	bfdc      	itt	le
 800040a:	ea41 010c 	orrle.w	r1, r1, ip
 800040e:	4090      	lslle	r0, r2
 8000410:	1ae4      	subs	r4, r4, r3
 8000412:	bfa2      	ittt	ge
 8000414:	eb01 5104 	addge.w	r1, r1, r4, lsl #20
 8000418:	4329      	orrge	r1, r5
 800041a:	bd30      	popge	{r4, r5, pc}
 800041c:	ea6f 0404 	mvn.w	r4, r4
 8000420:	3c1f      	subs	r4, #31
 8000422:	da1c      	bge.n	800045e <__adddf3+0x1d2>
 8000424:	340c      	adds	r4, #12
 8000426:	dc0e      	bgt.n	8000446 <__adddf3+0x1ba>
 8000428:	f104 0414 	add.w	r4, r4, #20
 800042c:	f1c4 0220 	rsb	r2, r4, #32
 8000430:	fa20 f004 	lsr.w	r0, r0, r4
 8000434:	fa01 f302 	lsl.w	r3, r1, r2
 8000438:	ea40 0003 	orr.w	r0, r0, r3
 800043c:	fa21 f304 	lsr.w	r3, r1, r4
 8000440:	ea45 0103 	orr.w	r1, r5, r3
 8000444:	bd30      	pop	{r4, r5, pc}
 8000446:	f1c4 040c 	rsb	r4, r4, #12
 800044a:	f1c4 0220 	rsb	r2, r4, #32
 800044e:	fa20 f002 	lsr.w	r0, r0, r2
 8000452:	fa01 f304 	lsl.w	r3, r1, r4
 8000456:	ea40 0003 	orr.w	r0, r0, r3
 800045a:	4629      	mov	r1, r5
 800045c:	bd30      	pop	{r4, r5, pc}
 800045e:	fa21 f004 	lsr.w	r0, r1, r4
 8000462:	4629      	mov	r1, r5
 8000464:	bd30      	pop	{r4, r5, pc}
 8000466:	f094 0f00 	teq	r4, #0
 800046a:	f483 1380 	eor.w	r3, r3, #1048576	@ 0x100000
 800046e:	bf06      	itte	eq
 8000470:	f481 1180 	eoreq.w	r1, r1, #1048576	@ 0x100000
 8000474:	3401      	addeq	r4, #1
 8000476:	3d01      	subne	r5, #1
 8000478:	e74e      	b.n	8000318 <__adddf3+0x8c>
 800047a:	ea7f 5c64 	mvns.w	ip, r4, asr #21
 800047e:	bf18      	it	ne
 8000480:	ea7f 5c65 	mvnsne.w	ip, r5, asr #21
 8000484:	d029      	beq.n	80004da <__adddf3+0x24e>
 8000486:	ea94 0f05 	teq	r4, r5
 800048a:	bf08      	it	eq
 800048c:	ea90 0f02 	teqeq	r0, r2
 8000490:	d005      	beq.n	800049e <__adddf3+0x212>
 8000492:	ea54 0c00 	orrs.w	ip, r4, r0
 8000496:	bf04      	itt	eq
 8000498:	4619      	moveq	r1, r3
 800049a:	4610      	moveq	r0, r2
 800049c:	bd30      	pop	{r4, r5, pc}
 800049e:	ea91 0f03 	teq	r1, r3
 80004a2:	bf1e      	ittt	ne
 80004a4:	2100      	movne	r1, #0
 80004a6:	2000      	movne	r0, #0
 80004a8:	bd30      	popne	{r4, r5, pc}
 80004aa:	ea5f 5c54 	movs.w	ip, r4, lsr #21
 80004ae:	d105      	bne.n	80004bc <__adddf3+0x230>
 80004b0:	0040      	lsls	r0, r0, #1
 80004b2:	4149      	adcs	r1, r1
 80004b4:	bf28      	it	cs
 80004b6:	f041 4100 	orrcs.w	r1, r1, #2147483648	@ 0x80000000
 80004ba:	bd30      	pop	{r4, r5, pc}
 80004bc:	f514 0480 	adds.w	r4, r4, #4194304	@ 0x400000
 80004c0:	bf3c      	itt	cc
 80004c2:	f501 1180 	addcc.w	r1, r1, #1048576	@ 0x100000
 80004c6:	bd30      	popcc	{r4, r5, pc}
 80004c8:	f001 4500 	and.w	r5, r1, #2147483648	@ 0x80000000
 80004cc:	f045 41fe 	orr.w	r1, r5, #2130706432	@ 0x7f000000
 80004d0:	f441 0170 	orr.w	r1, r1, #15728640	@ 0xf00000
 80004d4:	f04f 0000 	mov.w	r0, #0
 80004d8:	bd30      	pop	{r4, r5, pc}
 80004da:	ea7f 5c64 	mvns.w	ip, r4, asr #21
 80004de:	bf1a      	itte	ne
 80004e0:	4619      	movne	r1, r3
 80004e2:	4610      	movne	r0, r2
 80004e4:	ea7f 5c65 	mvnseq.w	ip, r5, asr #21
 80004e8:	bf1c      	itt	ne
 80004ea:	460b      	movne	r3, r1
 80004ec:	4602      	movne	r2, r0
 80004ee:	ea50 3401 	orrs.w	r4, r0, r1, lsl #12
 80004f2:	bf06      	itte	eq
 80004f4:	ea52 3503 	orrseq.w	r5, r2, r3, lsl #12
 80004f8:	ea91 0f03 	teqeq	r1, r3
 80004fc:	f441 2100 	orrne.w	r1, r1, #524288	@ 0x80000
 8000500:	bd30      	pop	{r4, r5, pc}
 8000502:	bf00      	nop

08000504 <__aeabi_ui2d>:
 8000504:	f090 0f00 	teq	r0, #0
 8000508:	bf04      	itt	eq
 800050a:	2100      	moveq	r1, #0
 800050c:	4770      	bxeq	lr
 800050e:	b530      	push	{r4, r5, lr}
 8000510:	f44f 6480 	mov.w	r4, #1024	@ 0x400
 8000514:	f104 0432 	add.w	r4, r4, #50	@ 0x32
 8000518:	f04f 0500 	mov.w	r5, #0
 800051c:	f04f 0100 	mov.w	r1, #0
 8000520:	e750      	b.n	80003c4 <__adddf3+0x138>
 8000522:	bf00      	nop

08000524 <__aeabi_i2d>:
 8000524:	f090 0f00 	teq	r0, #0
 8000528:	bf04      	itt	eq
 800052a:	2100      	moveq	r1, #0
 800052c:	4770      	bxeq	lr
 800052e:	b530      	push	{r4, r5, lr}
 8000530:	f44f 6480 	mov.w	r4, #1024	@ 0x400
 8000534:	f104 0432 	add.w	r4, r4, #50	@ 0x32
 8000538:	f010 4500 	ands.w	r5, r0, #2147483648	@ 0x80000000
 800053c:	bf48      	it	mi
 800053e:	4240      	negmi	r0, r0
 8000540:	f04f 0100 	mov.w	r1, #0
 8000544:	e73e      	b.n	80003c4 <__adddf3+0x138>
 8000546:	bf00      	nop

08000548 <__aeabi_f2d>:
 8000548:	0042      	lsls	r2, r0, #1
 800054a:	ea4f 01e2 	mov.w	r1, r2, asr #3
 800054e:	ea4f 0131 	mov.w	r1, r1, rrx
 8000552:	ea4f 7002 	mov.w	r0, r2, lsl #28
 8000556:	bf1f      	itttt	ne
 8000558:	f012 437f 	andsne.w	r3, r2, #4278190080	@ 0xff000000
 800055c:	f093 4f7f 	teqne	r3, #4278190080	@ 0xff000000
 8000560:	f081 5160 	eorne.w	r1, r1, #939524096	@ 0x38000000
 8000564:	4770      	bxne	lr
 8000566:	f032 427f 	bics.w	r2, r2, #4278190080	@ 0xff000000
 800056a:	bf08      	it	eq
 800056c:	4770      	bxeq	lr
 800056e:	f093 4f7f 	teq	r3, #4278190080	@ 0xff000000
 8000572:	bf04      	itt	eq
 8000574:	f441 2100 	orreq.w	r1, r1, #524288	@ 0x80000
 8000578:	4770      	bxeq	lr
 800057a:	b530      	push	{r4, r5, lr}
 800057c:	f44f 7460 	mov.w	r4, #896	@ 0x380
 8000580:	f001 4500 	and.w	r5, r1, #2147483648	@ 0x80000000
 8000584:	f021 4100 	bic.w	r1, r1, #2147483648	@ 0x80000000
 8000588:	e71c      	b.n	80003c4 <__adddf3+0x138>
 800058a:	bf00      	nop

0800058c <__aeabi_ul2d>:
 800058c:	ea50 0201 	orrs.w	r2, r0, r1
 8000590:	bf08      	it	eq
 8000592:	4770      	bxeq	lr
 8000594:	b530      	push	{r4, r5, lr}
 8000596:	f04f 0500 	mov.w	r5, #0
 800059a:	e00a      	b.n	80005b2 <__aeabi_l2d+0x16>

0800059c <__aeabi_l2d>:
 800059c:	ea50 0201 	orrs.w	r2, r0, r1
 80005a0:	bf08      	it	eq
 80005a2:	4770      	bxeq	lr
 80005a4:	b530      	push	{r4, r5, lr}
 80005a6:	f011 4500 	ands.w	r5, r1, #2147483648	@ 0x80000000
 80005aa:	d502      	bpl.n	80005b2 <__aeabi_l2d+0x16>
 80005ac:	4240      	negs	r0, r0
 80005ae:	eb61 0141 	sbc.w	r1, r1, r1, lsl #1
 80005b2:	f44f 6480 	mov.w	r4, #1024	@ 0x400
 80005b6:	f104 0432 	add.w	r4, r4, #50	@ 0x32
 80005ba:	ea5f 5c91 	movs.w	ip, r1, lsr #22
 80005be:	f43f aed8 	beq.w	8000372 <__adddf3+0xe6>
 80005c2:	f04f 0203 	mov.w	r2, #3
 80005c6:	ea5f 0cdc 	movs.w	ip, ip, lsr #3
 80005ca:	bf18      	it	ne
 80005cc:	3203      	addne	r2, #3
 80005ce:	ea5f 0cdc 	movs.w	ip, ip, lsr #3
 80005d2:	bf18      	it	ne
 80005d4:	3203      	addne	r2, #3
 80005d6:	eb02 02dc 	add.w	r2, r2, ip, lsr #3
 80005da:	f1c2 0320 	rsb	r3, r2, #32
 80005de:	fa00 fc03 	lsl.w	ip, r0, r3
 80005e2:	fa20 f002 	lsr.w	r0, r0, r2
 80005e6:	fa01 fe03 	lsl.w	lr, r1, r3
 80005ea:	ea40 000e 	orr.w	r0, r0, lr
 80005ee:	fa21 f102 	lsr.w	r1, r1, r2
 80005f2:	4414      	add	r4, r2
 80005f4:	e6bd      	b.n	8000372 <__adddf3+0xe6>
 80005f6:	bf00      	nop

080005f8 <__aeabi_dmul>:
 80005f8:	b570      	push	{r4, r5, r6, lr}
 80005fa:	f04f 0cff 	mov.w	ip, #255	@ 0xff
 80005fe:	f44c 6ce0 	orr.w	ip, ip, #1792	@ 0x700
 8000602:	ea1c 5411 	ands.w	r4, ip, r1, lsr #20
 8000606:	bf1d      	ittte	ne
 8000608:	ea1c 5513 	andsne.w	r5, ip, r3, lsr #20
 800060c:	ea94 0f0c 	teqne	r4, ip
 8000610:	ea95 0f0c 	teqne	r5, ip
 8000614:	f000 f8de 	bleq	80007d4 <__aeabi_dmul+0x1dc>
 8000618:	442c      	add	r4, r5
 800061a:	ea81 0603 	eor.w	r6, r1, r3
 800061e:	ea21 514c 	bic.w	r1, r1, ip, lsl #21
 8000622:	ea23 534c 	bic.w	r3, r3, ip, lsl #21
 8000626:	ea50 3501 	orrs.w	r5, r0, r1, lsl #12
 800062a:	bf18      	it	ne
 800062c:	ea52 3503 	orrsne.w	r5, r2, r3, lsl #12
 8000630:	f441 1180 	orr.w	r1, r1, #1048576	@ 0x100000
 8000634:	f443 1380 	orr.w	r3, r3, #1048576	@ 0x100000
 8000638:	d038      	beq.n	80006ac <__aeabi_dmul+0xb4>
 800063a:	fba0 ce02 	umull	ip, lr, r0, r2
 800063e:	f04f 0500 	mov.w	r5, #0
 8000642:	fbe1 e502 	umlal	lr, r5, r1, r2
 8000646:	f006 4200 	and.w	r2, r6, #2147483648	@ 0x80000000
 800064a:	fbe0 e503 	umlal	lr, r5, r0, r3
 800064e:	f04f 0600 	mov.w	r6, #0
 8000652:	fbe1 5603 	umlal	r5, r6, r1, r3
 8000656:	f09c 0f00 	teq	ip, #0
 800065a:	bf18      	it	ne
 800065c:	f04e 0e01 	orrne.w	lr, lr, #1
 8000660:	f1a4 04ff 	sub.w	r4, r4, #255	@ 0xff
 8000664:	f5b6 7f00 	cmp.w	r6, #512	@ 0x200
 8000668:	f564 7440 	sbc.w	r4, r4, #768	@ 0x300
 800066c:	d204      	bcs.n	8000678 <__aeabi_dmul+0x80>
 800066e:	ea5f 0e4e 	movs.w	lr, lr, lsl #1
 8000672:	416d      	adcs	r5, r5
 8000674:	eb46 0606 	adc.w	r6, r6, r6
 8000678:	ea42 21c6 	orr.w	r1, r2, r6, lsl #11
 800067c:	ea41 5155 	orr.w	r1, r1, r5, lsr #21
 8000680:	ea4f 20c5 	mov.w	r0, r5, lsl #11
 8000684:	ea40 505e 	orr.w	r0, r0, lr, lsr #21
 8000688:	ea4f 2ece 	mov.w	lr, lr, lsl #11
 800068c:	f1b4 0cfd 	subs.w	ip, r4, #253	@ 0xfd
 8000690:	bf88      	it	hi
 8000692:	f5bc 6fe0 	cmphi.w	ip, #1792	@ 0x700
 8000696:	d81e      	bhi.n	80006d6 <__aeabi_dmul+0xde>
 8000698:	f1be 4f00 	cmp.w	lr, #2147483648	@ 0x80000000
 800069c:	bf08      	it	eq
 800069e:	ea5f 0e50 	movseq.w	lr, r0, lsr #1
 80006a2:	f150 0000 	adcs.w	r0, r0, #0
 80006a6:	eb41 5104 	adc.w	r1, r1, r4, lsl #20
 80006aa:	bd70      	pop	{r4, r5, r6, pc}
 80006ac:	f006 4600 	and.w	r6, r6, #2147483648	@ 0x80000000
 80006b0:	ea46 0101 	orr.w	r1, r6, r1
 80006b4:	ea40 0002 	orr.w	r0, r0, r2
 80006b8:	ea81 0103 	eor.w	r1, r1, r3
 80006bc:	ebb4 045c 	subs.w	r4, r4, ip, lsr #1
 80006c0:	bfc2      	ittt	gt
 80006c2:	ebd4 050c 	rsbsgt	r5, r4, ip
 80006c6:	ea41 5104 	orrgt.w	r1, r1, r4, lsl #20
 80006ca:	bd70      	popgt	{r4, r5, r6, pc}
 80006cc:	f441 1180 	orr.w	r1, r1, #1048576	@ 0x100000
 80006d0:	f04f 0e00 	mov.w	lr, #0
 80006d4:	3c01      	subs	r4, #1
 80006d6:	f300 80ab 	bgt.w	8000830 <__aeabi_dmul+0x238>
 80006da:	f114 0f36 	cmn.w	r4, #54	@ 0x36
 80006de:	bfde      	ittt	le
 80006e0:	2000      	movle	r0, #0
 80006e2:	f001 4100 	andle.w	r1, r1, #2147483648	@ 0x80000000
 80006e6:	bd70      	pople	{r4, r5, r6, pc}
 80006e8:	f1c4 0400 	rsb	r4, r4, #0
 80006ec:	3c20      	subs	r4, #32
 80006ee:	da35      	bge.n	800075c <__aeabi_dmul+0x164>
 80006f0:	340c      	adds	r4, #12
 80006f2:	dc1b      	bgt.n	800072c <__aeabi_dmul+0x134>
 80006f4:	f104 0414 	add.w	r4, r4, #20
 80006f8:	f1c4 0520 	rsb	r5, r4, #32
 80006fc:	fa00 f305 	lsl.w	r3, r0, r5
 8000700:	fa20 f004 	lsr.w	r0, r0, r4
 8000704:	fa01 f205 	lsl.w	r2, r1, r5
 8000708:	ea40 0002 	orr.w	r0, r0, r2
 800070c:	f001 4200 	and.w	r2, r1, #2147483648	@ 0x80000000
 8000710:	f021 4100 	bic.w	r1, r1, #2147483648	@ 0x80000000
 8000714:	eb10 70d3 	adds.w	r0, r0, r3, lsr #31
 8000718:	fa21 f604 	lsr.w	r6, r1, r4
 800071c:	eb42 0106 	adc.w	r1, r2, r6
 8000720:	ea5e 0e43 	orrs.w	lr, lr, r3, lsl #1
 8000724:	bf08      	it	eq
 8000726:	ea20 70d3 	biceq.w	r0, r0, r3, lsr #31
 800072a:	bd70      	pop	{r4, r5, r6, pc}
 800072c:	f1c4 040c 	rsb	r4, r4, #12
 8000730:	f1c4 0520 	rsb	r5, r4, #32
 8000734:	fa00 f304 	lsl.w	r3, r0, r4
 8000738:	fa20 f005 	lsr.w	r0, r0, r5
 800073c:	fa01 f204 	lsl.w	r2, r1, r4
 8000740:	ea40 0002 	orr.w	r0, r0, r2
 8000744:	f001 4100 	and.w	r1, r1, #2147483648	@ 0x80000000
 8000748:	eb10 70d3 	adds.w	r0, r0, r3, lsr #31
 800074c:	f141 0100 	adc.w	r1, r1, #0
 8000750:	ea5e 0e43 	orrs.w	lr, lr, r3, lsl #1
 8000754:	bf08      	it	eq
 8000756:	ea20 70d3 	biceq.w	r0, r0, r3, lsr #31
 800075a:	bd70      	pop	{r4, r5, r6, pc}
 800075c:	f1c4 0520 	rsb	r5, r4, #32
 8000760:	fa00 f205 	lsl.w	r2, r0, r5
 8000764:	ea4e 0e02 	orr.w	lr, lr, r2
 8000768:	fa20 f304 	lsr.w	r3, r0, r4
 800076c:	fa01 f205 	lsl.w	r2, r1, r5
 8000770:	ea43 0302 	orr.w	r3, r3, r2
 8000774:	fa21 f004 	lsr.w	r0, r1, r4
 8000778:	f001 4100 	and.w	r1, r1, #2147483648	@ 0x80000000
 800077c:	fa21 f204 	lsr.w	r2, r1, r4
 8000780:	ea20 0002 	bic.w	r0, r0, r2
 8000784:	eb00 70d3 	add.w	r0, r0, r3, lsr #31
 8000788:	ea5e 0e43 	orrs.w	lr, lr, r3, lsl #1
 800078c:	bf08      	it	eq
 800078e:	ea20 70d3 	biceq.w	r0, r0, r3, lsr #31
 8000792:	bd70      	pop	{r4, r5, r6, pc}
 8000794:	f094 0f00 	teq	r4, #0
 8000798:	d10f      	bne.n	80007ba <__aeabi_dmul+0x1c2>
 800079a:	f001 4600 	and.w	r6, r1, #2147483648	@ 0x80000000
 800079e:	0040      	lsls	r0, r0, #1
 80007a0:	eb41 0101 	adc.w	r1, r1, r1
 80007a4:	f411 1f80 	tst.w	r1, #1048576	@ 0x100000
 80007a8:	bf08      	it	eq
 80007aa:	3c01      	subeq	r4, #1
 80007ac:	d0f7      	beq.n	800079e <__aeabi_dmul+0x1a6>
 80007ae:	ea41 0106 	orr.w	r1, r1, r6
 80007b2:	f095 0f00 	teq	r5, #0
 80007b6:	bf18      	it	ne
 80007b8:	4770      	bxne	lr
 80007ba:	f003 4600 	and.w	r6, r3, #2147483648	@ 0x80000000
 80007be:	0052      	lsls	r2, r2, #1
 80007c0:	eb43 0303 	adc.w	r3, r3, r3
 80007c4:	f413 1f80 	tst.w	r3, #1048576	@ 0x100000
 80007c8:	bf08      	it	eq
 80007ca:	3d01      	subeq	r5, #1
 80007cc:	d0f7      	beq.n	80007be <__aeabi_dmul+0x1c6>
 80007ce:	ea43 0306 	orr.w	r3, r3, r6
 80007d2:	4770      	bx	lr
 80007d4:	ea94 0f0c 	teq	r4, ip
 80007d8:	ea0c 5513 	and.w	r5, ip, r3, lsr #20
 80007dc:	bf18      	it	ne
 80007de:	ea95 0f0c 	teqne	r5, ip
 80007e2:	d00c      	beq.n	80007fe <__aeabi_dmul+0x206>
 80007e4:	ea50 0641 	orrs.w	r6, r0, r1, lsl #1
 80007e8:	bf18      	it	ne
 80007ea:	ea52 0643 	orrsne.w	r6, r2, r3, lsl #1
 80007ee:	d1d1      	bne.n	8000794 <__aeabi_dmul+0x19c>
 80007f0:	ea81 0103 	eor.w	r1, r1, r3
 80007f4:	f001 4100 	and.w	r1, r1, #2147483648	@ 0x80000000
 80007f8:	f04f 0000 	mov.w	r0, #0
 80007fc:	bd70      	pop	{r4, r5, r6, pc}
 80007fe:	ea50 0641 	orrs.w	r6, r0, r1, lsl #1
 8000802:	bf06      	itte	eq
 8000804:	4610      	moveq	r0, r2
 8000806:	4619      	moveq	r1, r3
 8000808:	ea52 0643 	orrsne.w	r6, r2, r3, lsl #1
 800080c:	d019      	beq.n	8000842 <__aeabi_dmul+0x24a>
 800080e:	ea94 0f0c 	teq	r4, ip
 8000812:	d102      	bne.n	800081a <__aeabi_dmul+0x222>
 8000814:	ea50 3601 	orrs.w	r6, r0, r1, lsl #12
 8000818:	d113      	bne.n	8000842 <__aeabi_dmul+0x24a>
 800081a:	ea95 0f0c 	teq	r5, ip
 800081e:	d105      	bne.n	800082c <__aeabi_dmul+0x234>
 8000820:	ea52 3603 	orrs.w	r6, r2, r3, lsl #12
 8000824:	bf1c      	itt	ne
 8000826:	4610      	movne	r0, r2
 8000828:	4619      	movne	r1, r3
 800082a:	d10a      	bne.n	8000842 <__aeabi_dmul+0x24a>
 800082c:	ea81 0103 	eor.w	r1, r1, r3
 8000830:	f001 4100 	and.w	r1, r1, #2147483648	@ 0x80000000
 8000834:	f041 41fe 	orr.w	r1, r1, #2130706432	@ 0x7f000000
 8000838:	f441 0170 	orr.w	r1, r1, #15728640	@ 0xf00000
 800083c:	f04f 0000 	mov.w	r0, #0
 8000840:	bd70      	pop	{r4, r5, r6, pc}
 8000842:	f041 41fe 	orr.w	r1, r1, #2130706432	@ 0x7f000000
 8000846:	f441 0178 	orr.w	r1, r1, #16252928	@ 0xf80000
 800084a:	bd70      	pop	{r4, r5, r6, pc}

0800084c <__aeabi_ddiv>:
 800084c:	b570      	push	{r4, r5, r6, lr}
 800084e:	f04f 0cff 	mov.w	ip, #255	@ 0xff
 8000852:	f44c 6ce0 	orr.w	ip, ip, #1792	@ 0x700
 8000856:	ea1c 5411 	ands.w	r4, ip, r1, lsr #20
 800085a:	bf1d      	ittte	ne
 800085c:	ea1c 5513 	andsne.w	r5, ip, r3, lsr #20
 8000860:	ea94 0f0c 	teqne	r4, ip
 8000864:	ea95 0f0c 	teqne	r5, ip
 8000868:	f000 f8a7 	bleq	80009ba <__aeabi_ddiv+0x16e>
 800086c:	eba4 0405 	sub.w	r4, r4, r5
 8000870:	ea81 0e03 	eor.w	lr, r1, r3
 8000874:	ea52 3503 	orrs.w	r5, r2, r3, lsl #12
 8000878:	ea4f 3101 	mov.w	r1, r1, lsl #12
 800087c:	f000 8088 	beq.w	8000990 <__aeabi_ddiv+0x144>
 8000880:	ea4f 3303 	mov.w	r3, r3, lsl #12
 8000884:	f04f 5580 	mov.w	r5, #268435456	@ 0x10000000
 8000888:	ea45 1313 	orr.w	r3, r5, r3, lsr #4
 800088c:	ea43 6312 	orr.w	r3, r3, r2, lsr #24
 8000890:	ea4f 2202 	mov.w	r2, r2, lsl #8
 8000894:	ea45 1511 	orr.w	r5, r5, r1, lsr #4
 8000898:	ea45 6510 	orr.w	r5, r5, r0, lsr #24
 800089c:	ea4f 2600 	mov.w	r6, r0, lsl #8
 80008a0:	f00e 4100 	and.w	r1, lr, #2147483648	@ 0x80000000
 80008a4:	429d      	cmp	r5, r3
 80008a6:	bf08      	it	eq
 80008a8:	4296      	cmpeq	r6, r2
 80008aa:	f144 04fd 	adc.w	r4, r4, #253	@ 0xfd
 80008ae:	f504 7440 	add.w	r4, r4, #768	@ 0x300
 80008b2:	d202      	bcs.n	80008ba <__aeabi_ddiv+0x6e>
 80008b4:	085b      	lsrs	r3, r3, #1
 80008b6:	ea4f 0232 	mov.w	r2, r2, rrx
 80008ba:	1ab6      	subs	r6, r6, r2
 80008bc:	eb65 0503 	sbc.w	r5, r5, r3
 80008c0:	085b      	lsrs	r3, r3, #1
 80008c2:	ea4f 0232 	mov.w	r2, r2, rrx
 80008c6:	f44f 1080 	mov.w	r0, #1048576	@ 0x100000
 80008ca:	f44f 2c00 	mov.w	ip, #524288	@ 0x80000
 80008ce:	ebb6 0e02 	subs.w	lr, r6, r2
 80008d2:	eb75 0e03 	sbcs.w	lr, r5, r3
 80008d6:	bf22      	ittt	cs
 80008d8:	1ab6      	subcs	r6, r6, r2
 80008da:	4675      	movcs	r5, lr
 80008dc:	ea40 000c 	orrcs.w	r0, r0, ip
 80008e0:	085b      	lsrs	r3, r3, #1
 80008e2:	ea4f 0232 	mov.w	r2, r2, rrx
 80008e6:	ebb6 0e02 	subs.w	lr, r6, r2
 80008ea:	eb75 0e03 	sbcs.w	lr, r5, r3
 80008ee:	bf22      	ittt	cs
 80008f0:	1ab6      	subcs	r6, r6, r2
 80008f2:	4675      	movcs	r5, lr
 80008f4:	ea40 005c 	orrcs.w	r0, r0, ip, lsr #1
 80008f8:	085b      	lsrs	r3, r3, #1
 80008fa:	ea4f 0232 	mov.w	r2, r2, rrx
 80008fe:	ebb6 0e02 	subs.w	lr, r6, r2
 8000902:	eb75 0e03 	sbcs.w	lr, r5, r3
 8000906:	bf22      	ittt	cs
 8000908:	1ab6      	subcs	r6, r6, r2
 800090a:	4675      	movcs	r5, lr
 800090c:	ea40 009c 	orrcs.w	r0, r0, ip, lsr #2
 8000910:	085b      	lsrs	r3, r3, #1
 8000912:	ea4f 0232 	mov.w	r2, r2, rrx
 8000916:	ebb6 0e02 	subs.w	lr, r6, r2
 800091a:	eb75 0e03 	sbcs.w	lr, r5, r3
 800091e:	bf22      	ittt	cs
 8000920:	1ab6      	subcs	r6, r6, r2
 8000922:	4675      	movcs	r5, lr
 8000924:	ea40 00dc 	orrcs.w	r0, r0, ip, lsr #3
 8000928:	ea55 0e06 	orrs.w	lr, r5, r6
 800092c:	d018      	beq.n	8000960 <__aeabi_ddiv+0x114>
 800092e:	ea4f 1505 	mov.w	r5, r5, lsl #4
 8000932:	ea45 7516 	orr.w	r5, r5, r6, lsr #28
 8000936:	ea4f 1606 	mov.w	r6, r6, lsl #4
 800093a:	ea4f 03c3 	mov.w	r3, r3, lsl #3
 800093e:	ea43 7352 	orr.w	r3, r3, r2, lsr #29
 8000942:	ea4f 02c2 	mov.w	r2, r2, lsl #3
 8000946:	ea5f 1c1c 	movs.w	ip, ip, lsr #4
 800094a:	d1c0      	bne.n	80008ce <__aeabi_ddiv+0x82>
 800094c:	f411 1f80 	tst.w	r1, #1048576	@ 0x100000
 8000950:	d10b      	bne.n	800096a <__aeabi_ddiv+0x11e>
 8000952:	ea41 0100 	orr.w	r1, r1, r0
 8000956:	f04f 0000 	mov.w	r0, #0
 800095a:	f04f 4c00 	mov.w	ip, #2147483648	@ 0x80000000
 800095e:	e7b6      	b.n	80008ce <__aeabi_ddiv+0x82>
 8000960:	f411 1f80 	tst.w	r1, #1048576	@ 0x100000
 8000964:	bf04      	itt	eq
 8000966:	4301      	orreq	r1, r0
 8000968:	2000      	moveq	r0, #0
 800096a:	f1b4 0cfd 	subs.w	ip, r4, #253	@ 0xfd
 800096e:	bf88      	it	hi
 8000970:	f5bc 6fe0 	cmphi.w	ip, #1792	@ 0x700
 8000974:	f63f aeaf 	bhi.w	80006d6 <__aeabi_dmul+0xde>
 8000978:	ebb5 0c03 	subs.w	ip, r5, r3
 800097c:	bf04      	itt	eq
 800097e:	ebb6 0c02 	subseq.w	ip, r6, r2
 8000982:	ea5f 0c50 	movseq.w	ip, r0, lsr #1
 8000986:	f150 0000 	adcs.w	r0, r0, #0
 800098a:	eb41 5104 	adc.w	r1, r1, r4, lsl #20
 800098e:	bd70      	pop	{r4, r5, r6, pc}
 8000990:	f00e 4e00 	and.w	lr, lr, #2147483648	@ 0x80000000
 8000994:	ea4e 3111 	orr.w	r1, lr, r1, lsr #12
 8000998:	eb14 045c 	adds.w	r4, r4, ip, lsr #1
 800099c:	bfc2      	ittt	gt
 800099e:	ebd4 050c 	rsbsgt	r5, r4, ip
 80009a2:	ea41 5104 	orrgt.w	r1, r1, r4, lsl #20
 80009a6:	bd70      	popgt	{r4, r5, r6, pc}
 80009a8:	f441 1180 	orr.w	r1, r1, #1048576	@ 0x100000
 80009ac:	f04f 0e00 	mov.w	lr, #0
 80009b0:	3c01      	subs	r4, #1
 80009b2:	e690      	b.n	80006d6 <__aeabi_dmul+0xde>
 80009b4:	ea45 0e06 	orr.w	lr, r5, r6
 80009b8:	e68d      	b.n	80006d6 <__aeabi_dmul+0xde>
 80009ba:	ea0c 5513 	and.w	r5, ip, r3, lsr #20
 80009be:	ea94 0f0c 	teq	r4, ip
 80009c2:	bf08      	it	eq
 80009c4:	ea95 0f0c 	teqeq	r5, ip
 80009c8:	f43f af3b 	beq.w	8000842 <__aeabi_dmul+0x24a>
 80009cc:	ea94 0f0c 	teq	r4, ip
 80009d0:	d10a      	bne.n	80009e8 <__aeabi_ddiv+0x19c>
 80009d2:	ea50 3401 	orrs.w	r4, r0, r1, lsl #12
 80009d6:	f47f af34 	bne.w	8000842 <__aeabi_dmul+0x24a>
 80009da:	ea95 0f0c 	teq	r5, ip
 80009de:	f47f af25 	bne.w	800082c <__aeabi_dmul+0x234>
 80009e2:	4610      	mov	r0, r2
 80009e4:	4619      	mov	r1, r3
 80009e6:	e72c      	b.n	8000842 <__aeabi_dmul+0x24a>
 80009e8:	ea95 0f0c 	teq	r5, ip
 80009ec:	d106      	bne.n	80009fc <__aeabi_ddiv+0x1b0>
 80009ee:	ea52 3503 	orrs.w	r5, r2, r3, lsl #12
 80009f2:	f43f aefd 	beq.w	80007f0 <__aeabi_dmul+0x1f8>
 80009f6:	4610      	mov	r0, r2
 80009f8:	4619      	mov	r1, r3
 80009fa:	e722      	b.n	8000842 <__aeabi_dmul+0x24a>
 80009fc:	ea50 0641 	orrs.w	r6, r0, r1, lsl #1
 8000a00:	bf18      	it	ne
 8000a02:	ea52 0643 	orrsne.w	r6, r2, r3, lsl #1
 8000a06:	f47f aec5 	bne.w	8000794 <__aeabi_dmul+0x19c>
 8000a0a:	ea50 0441 	orrs.w	r4, r0, r1, lsl #1
 8000a0e:	f47f af0d 	bne.w	800082c <__aeabi_dmul+0x234>
 8000a12:	ea52 0543 	orrs.w	r5, r2, r3, lsl #1
 8000a16:	f47f aeeb 	bne.w	80007f0 <__aeabi_dmul+0x1f8>
 8000a1a:	e712      	b.n	8000842 <__aeabi_dmul+0x24a>

08000a1c <__gedf2>:
 8000a1c:	f04f 3cff 	mov.w	ip, #4294967295	@ 0xffffffff
 8000a20:	e006      	b.n	8000a30 <__cmpdf2+0x4>
 8000a22:	bf00      	nop

08000a24 <__ledf2>:
 8000a24:	f04f 0c01 	mov.w	ip, #1
 8000a28:	e002      	b.n	8000a30 <__cmpdf2+0x4>
 8000a2a:	bf00      	nop

08000a2c <__cmpdf2>:
 8000a2c:	f04f 0c01 	mov.w	ip, #1
 8000a30:	f84d cd04 	str.w	ip, [sp, #-4]!
 8000a34:	ea4f 0c41 	mov.w	ip, r1, lsl #1
 8000a38:	ea7f 5c6c 	mvns.w	ip, ip, asr #21
 8000a3c:	ea4f 0c43 	mov.w	ip, r3, lsl #1
 8000a40:	bf18      	it	ne
 8000a42:	ea7f 5c6c 	mvnsne.w	ip, ip, asr #21
 8000a46:	d01b      	beq.n	8000a80 <__cmpdf2+0x54>
 8000a48:	b001      	add	sp, #4
 8000a4a:	ea50 0c41 	orrs.w	ip, r0, r1, lsl #1
 8000a4e:	bf0c      	ite	eq
 8000a50:	ea52 0c43 	orrseq.w	ip, r2, r3, lsl #1
 8000a54:	ea91 0f03 	teqne	r1, r3
 8000a58:	bf02      	ittt	eq
 8000a5a:	ea90 0f02 	teqeq	r0, r2
 8000a5e:	2000      	moveq	r0, #0
 8000a60:	4770      	bxeq	lr
 8000a62:	f110 0f00 	cmn.w	r0, #0
 8000a66:	ea91 0f03 	teq	r1, r3
 8000a6a:	bf58      	it	pl
 8000a6c:	4299      	cmppl	r1, r3
 8000a6e:	bf08      	it	eq
 8000a70:	4290      	cmpeq	r0, r2
 8000a72:	bf2c      	ite	cs
 8000a74:	17d8      	asrcs	r0, r3, #31
 8000a76:	ea6f 70e3 	mvncc.w	r0, r3, asr #31
 8000a7a:	f040 0001 	orr.w	r0, r0, #1
 8000a7e:	4770      	bx	lr
 8000a80:	ea4f 0c41 	mov.w	ip, r1, lsl #1
 8000a84:	ea7f 5c6c 	mvns.w	ip, ip, asr #21
 8000a88:	d102      	bne.n	8000a90 <__cmpdf2+0x64>
 8000a8a:	ea50 3c01 	orrs.w	ip, r0, r1, lsl #12
 8000a8e:	d107      	bne.n	8000aa0 <__cmpdf2+0x74>
 8000a90:	ea4f 0c43 	mov.w	ip, r3, lsl #1
 8000a94:	ea7f 5c6c 	mvns.w	ip, ip, asr #21
 8000a98:	d1d6      	bne.n	8000a48 <__cmpdf2+0x1c>
 8000a9a:	ea52 3c03 	orrs.w	ip, r2, r3, lsl #12
 8000a9e:	d0d3      	beq.n	8000a48 <__cmpdf2+0x1c>
 8000aa0:	f85d 0b04 	ldr.w	r0, [sp], #4
 8000aa4:	4770      	bx	lr
 8000aa6:	bf00      	nop

08000aa8 <__aeabi_cdrcmple>:
 8000aa8:	4684      	mov	ip, r0
 8000aaa:	4610      	mov	r0, r2
 8000aac:	4662      	mov	r2, ip
 8000aae:	468c      	mov	ip, r1
 8000ab0:	4619      	mov	r1, r3
 8000ab2:	4663      	mov	r3, ip
 8000ab4:	e000      	b.n	8000ab8 <__aeabi_cdcmpeq>
 8000ab6:	bf00      	nop

08000ab8 <__aeabi_cdcmpeq>:
 8000ab8:	b501      	push	{r0, lr}
 8000aba:	f7ff ffb7 	bl	8000a2c <__cmpdf2>
 8000abe:	2800      	cmp	r0, #0
 8000ac0:	bf48      	it	mi
 8000ac2:	f110 0f00 	cmnmi.w	r0, #0
 8000ac6:	bd01      	pop	{r0, pc}

08000ac8 <__aeabi_dcmpeq>:
 8000ac8:	f84d ed08 	str.w	lr, [sp, #-8]!
 8000acc:	f7ff fff4 	bl	8000ab8 <__aeabi_cdcmpeq>
 8000ad0:	bf0c      	ite	eq
 8000ad2:	2001      	moveq	r0, #1
 8000ad4:	2000      	movne	r0, #0
 8000ad6:	f85d fb08 	ldr.w	pc, [sp], #8
 8000ada:	bf00      	nop

08000adc <__aeabi_dcmplt>:
 8000adc:	f84d ed08 	str.w	lr, [sp, #-8]!
 8000ae0:	f7ff ffea 	bl	8000ab8 <__aeabi_cdcmpeq>
 8000ae4:	bf34      	ite	cc
 8000ae6:	2001      	movcc	r0, #1
 8000ae8:	2000      	movcs	r0, #0
 8000aea:	f85d fb08 	ldr.w	pc, [sp], #8
 8000aee:	bf00      	nop

08000af0 <__aeabi_dcmple>:
 8000af0:	f84d ed08 	str.w	lr, [sp, #-8]!
 8000af4:	f7ff ffe0 	bl	8000ab8 <__aeabi_cdcmpeq>
 8000af8:	bf94      	ite	ls
 8000afa:	2001      	movls	r0, #1
 8000afc:	2000      	movhi	r0, #0
 8000afe:	f85d fb08 	ldr.w	pc, [sp], #8
 8000b02:	bf00      	nop

08000b04 <__aeabi_dcmpge>:
 8000b04:	f84d ed08 	str.w	lr, [sp, #-8]!
 8000b08:	f7ff ffce 	bl	8000aa8 <__aeabi_cdrcmple>
 8000b0c:	bf94      	ite	ls
 8000b0e:	2001      	movls	r0, #1
 8000b10:	2000      	movhi	r0, #0
 8000b12:	f85d fb08 	ldr.w	pc, [sp], #8
 8000b16:	bf00      	nop

08000b18 <__aeabi_dcmpgt>:
 8000b18:	f84d ed08 	str.w	lr, [sp, #-8]!
 8000b1c:	f7ff ffc4 	bl	8000aa8 <__aeabi_cdrcmple>
 8000b20:	bf34      	ite	cc
 8000b22:	2001      	movcc	r0, #1
 8000b24:	2000      	movcs	r0, #0
 8000b26:	f85d fb08 	ldr.w	pc, [sp], #8
 8000b2a:	bf00      	nop

08000b2c <__aeabi_dcmpun>:
 8000b2c:	ea4f 0c41 	mov.w	ip, r1, lsl #1
 8000b30:	ea7f 5c6c 	mvns.w	ip, ip, asr #21
 8000b34:	d102      	bne.n	8000b3c <__aeabi_dcmpun+0x10>
 8000b36:	ea50 3c01 	orrs.w	ip, r0, r1, lsl #12
 8000b3a:	d10a      	bne.n	8000b52 <__aeabi_dcmpun+0x26>
 8000b3c:	ea4f 0c43 	mov.w	ip, r3, lsl #1
 8000b40:	ea7f 5c6c 	mvns.w	ip, ip, asr #21
 8000b44:	d102      	bne.n	8000b4c <__aeabi_dcmpun+0x20>
 8000b46:	ea52 3c03 	orrs.w	ip, r2, r3, lsl #12
 8000b4a:	d102      	bne.n	8000b52 <__aeabi_dcmpun+0x26>
 8000b4c:	f04f 0000 	mov.w	r0, #0
 8000b50:	4770      	bx	lr
 8000b52:	f04f 0001 	mov.w	r0, #1
 8000b56:	4770      	bx	lr

08000b58 <__aeabi_d2iz>:
 8000b58:	ea4f 0241 	mov.w	r2, r1, lsl #1
 8000b5c:	f512 1200 	adds.w	r2, r2, #2097152	@ 0x200000
 8000b60:	d215      	bcs.n	8000b8e <__aeabi_d2iz+0x36>
 8000b62:	d511      	bpl.n	8000b88 <__aeabi_d2iz+0x30>
 8000b64:	f46f 7378 	mvn.w	r3, #992	@ 0x3e0
 8000b68:	ebb3 5262 	subs.w	r2, r3, r2, asr #21
 8000b6c:	d912      	bls.n	8000b94 <__aeabi_d2iz+0x3c>
 8000b6e:	ea4f 23c1 	mov.w	r3, r1, lsl #11
 8000b72:	f043 4300 	orr.w	r3, r3, #2147483648	@ 0x80000000
 8000b76:	ea43 5350 	orr.w	r3, r3, r0, lsr #21
 8000b7a:	f011 4f00 	tst.w	r1, #2147483648	@ 0x80000000
 8000b7e:	fa23 f002 	lsr.w	r0, r3, r2
 8000b82:	bf18      	it	ne
 8000b84:	4240      	negne	r0, r0
 8000b86:	4770      	bx	lr
 8000b88:	f04f 0000 	mov.w	r0, #0
 8000b8c:	4770      	bx	lr
 8000b8e:	ea50 3001 	orrs.w	r0, r0, r1, lsl #12
 8000b92:	d105      	bne.n	8000ba0 <__aeabi_d2iz+0x48>
 8000b94:	f011 4000 	ands.w	r0, r1, #2147483648	@ 0x80000000
 8000b98:	bf08      	it	eq
 8000b9a:	f06f 4000 	mvneq.w	r0, #2147483648	@ 0x80000000
 8000b9e:	4770      	bx	lr
 8000ba0:	f04f 0000 	mov.w	r0, #0
 8000ba4:	4770      	bx	lr
 8000ba6:	bf00      	nop

08000ba8 <__aeabi_d2f>:
 8000ba8:	ea4f 0241 	mov.w	r2, r1, lsl #1
 8000bac:	f1b2 43e0 	subs.w	r3, r2, #1879048192	@ 0x70000000
 8000bb0:	bf24      	itt	cs
 8000bb2:	f5b3 1c00 	subscs.w	ip, r3, #2097152	@ 0x200000
 8000bb6:	f1dc 5cfe 	rsbscs	ip, ip, #532676608	@ 0x1fc00000
 8000bba:	d90d      	bls.n	8000bd8 <__aeabi_d2f+0x30>
 8000bbc:	f001 4c00 	and.w	ip, r1, #2147483648	@ 0x80000000
 8000bc0:	ea4f 02c0 	mov.w	r2, r0, lsl #3
 8000bc4:	ea4c 7050 	orr.w	r0, ip, r0, lsr #29
 8000bc8:	f1b2 4f00 	cmp.w	r2, #2147483648	@ 0x80000000
 8000bcc:	eb40 0083 	adc.w	r0, r0, r3, lsl #2
 8000bd0:	bf08      	it	eq
 8000bd2:	f020 0001 	biceq.w	r0, r0, #1
 8000bd6:	4770      	bx	lr
 8000bd8:	f011 4f80 	tst.w	r1, #1073741824	@ 0x40000000
 8000bdc:	d121      	bne.n	8000c22 <__aeabi_d2f+0x7a>
 8000bde:	f113 7238 	adds.w	r2, r3, #48234496	@ 0x2e00000
 8000be2:	bfbc      	itt	lt
 8000be4:	f001 4000 	andlt.w	r0, r1, #2147483648	@ 0x80000000
 8000be8:	4770      	bxlt	lr
 8000bea:	f441 1180 	orr.w	r1, r1, #1048576	@ 0x100000
 8000bee:	ea4f 5252 	mov.w	r2, r2, lsr #21
 8000bf2:	f1c2 0218 	rsb	r2, r2, #24
 8000bf6:	f1c2 0c20 	rsb	ip, r2, #32
 8000bfa:	fa10 f30c 	lsls.w	r3, r0, ip
 8000bfe:	fa20 f002 	lsr.w	r0, r0, r2
 8000c02:	bf18      	it	ne
 8000c04:	f040 0001 	orrne.w	r0, r0, #1
 8000c08:	ea4f 23c1 	mov.w	r3, r1, lsl #11
 8000c0c:	ea4f 23d3 	mov.w	r3, r3, lsr #11
 8000c10:	fa03 fc0c 	lsl.w	ip, r3, ip
 8000c14:	ea40 000c 	orr.w	r0, r0, ip
 8000c18:	fa23 f302 	lsr.w	r3, r3, r2
 8000c1c:	ea4f 0343 	mov.w	r3, r3, lsl #1
 8000c20:	e7cc      	b.n	8000bbc <__aeabi_d2f+0x14>
 8000c22:	ea7f 5362 	mvns.w	r3, r2, asr #21
 8000c26:	d107      	bne.n	8000c38 <__aeabi_d2f+0x90>
 8000c28:	ea50 3301 	orrs.w	r3, r0, r1, lsl #12
 8000c2c:	bf1e      	ittt	ne
 8000c2e:	f04f 40fe 	movne.w	r0, #2130706432	@ 0x7f000000
 8000c32:	f440 0040 	orrne.w	r0, r0, #12582912	@ 0xc00000
 8000c36:	4770      	bxne	lr
 8000c38:	f001 4000 	and.w	r0, r1, #2147483648	@ 0x80000000
 8000c3c:	f040 40fe 	orr.w	r0, r0, #2130706432	@ 0x7f000000
 8000c40:	f440 0000 	orr.w	r0, r0, #8388608	@ 0x800000
 8000c44:	4770      	bx	lr
 8000c46:	bf00      	nop

08000c48 <__aeabi_uldivmod>:
 8000c48:	b953      	cbnz	r3, 8000c60 <__aeabi_uldivmod+0x18>
 8000c4a:	b94a      	cbnz	r2, 8000c60 <__aeabi_uldivmod+0x18>
 8000c4c:	2900      	cmp	r1, #0
 8000c4e:	bf08      	it	eq
 8000c50:	2800      	cmpeq	r0, #0
 8000c52:	bf1c      	itt	ne
 8000c54:	f04f 31ff 	movne.w	r1, #4294967295	@ 0xffffffff
 8000c58:	f04f 30ff 	movne.w	r0, #4294967295	@ 0xffffffff
 8000c5c:	f000 b96a 	b.w	8000f34 <__aeabi_idiv0>
 8000c60:	f1ad 0c08 	sub.w	ip, sp, #8
 8000c64:	e96d ce04 	strd	ip, lr, [sp, #-16]!
 8000c68:	f000 f806 	bl	8000c78 <__udivmoddi4>
 8000c6c:	f8dd e004 	ldr.w	lr, [sp, #4]
 8000c70:	e9dd 2302 	ldrd	r2, r3, [sp, #8]
 8000c74:	b004      	add	sp, #16
 8000c76:	4770      	bx	lr

08000c78 <__udivmoddi4>:
 8000c78:	e92d 47f0 	stmdb	sp!, {r4, r5, r6, r7, r8, r9, sl, lr}
 8000c7c:	9d08      	ldr	r5, [sp, #32]
 8000c7e:	460c      	mov	r4, r1
 8000c80:	2b00      	cmp	r3, #0
 8000c82:	d14e      	bne.n	8000d22 <__udivmoddi4+0xaa>
 8000c84:	4694      	mov	ip, r2
 8000c86:	458c      	cmp	ip, r1
 8000c88:	4686      	mov	lr, r0
 8000c8a:	fab2 f282 	clz	r2, r2
 8000c8e:	d962      	bls.n	8000d56 <__udivmoddi4+0xde>
 8000c90:	b14a      	cbz	r2, 8000ca6 <__udivmoddi4+0x2e>
 8000c92:	f1c2 0320 	rsb	r3, r2, #32
 8000c96:	4091      	lsls	r1, r2
 8000c98:	fa20 f303 	lsr.w	r3, r0, r3
 8000c9c:	fa0c fc02 	lsl.w	ip, ip, r2
 8000ca0:	4319      	orrs	r1, r3
 8000ca2:	fa00 fe02 	lsl.w	lr, r0, r2
 8000ca6:	ea4f 471c 	mov.w	r7, ip, lsr #16
 8000caa:	fa1f f68c 	uxth.w	r6, ip
 8000cae:	fbb1 f4f7 	udiv	r4, r1, r7
 8000cb2:	ea4f 431e 	mov.w	r3, lr, lsr #16
 8000cb6:	fb07 1114 	mls	r1, r7, r4, r1
 8000cba:	ea43 4301 	orr.w	r3, r3, r1, lsl #16
 8000cbe:	fb04 f106 	mul.w	r1, r4, r6
 8000cc2:	4299      	cmp	r1, r3
 8000cc4:	d90a      	bls.n	8000cdc <__udivmoddi4+0x64>
 8000cc6:	eb1c 0303 	adds.w	r3, ip, r3
 8000cca:	f104 30ff 	add.w	r0, r4, #4294967295	@ 0xffffffff
 8000cce:	f080 8112 	bcs.w	8000ef6 <__udivmoddi4+0x27e>
 8000cd2:	4299      	cmp	r1, r3
 8000cd4:	f240 810f 	bls.w	8000ef6 <__udivmoddi4+0x27e>
 8000cd8:	3c02      	subs	r4, #2
 8000cda:	4463      	add	r3, ip
 8000cdc:	1a59      	subs	r1, r3, r1
 8000cde:	fa1f f38e 	uxth.w	r3, lr
 8000ce2:	fbb1 f0f7 	udiv	r0, r1, r7
 8000ce6:	fb07 1110 	mls	r1, r7, r0, r1
 8000cea:	ea43 4301 	orr.w	r3, r3, r1, lsl #16
 8000cee:	fb00 f606 	mul.w	r6, r0, r6
 8000cf2:	429e      	cmp	r6, r3
 8000cf4:	d90a      	bls.n	8000d0c <__udivmoddi4+0x94>
 8000cf6:	eb1c 0303 	adds.w	r3, ip, r3
 8000cfa:	f100 31ff 	add.w	r1, r0, #4294967295	@ 0xffffffff
 8000cfe:	f080 80fc 	bcs.w	8000efa <__udivmoddi4+0x282>
 8000d02:	429e      	cmp	r6, r3
 8000d04:	f240 80f9 	bls.w	8000efa <__udivmoddi4+0x282>
 8000d08:	4463      	add	r3, ip
 8000d0a:	3802      	subs	r0, #2
 8000d0c:	1b9b      	subs	r3, r3, r6
 8000d0e:	ea40 4004 	orr.w	r0, r0, r4, lsl #16
 8000d12:	2100      	movs	r1, #0
 8000d14:	b11d      	cbz	r5, 8000d1e <__udivmoddi4+0xa6>
 8000d16:	40d3      	lsrs	r3, r2
 8000d18:	2200      	movs	r2, #0
 8000d1a:	e9c5 3200 	strd	r3, r2, [r5]
 8000d1e:	e8bd 87f0 	ldmia.w	sp!, {r4, r5, r6, r7, r8, r9, sl, pc}
 8000d22:	428b      	cmp	r3, r1
 8000d24:	d905      	bls.n	8000d32 <__udivmoddi4+0xba>
 8000d26:	b10d      	cbz	r5, 8000d2c <__udivmoddi4+0xb4>
 8000d28:	e9c5 0100 	strd	r0, r1, [r5]
 8000d2c:	2100      	movs	r1, #0
 8000d2e:	4608      	mov	r0, r1
 8000d30:	e7f5      	b.n	8000d1e <__udivmoddi4+0xa6>
 8000d32:	fab3 f183 	clz	r1, r3
 8000d36:	2900      	cmp	r1, #0
 8000d38:	d146      	bne.n	8000dc8 <__udivmoddi4+0x150>
 8000d3a:	42a3      	cmp	r3, r4
 8000d3c:	d302      	bcc.n	8000d44 <__udivmoddi4+0xcc>
 8000d3e:	4290      	cmp	r0, r2
 8000d40:	f0c0 80f0 	bcc.w	8000f24 <__udivmoddi4+0x2ac>
 8000d44:	1a86      	subs	r6, r0, r2
 8000d46:	eb64 0303 	sbc.w	r3, r4, r3
 8000d4a:	2001      	movs	r0, #1
 8000d4c:	2d00      	cmp	r5, #0
 8000d4e:	d0e6      	beq.n	8000d1e <__udivmoddi4+0xa6>
 8000d50:	e9c5 6300 	strd	r6, r3, [r5]
 8000d54:	e7e3      	b.n	8000d1e <__udivmoddi4+0xa6>
 8000d56:	2a00      	cmp	r2, #0
 8000d58:	f040 8090 	bne.w	8000e7c <__udivmoddi4+0x204>
 8000d5c:	eba1 040c 	sub.w	r4, r1, ip
 8000d60:	ea4f 481c 	mov.w	r8, ip, lsr #16
 8000d64:	fa1f f78c 	uxth.w	r7, ip
 8000d68:	2101      	movs	r1, #1
 8000d6a:	fbb4 f6f8 	udiv	r6, r4, r8
 8000d6e:	ea4f 431e 	mov.w	r3, lr, lsr #16
 8000d72:	fb08 4416 	mls	r4, r8, r6, r4
 8000d76:	ea43 4304 	orr.w	r3, r3, r4, lsl #16
 8000d7a:	fb07 f006 	mul.w	r0, r7, r6
 8000d7e:	4298      	cmp	r0, r3
 8000d80:	d908      	bls.n	8000d94 <__udivmoddi4+0x11c>
 8000d82:	eb1c 0303 	adds.w	r3, ip, r3
 8000d86:	f106 34ff 	add.w	r4, r6, #4294967295	@ 0xffffffff
 8000d8a:	d202      	bcs.n	8000d92 <__udivmoddi4+0x11a>
 8000d8c:	4298      	cmp	r0, r3
 8000d8e:	f200 80cd 	bhi.w	8000f2c <__udivmoddi4+0x2b4>
 8000d92:	4626      	mov	r6, r4
 8000d94:	1a1c      	subs	r4, r3, r0
 8000d96:	fa1f f38e 	uxth.w	r3, lr
 8000d9a:	fbb4 f0f8 	udiv	r0, r4, r8
 8000d9e:	fb08 4410 	mls	r4, r8, r0, r4
 8000da2:	ea43 4304 	orr.w	r3, r3, r4, lsl #16
 8000da6:	fb00 f707 	mul.w	r7, r0, r7
 8000daa:	429f      	cmp	r7, r3
 8000dac:	d908      	bls.n	8000dc0 <__udivmoddi4+0x148>
 8000dae:	eb1c 0303 	adds.w	r3, ip, r3
 8000db2:	f100 34ff 	add.w	r4, r0, #4294967295	@ 0xffffffff
 8000db6:	d202      	bcs.n	8000dbe <__udivmoddi4+0x146>
 8000db8:	429f      	cmp	r7, r3
 8000dba:	f200 80b0 	bhi.w	8000f1e <__udivmoddi4+0x2a6>
 8000dbe:	4620      	mov	r0, r4
 8000dc0:	1bdb      	subs	r3, r3, r7
 8000dc2:	ea40 4006 	orr.w	r0, r0, r6, lsl #16
 8000dc6:	e7a5      	b.n	8000d14 <__udivmoddi4+0x9c>
 8000dc8:	f1c1 0620 	rsb	r6, r1, #32
 8000dcc:	408b      	lsls	r3, r1
 8000dce:	fa22 f706 	lsr.w	r7, r2, r6
 8000dd2:	431f      	orrs	r7, r3
 8000dd4:	fa20 fc06 	lsr.w	ip, r0, r6
 8000dd8:	fa04 f301 	lsl.w	r3, r4, r1
 8000ddc:	ea43 030c 	orr.w	r3, r3, ip
 8000de0:	40f4      	lsrs	r4, r6
 8000de2:	fa00 f801 	lsl.w	r8, r0, r1
 8000de6:	0c38      	lsrs	r0, r7, #16
 8000de8:	ea4f 4913 	mov.w	r9, r3, lsr #16
 8000dec:	fbb4 fef0 	udiv	lr, r4, r0
 8000df0:	fa1f fc87 	uxth.w	ip, r7
 8000df4:	fb00 441e 	mls	r4, r0, lr, r4
 8000df8:	ea49 4404 	orr.w	r4, r9, r4, lsl #16
 8000dfc:	fb0e f90c 	mul.w	r9, lr, ip
 8000e00:	45a1      	cmp	r9, r4
 8000e02:	fa02 f201 	lsl.w	r2, r2, r1
 8000e06:	d90a      	bls.n	8000e1e <__udivmoddi4+0x1a6>
 8000e08:	193c      	adds	r4, r7, r4
 8000e0a:	f10e 3aff 	add.w	sl, lr, #4294967295	@ 0xffffffff
 8000e0e:	f080 8084 	bcs.w	8000f1a <__udivmoddi4+0x2a2>
 8000e12:	45a1      	cmp	r9, r4
 8000e14:	f240 8081 	bls.w	8000f1a <__udivmoddi4+0x2a2>
 8000e18:	f1ae 0e02 	sub.w	lr, lr, #2
 8000e1c:	443c      	add	r4, r7
 8000e1e:	eba4 0409 	sub.w	r4, r4, r9
 8000e22:	fa1f f983 	uxth.w	r9, r3
 8000e26:	fbb4 f3f0 	udiv	r3, r4, r0
 8000e2a:	fb00 4413 	mls	r4, r0, r3, r4
 8000e2e:	ea49 4404 	orr.w	r4, r9, r4, lsl #16
 8000e32:	fb03 fc0c 	mul.w	ip, r3, ip
 8000e36:	45a4      	cmp	ip, r4
 8000e38:	d907      	bls.n	8000e4a <__udivmoddi4+0x1d2>
 8000e3a:	193c      	adds	r4, r7, r4
 8000e3c:	f103 30ff 	add.w	r0, r3, #4294967295	@ 0xffffffff
 8000e40:	d267      	bcs.n	8000f12 <__udivmoddi4+0x29a>
 8000e42:	45a4      	cmp	ip, r4
 8000e44:	d965      	bls.n	8000f12 <__udivmoddi4+0x29a>
 8000e46:	3b02      	subs	r3, #2
 8000e48:	443c      	add	r4, r7
 8000e4a:	ea43 400e 	orr.w	r0, r3, lr, lsl #16
 8000e4e:	fba0 9302 	umull	r9, r3, r0, r2
 8000e52:	eba4 040c 	sub.w	r4, r4, ip
 8000e56:	429c      	cmp	r4, r3
 8000e58:	46ce      	mov	lr, r9
 8000e5a:	469c      	mov	ip, r3
 8000e5c:	d351      	bcc.n	8000f02 <__udivmoddi4+0x28a>
 8000e5e:	d04e      	beq.n	8000efe <__udivmoddi4+0x286>
 8000e60:	b155      	cbz	r5, 8000e78 <__udivmoddi4+0x200>
 8000e62:	ebb8 030e 	subs.w	r3, r8, lr
 8000e66:	eb64 040c 	sbc.w	r4, r4, ip
 8000e6a:	fa04 f606 	lsl.w	r6, r4, r6
 8000e6e:	40cb      	lsrs	r3, r1
 8000e70:	431e      	orrs	r6, r3
 8000e72:	40cc      	lsrs	r4, r1
 8000e74:	e9c5 6400 	strd	r6, r4, [r5]
 8000e78:	2100      	movs	r1, #0
 8000e7a:	e750      	b.n	8000d1e <__udivmoddi4+0xa6>
 8000e7c:	f1c2 0320 	rsb	r3, r2, #32
 8000e80:	fa20 f103 	lsr.w	r1, r0, r3
 8000e84:	fa0c fc02 	lsl.w	ip, ip, r2
 8000e88:	fa24 f303 	lsr.w	r3, r4, r3
 8000e8c:	4094      	lsls	r4, r2
 8000e8e:	430c      	orrs	r4, r1
 8000e90:	ea4f 481c 	mov.w	r8, ip, lsr #16
 8000e94:	fa00 fe02 	lsl.w	lr, r0, r2
 8000e98:	fa1f f78c 	uxth.w	r7, ip
 8000e9c:	fbb3 f0f8 	udiv	r0, r3, r8
 8000ea0:	fb08 3110 	mls	r1, r8, r0, r3
 8000ea4:	0c23      	lsrs	r3, r4, #16
 8000ea6:	ea43 4301 	orr.w	r3, r3, r1, lsl #16
 8000eaa:	fb00 f107 	mul.w	r1, r0, r7
 8000eae:	4299      	cmp	r1, r3
 8000eb0:	d908      	bls.n	8000ec4 <__udivmoddi4+0x24c>
 8000eb2:	eb1c 0303 	adds.w	r3, ip, r3
 8000eb6:	f100 36ff 	add.w	r6, r0, #4294967295	@ 0xffffffff
 8000eba:	d22c      	bcs.n	8000f16 <__udivmoddi4+0x29e>
 8000ebc:	4299      	cmp	r1, r3
 8000ebe:	d92a      	bls.n	8000f16 <__udivmoddi4+0x29e>
 8000ec0:	3802      	subs	r0, #2
 8000ec2:	4463      	add	r3, ip
 8000ec4:	1a5b      	subs	r3, r3, r1
 8000ec6:	b2a4      	uxth	r4, r4
 8000ec8:	fbb3 f1f8 	udiv	r1, r3, r8
 8000ecc:	fb08 3311 	mls	r3, r8, r1, r3
 8000ed0:	ea44 4403 	orr.w	r4, r4, r3, lsl #16
 8000ed4:	fb01 f307 	mul.w	r3, r1, r7
 8000ed8:	42a3      	cmp	r3, r4
 8000eda:	d908      	bls.n	8000eee <__udivmoddi4+0x276>
 8000edc:	eb1c 0404 	adds.w	r4, ip, r4
 8000ee0:	f101 36ff 	add.w	r6, r1, #4294967295	@ 0xffffffff
 8000ee4:	d213      	bcs.n	8000f0e <__udivmoddi4+0x296>
 8000ee6:	42a3      	cmp	r3, r4
 8000ee8:	d911      	bls.n	8000f0e <__udivmoddi4+0x296>
 8000eea:	3902      	subs	r1, #2
 8000eec:	4464      	add	r4, ip
 8000eee:	1ae4      	subs	r4, r4, r3
 8000ef0:	ea41 4100 	orr.w	r1, r1, r0, lsl #16
 8000ef4:	e739      	b.n	8000d6a <__udivmoddi4+0xf2>
 8000ef6:	4604      	mov	r4, r0
 8000ef8:	e6f0      	b.n	8000cdc <__udivmoddi4+0x64>
 8000efa:	4608      	mov	r0, r1
 8000efc:	e706      	b.n	8000d0c <__udivmoddi4+0x94>
 8000efe:	45c8      	cmp	r8, r9
 8000f00:	d2ae      	bcs.n	8000e60 <__udivmoddi4+0x1e8>
 8000f02:	ebb9 0e02 	subs.w	lr, r9, r2
 8000f06:	eb63 0c07 	sbc.w	ip, r3, r7
 8000f0a:	3801      	subs	r0, #1
 8000f0c:	e7a8      	b.n	8000e60 <__udivmoddi4+0x1e8>
 8000f0e:	4631      	mov	r1, r6
 8000f10:	e7ed      	b.n	8000eee <__udivmoddi4+0x276>
 8000f12:	4603      	mov	r3, r0
 8000f14:	e799      	b.n	8000e4a <__udivmoddi4+0x1d2>
 8000f16:	4630      	mov	r0, r6
 8000f18:	e7d4      	b.n	8000ec4 <__udivmoddi4+0x24c>
 8000f1a:	46d6      	mov	lr, sl
 8000f1c:	e77f      	b.n	8000e1e <__udivmoddi4+0x1a6>
 8000f1e:	4463      	add	r3, ip
 8000f20:	3802      	subs	r0, #2
 8000f22:	e74d      	b.n	8000dc0 <__udivmoddi4+0x148>
 8000f24:	4606      	mov	r6, r0
 8000f26:	4623      	mov	r3, r4
 8000f28:	4608      	mov	r0, r1
 8000f2a:	e70f      	b.n	8000d4c <__udivmoddi4+0xd4>
 8000f2c:	3e02      	subs	r6, #2
 8000f2e:	4463      	add	r3, ip
 8000f30:	e730      	b.n	8000d94 <__udivmoddi4+0x11c>
 8000f32:	bf00      	nop

08000f34 <__aeabi_idiv0>:
 8000f34:	4770      	bx	lr
 8000f36:	bf00      	nop

08000f38 <MX_GPIO_Init>:
  * @brief GPIO Initialization Function
  * @param None
  * @retval None
  */
static void MX_GPIO_Init(void)
{
 8000f38:	b530      	push	{r4, r5, lr}
 8000f3a:	b08b      	sub	sp, #44	@ 0x2c
  GPIO_InitTypeDef GPIO_InitStruct = {0};
 8000f3c:	2400      	movs	r4, #0
 8000f3e:	9405      	str	r4, [sp, #20]
 8000f40:	9406      	str	r4, [sp, #24]
 8000f42:	9407      	str	r4, [sp, #28]
 8000f44:	9408      	str	r4, [sp, #32]
 8000f46:	9409      	str	r4, [sp, #36]	@ 0x24
/* USER CODE BEGIN MX_GPIO_Init_1 */
/* USER CODE END MX_GPIO_Init_1 */

  /* GPIO Ports Clock Enable */
  __HAL_RCC_GPIOC_CLK_ENABLE();
 8000f48:	9401      	str	r4, [sp, #4]
 8000f4a:	4b21      	ldr	r3, [pc, #132]	@ (8000fd0 <MX_GPIO_Init+0x98>)
 8000f4c:	6b1a      	ldr	r2, [r3, #48]	@ 0x30
 8000f4e:	f042 0204 	orr.w	r2, r2, #4
 8000f52:	631a      	str	r2, [r3, #48]	@ 0x30
 8000f54:	6b1a      	ldr	r2, [r3, #48]	@ 0x30
 8000f56:	f002 0204 	and.w	r2, r2, #4
 8000f5a:	9201      	str	r2, [sp, #4]
 8000f5c:	9a01      	ldr	r2, [sp, #4]
  __HAL_RCC_GPIOH_CLK_ENABLE();
 8000f5e:	9402      	str	r4, [sp, #8]
 8000f60:	6b1a      	ldr	r2, [r3, #48]	@ 0x30
 8000f62:	f042 0280 	orr.w	r2, r2, #128	@ 0x80
 8000f66:	631a      	str	r2, [r3, #48]	@ 0x30
 8000f68:	6b1a      	ldr	r2, [r3, #48]	@ 0x30
 8000f6a:	f002 0280 	and.w	r2, r2, #128	@ 0x80
 8000f6e:	9202      	str	r2, [sp, #8]
 8000f70:	9a02      	ldr	r2, [sp, #8]
  __HAL_RCC_GPIOA_CLK_ENABLE();
 8000f72:	9403      	str	r4, [sp, #12]
 8000f74:	6b1a      	ldr	r2, [r3, #48]	@ 0x30
 8000f76:	f042 0201 	orr.w	r2, r2, #1
 8000f7a:	631a      	str	r2, [r3, #48]	@ 0x30
 8000f7c:	6b1a      	ldr	r2, [r3, #48]	@ 0x30
 8000f7e:	f002 0201 	and.w	r2, r2, #1
 8000f82:	9203      	str	r2, [sp, #12]
 8000f84:	9a03      	ldr	r2, [sp, #12]
  __HAL_RCC_GPIOB_CLK_ENABLE();
 8000f86:	9404      	str	r4, [sp, #16]
 8000f88:	6b1a      	ldr	r2, [r3, #48]	@ 0x30
 8000f8a:	f042 0202 	orr.w	r2, r2, #2
 8000f8e:	631a      	str	r2, [r3, #48]	@ 0x30
 8000f90:	6b1b      	ldr	r3, [r3, #48]	@ 0x30
 8000f92:	f003 0302 	and.w	r3, r3, #2
 8000f96:	9304      	str	r3, [sp, #16]
 8000f98:	9b04      	ldr	r3, [sp, #16]

  /*Configure GPIO pin Output Level */
  HAL_GPIO_WritePin(LED_GPIO_Port, LED_Pin, GPIO_PIN_SET);
 8000f9a:	4d0e      	ldr	r5, [pc, #56]	@ (8000fd4 <MX_GPIO_Init+0x9c>)
 8000f9c:	2201      	movs	r2, #1
 8000f9e:	f44f 5100 	mov.w	r1, #8192	@ 0x2000
 8000fa2:	4628      	mov	r0, r5
 8000fa4:	f001 fb60 	bl	8002668 <HAL_GPIO_WritePin>

  /*Configure GPIO pin Output Level */
  HAL_GPIO_WritePin(PULSE_GPIO_Port, PULSE_Pin, GPIO_PIN_RESET);
 8000fa8:	4622      	mov	r2, r4
 8000faa:	f44f 4180 	mov.w	r1, #16384	@ 0x4000
 8000fae:	4628      	mov	r0, r5
 8000fb0:	f001 fb5a 	bl	8002668 <HAL_GPIO_WritePin>

  /*Configure GPIO pins : LED_Pin PULSE_Pin */
  GPIO_InitStruct.Pin = LED_Pin|PULSE_Pin;
 8000fb4:	f44f 43c0 	mov.w	r3, #24576	@ 0x6000
 8000fb8:	9305      	str	r3, [sp, #20]
  GPIO_InitStruct.Mode = GPIO_MODE_OUTPUT_PP;
 8000fba:	2301      	movs	r3, #1
 8000fbc:	9306      	str	r3, [sp, #24]
  GPIO_InitStruct.Pull = GPIO_NOPULL;
 8000fbe:	9407      	str	r4, [sp, #28]
  GPIO_InitStruct.Speed = GPIO_SPEED_FREQ_LOW;
 8000fc0:	9408      	str	r4, [sp, #32]
  HAL_GPIO_Init(GPIOC, &GPIO_InitStruct);
 8000fc2:	a905      	add	r1, sp, #20
 8000fc4:	4628      	mov	r0, r5
 8000fc6:	f001 fa59 	bl	800247c <HAL_GPIO_Init>

/* USER CODE BEGIN MX_GPIO_Init_2 */
/* USER CODE END MX_GPIO_Init_2 */
}
 8000fca:	b00b      	add	sp, #44	@ 0x2c
 8000fcc:	bd30      	pop	{r4, r5, pc}
 8000fce:	bf00      	nop
 8000fd0:	40023800 	.word	0x40023800
 8000fd4:	40020800 	.word	0x40020800

08000fd8 <MX_DMA_Init>:
{
 8000fd8:	b510      	push	{r4, lr}
 8000fda:	b082      	sub	sp, #8
  __HAL_RCC_DMA1_CLK_ENABLE();
 8000fdc:	2400      	movs	r4, #0
 8000fde:	9401      	str	r4, [sp, #4]
 8000fe0:	4b0d      	ldr	r3, [pc, #52]	@ (8001018 <MX_DMA_Init+0x40>)
 8000fe2:	6b1a      	ldr	r2, [r3, #48]	@ 0x30
 8000fe4:	f442 1200 	orr.w	r2, r2, #2097152	@ 0x200000
 8000fe8:	631a      	str	r2, [r3, #48]	@ 0x30
 8000fea:	6b1b      	ldr	r3, [r3, #48]	@ 0x30
 8000fec:	f403 1300 	and.w	r3, r3, #2097152	@ 0x200000
 8000ff0:	9301      	str	r3, [sp, #4]
 8000ff2:	9b01      	ldr	r3, [sp, #4]
  HAL_NVIC_SetPriority(DMA1_Stream5_IRQn, 5, 0);
 8000ff4:	4622      	mov	r2, r4
 8000ff6:	2105      	movs	r1, #5
 8000ff8:	2010      	movs	r0, #16
 8000ffa:	f000 ff31 	bl	8001e60 <HAL_NVIC_SetPriority>
  HAL_NVIC_EnableIRQ(DMA1_Stream5_IRQn);
 8000ffe:	2010      	movs	r0, #16
 8001000:	f000 ff3e 	bl	8001e80 <HAL_NVIC_EnableIRQ>
  HAL_NVIC_SetPriority(DMA1_Stream6_IRQn, 5, 0);
 8001004:	4622      	mov	r2, r4
 8001006:	2105      	movs	r1, #5
 8001008:	2011      	movs	r0, #17
 800100a:	f000 ff29 	bl	8001e60 <HAL_NVIC_SetPriority>
  HAL_NVIC_EnableIRQ(DMA1_Stream6_IRQn);
 800100e:	2011      	movs	r0, #17
 8001010:	f000 ff36 	bl	8001e80 <HAL_NVIC_EnableIRQ>
}
 8001014:	b002      	add	sp, #8
 8001016:	bd10      	pop	{r4, pc}
 8001018:	40023800 	.word	0x40023800

0800101c <StartDefaultTask>:
 * @param  argument: Not used
 * @retval None
 */
/* USER CODE END Header_StartDefaultTask */
void StartDefaultTask(void *argument)
{
 800101c:	b530      	push	{r4, r5, lr}
 800101e:	b085      	sub	sp, #20
  /* USER CODE BEGIN 5 */

    uint32_t loop_cnt = 0;
    uint8_t amplification_demo_idx = 0;
 8001020:	2400      	movs	r4, #0
    uint32_t loop_cnt = 0;
 8001022:	4625      	mov	r5, r4
 8001024:	e011      	b.n	800104a <StartDefaultTask+0x2e>

        osDelay(100);

        if (loop_cnt % 10 == 0) {

            uint32_t tick = osKernelGetTickCount();
 8001026:	f002 fae5 	bl	80035f4 <osKernelGetTickCount>
 800102a:	9001      	str	r0, [sp, #4]

            osMessageQueuePut(tickQueueHandle, &tick, 0, osWaitForever);
 800102c:	f04f 33ff 	mov.w	r3, #4294967295	@ 0xffffffff
 8001030:	2200      	movs	r2, #0
 8001032:	a901      	add	r1, sp, #4
 8001034:	481b      	ldr	r0, [pc, #108]	@ (80010a4 <StartDefaultTask+0x88>)
 8001036:	6800      	ldr	r0, [r0, #0]
 8001038:	f002 fd0a 	bl	8003a50 <osMessageQueuePut>
 800103c:	e011      	b.n	8001062 <StartDefaultTask+0x46>

        }

        if (loop_cnt % 5 == 0) {

            osSemaphoreRelease(ledSemaphoreHandle);
 800103e:	4b1a      	ldr	r3, [pc, #104]	@ (80010a8 <StartDefaultTask+0x8c>)
 8001040:	6818      	ldr	r0, [r3, #0]
 8001042:	f002 fc8b 	bl	800395c <osSemaphoreRelease>
 8001046:	e015      	b.n	8001074 <StartDefaultTask+0x58>
                amplification_demo_idx = 0;
            }

        }

        ++loop_cnt;
 8001048:	3501      	adds	r5, #1
        osDelay(100);
 800104a:	2064      	movs	r0, #100	@ 0x64
 800104c:	f002 fb4c 	bl	80036e8 <osDelay>
        if (loop_cnt % 10 == 0) {
 8001050:	4b16      	ldr	r3, [pc, #88]	@ (80010ac <StartDefaultTask+0x90>)
 8001052:	fba3 2305 	umull	r2, r3, r3, r5
 8001056:	08db      	lsrs	r3, r3, #3
 8001058:	eb03 0383 	add.w	r3, r3, r3, lsl #2
 800105c:	ebb5 0f43 	cmp.w	r5, r3, lsl #1
 8001060:	d0e1      	beq.n	8001026 <StartDefaultTask+0xa>
        if (loop_cnt % 5 == 0) {
 8001062:	4b12      	ldr	r3, [pc, #72]	@ (80010ac <StartDefaultTask+0x90>)
 8001064:	fba3 2305 	umull	r2, r3, r3, r5
 8001068:	f023 0203 	bic.w	r2, r3, #3
 800106c:	eb02 0393 	add.w	r3, r2, r3, lsr #2
 8001070:	429d      	cmp	r5, r3
 8001072:	d0e4      	beq.n	800103e <StartDefaultTask+0x22>
            wave.dac = 1;
 8001074:	2301      	movs	r3, #1
 8001076:	f88d 3004 	strb.w	r3, [sp, #4]
            wave.frequency = 999.9;
 800107a:	4b0d      	ldr	r3, [pc, #52]	@ (80010b0 <StartDefaultTask+0x94>)
 800107c:	9302      	str	r3, [sp, #8]
            wave.amplification = amplification_demo_values[amplification_demo_idx];
 800107e:	4b0d      	ldr	r3, [pc, #52]	@ (80010b4 <StartDefaultTask+0x98>)
 8001080:	eb03 0384 	add.w	r3, r3, r4, lsl #2
 8001084:	681b      	ldr	r3, [r3, #0]
 8001086:	9303      	str	r3, [sp, #12]
            osMessageQueuePut(waveQueueHandle, &wave, 0, osWaitForever);
 8001088:	f04f 33ff 	mov.w	r3, #4294967295	@ 0xffffffff
 800108c:	2200      	movs	r2, #0
 800108e:	a901      	add	r1, sp, #4
 8001090:	4809      	ldr	r0, [pc, #36]	@ (80010b8 <StartDefaultTask+0x9c>)
 8001092:	6800      	ldr	r0, [r0, #0]
 8001094:	f002 fcdc 	bl	8003a50 <osMessageQueuePut>
            ++amplification_demo_idx;
 8001098:	3401      	adds	r4, #1
 800109a:	b2e4      	uxtb	r4, r4
            if (amplification_demo_idx >= sizeof(amplification_demo_values) / sizeof(amplification_demo_values[0])) {
 800109c:	2c09      	cmp	r4, #9
 800109e:	d9d3      	bls.n	8001048 <StartDefaultTask+0x2c>
                amplification_demo_idx = 0;
 80010a0:	2400      	movs	r4, #0
 80010a2:	e7d1      	b.n	8001048 <StartDefaultTask+0x2c>
 80010a4:	20000444 	.word	0x20000444
 80010a8:	20000430 	.word	0x20000430
 80010ac:	cccccccd 	.word	0xcccccccd
 80010b0:	4479f99a 	.word	0x4479f99a
 80010b4:	08008c00 	.word	0x08008c00
 80010b8:	2000043c 	.word	0x2000043c

080010bc <StartPulseTask>:
 * @param argument: Not used
 * @retval None
 */
/* USER CODE END Header_StartPulseTask */
void StartPulseTask(void *argument)
{
 80010bc:	b508      	push	{r3, lr}
    osStatus_t ret;

    /* Infinite loop */
    for (;;) {

        ret = osSemaphoreAcquire(pulseSemaphoreHandle, osWaitForever);
 80010be:	f04f 31ff 	mov.w	r1, #4294967295	@ 0xffffffff
 80010c2:	4b07      	ldr	r3, [pc, #28]	@ (80010e0 <StartPulseTask+0x24>)
 80010c4:	6818      	ldr	r0, [r3, #0]
 80010c6:	f002 fc15 	bl	80038f4 <osSemaphoreAcquire>

        if (!ret) {
 80010ca:	2800      	cmp	r0, #0
 80010cc:	d1f7      	bne.n	80010be <StartPulseTask+0x2>
            HAL_GPIO_TogglePin(PULSE_GPIO_Port, PULSE_Pin);
 80010ce:	f44f 4180 	mov.w	r1, #16384	@ 0x4000
 80010d2:	f100 4080 	add.w	r0, r0, #1073741824	@ 0x40000000
 80010d6:	f500 3002 	add.w	r0, r0, #133120	@ 0x20800
 80010da:	f001 facb 	bl	8002674 <HAL_GPIO_TogglePin>
 80010de:	e7ee      	b.n	80010be <StartPulseTask+0x2>
 80010e0:	2000042c 	.word	0x2000042c

080010e4 <StartLedTask>:
{
 80010e4:	b510      	push	{r4, lr}
        ret = osSemaphoreAcquire(ledSemaphoreHandle, osWaitForever);
 80010e6:	f04f 31ff 	mov.w	r1, #4294967295	@ 0xffffffff
 80010ea:	4b0a      	ldr	r3, [pc, #40]	@ (8001114 <StartLedTask+0x30>)
 80010ec:	6818      	ldr	r0, [r3, #0]
 80010ee:	f002 fc01 	bl	80038f4 <osSemaphoreAcquire>
        if (!ret) {
 80010f2:	2800      	cmp	r0, #0
 80010f4:	d1f7      	bne.n	80010e6 <StartLedTask+0x2>
            osMutexWait(ledMutexHandle, osWaitForever);
 80010f6:	4c08      	ldr	r4, [pc, #32]	@ (8001118 <StartLedTask+0x34>)
 80010f8:	f04f 31ff 	mov.w	r1, #4294967295	@ 0xffffffff
 80010fc:	6820      	ldr	r0, [r4, #0]
 80010fe:	f002 fb4a 	bl	8003796 <osMutexAcquire>
            HAL_GPIO_TogglePin(LED_GPIO_Port, LED_Pin);
 8001102:	f44f 5100 	mov.w	r1, #8192	@ 0x2000
 8001106:	4805      	ldr	r0, [pc, #20]	@ (800111c <StartLedTask+0x38>)
 8001108:	f001 fab4 	bl	8002674 <HAL_GPIO_TogglePin>
            osMutexRelease(ledMutexHandle);
 800110c:	6820      	ldr	r0, [r4, #0]
 800110e:	f002 fb71 	bl	80037f4 <osMutexRelease>
 8001112:	e7e8      	b.n	80010e6 <StartLedTask+0x2>
 8001114:	20000430 	.word	0x20000430
 8001118:	20000434 	.word	0x20000434
 800111c:	40020800 	.word	0x40020800

08001120 <StartWaveTask>:
 * @param argument: Not used
 * @retval None
 */
/* USER CODE END Header_StartWaveTask */
void StartWaveTask(void *argument)
{
 8001120:	b510      	push	{r4, lr}
 8001122:	b084      	sub	sp, #16
 8001124:	e011      	b.n	800114a <StartWaveTask+0x2a>

        ret = osMessageQueueGet(waveQueueHandle, &wave, NULL, osWaitForever);

        if (ret == osOK) {

            dacs[wave.dac].angle_change = wave.frequency * (2 * M_PI / SAMPLE_FREQ);
 8001126:	9802      	ldr	r0, [sp, #8]
 8001128:	f7ff fa0e 	bl	8000548 <__aeabi_f2d>
 800112c:	f89d 4004 	ldrb.w	r4, [sp, #4]
 8001130:	a30d      	add	r3, pc, #52	@ (adr r3, 8001168 <StartWaveTask+0x48>)
 8001132:	e9d3 2300 	ldrd	r2, r3, [r3]
 8001136:	f7ff fa5f 	bl	80005f8 <__aeabi_dmul>
 800113a:	f7ff fd35 	bl	8000ba8 <__aeabi_d2f>
 800113e:	4b08      	ldr	r3, [pc, #32]	@ (8001160 <StartWaveTask+0x40>)
 8001140:	eb03 1304 	add.w	r3, r3, r4, lsl #4
 8001144:	6098      	str	r0, [r3, #8]
            dacs[wave.dac].amplification = wave.amplification;
 8001146:	9a03      	ldr	r2, [sp, #12]
 8001148:	60da      	str	r2, [r3, #12]
        ret = osMessageQueueGet(waveQueueHandle, &wave, NULL, osWaitForever);
 800114a:	f04f 33ff 	mov.w	r3, #4294967295	@ 0xffffffff
 800114e:	2200      	movs	r2, #0
 8001150:	a901      	add	r1, sp, #4
 8001152:	4804      	ldr	r0, [pc, #16]	@ (8001164 <StartWaveTask+0x44>)
 8001154:	6800      	ldr	r0, [r0, #0]
 8001156:	f002 fcbd 	bl	8003ad4 <osMessageQueueGet>
        if (ret == osOK) {
 800115a:	2800      	cmp	r0, #0
 800115c:	d1f5      	bne.n	800114a <StartWaveTask+0x2a>
 800115e:	e7e2      	b.n	8001126 <StartWaveTask+0x6>
 8001160:	20000000 	.word	0x20000000
 8001164:	2000043c 	.word	0x2000043c
 8001168:	043048ce 	.word	0x043048ce
 800116c:	3f107893 	.word	0x3f107893

08001170 <StartTickTask>:
{
 8001170:	b510      	push	{r4, lr}
 8001172:	b086      	sub	sp, #24
 8001174:	e01d      	b.n	80011b2 <StartTickTask+0x42>
            osMutexWait(printMutexHandle, osWaitForever);
 8001176:	4c14      	ldr	r4, [pc, #80]	@ (80011c8 <StartTickTask+0x58>)
 8001178:	f04f 31ff 	mov.w	r1, #4294967295	@ 0xffffffff
 800117c:	6820      	ldr	r0, [r4, #0]
 800117e:	f002 fb0a 	bl	8003796 <osMutexAcquire>
            printf("Tick %lu (c1 = %lu, c1h = %lu ch2 = %lu, c2h = %lu s = %lu)\n", tick / 1000, conv_ch1, conv_half_ch1, conv_ch2, conv_half_ch2, sine_task);
 8001182:	9905      	ldr	r1, [sp, #20]
 8001184:	4b11      	ldr	r3, [pc, #68]	@ (80011cc <StartTickTask+0x5c>)
 8001186:	fba3 3101 	umull	r3, r1, r3, r1
 800118a:	4b11      	ldr	r3, [pc, #68]	@ (80011d0 <StartTickTask+0x60>)
 800118c:	681b      	ldr	r3, [r3, #0]
 800118e:	9302      	str	r3, [sp, #8]
 8001190:	4b10      	ldr	r3, [pc, #64]	@ (80011d4 <StartTickTask+0x64>)
 8001192:	681b      	ldr	r3, [r3, #0]
 8001194:	9301      	str	r3, [sp, #4]
 8001196:	4b10      	ldr	r3, [pc, #64]	@ (80011d8 <StartTickTask+0x68>)
 8001198:	681b      	ldr	r3, [r3, #0]
 800119a:	9300      	str	r3, [sp, #0]
 800119c:	4b0f      	ldr	r3, [pc, #60]	@ (80011dc <StartTickTask+0x6c>)
 800119e:	681b      	ldr	r3, [r3, #0]
 80011a0:	4a0f      	ldr	r2, [pc, #60]	@ (80011e0 <StartTickTask+0x70>)
 80011a2:	6812      	ldr	r2, [r2, #0]
 80011a4:	0989      	lsrs	r1, r1, #6
 80011a6:	480f      	ldr	r0, [pc, #60]	@ (80011e4 <StartTickTask+0x74>)
 80011a8:	f005 fc78 	bl	8006a9c <iprintf>
            osMutexRelease(printMutexHandle);
 80011ac:	6820      	ldr	r0, [r4, #0]
 80011ae:	f002 fb21 	bl	80037f4 <osMutexRelease>
        ret = osMessageQueueGet(tickQueueHandle, &tick, NULL, osWaitForever);
 80011b2:	f04f 33ff 	mov.w	r3, #4294967295	@ 0xffffffff
 80011b6:	2200      	movs	r2, #0
 80011b8:	a905      	add	r1, sp, #20
 80011ba:	480b      	ldr	r0, [pc, #44]	@ (80011e8 <StartTickTask+0x78>)
 80011bc:	6800      	ldr	r0, [r0, #0]
 80011be:	f002 fc89 	bl	8003ad4 <osMessageQueueGet>
        if (ret == osOK) {
 80011c2:	2800      	cmp	r0, #0
 80011c4:	d1f5      	bne.n	80011b2 <StartTickTask+0x42>
 80011c6:	e7d6      	b.n	8001176 <StartTickTask+0x6>
 80011c8:	20000438 	.word	0x20000438
 80011cc:	10624dd3 	.word	0x10624dd3
 80011d0:	20000214 	.word	0x20000214
 80011d4:	2000021c 	.word	0x2000021c
 80011d8:	20000218 	.word	0x20000218
 80011dc:	20000224 	.word	0x20000224
 80011e0:	20000220 	.word	0x20000220
 80011e4:	08008b10 	.word	0x08008b10
 80011e8:	20000444 	.word	0x20000444

080011ec <StartStatusTask>:
{
 80011ec:	e92d 41f0 	stmdb	sp!, {r4, r5, r6, r7, r8, lr}
 80011f0:	b08a      	sub	sp, #40	@ 0x28
 80011f2:	e04f      	b.n	8001294 <StartStatusTask+0xa8>
                        * (float) pxTaskStatusArray[x].ulRunTimeCounter
 80011f4:	9b08      	ldr	r3, [sp, #32]
 80011f6:	eb03 03c3 	add.w	r3, r3, r3, lsl #3
 80011fa:	eb04 0383 	add.w	r3, r4, r3, lsl #2
 80011fe:	edd3 7a06 	vldr	s15, [r3, #24]
 8001202:	eef8 7a67 	vcvt.f32.u32	s15, s15
 8001206:	ed9f 7a38 	vldr	s14, [pc, #224]	@ 80012e8 <StartStatusTask+0xfc>
 800120a:	ee67 7a87 	vmul.f32	s15, s15, s14
                        / (float) ulTotalRunTime);
 800120e:	ed9d 7a07 	vldr	s14, [sp, #28]
 8001212:	eeb8 7a47 	vcvt.f32.u32	s14, s14
                printf("Task %2lu: %-12s %2d %2d %8.4f (%8lu) %4i\n",
 8001216:	9d08      	ldr	r5, [sp, #32]
                        pxTaskStatusArray[x].pcTaskName,
 8001218:	9a08      	ldr	r2, [sp, #32]
 800121a:	eb02 02c2 	add.w	r2, r2, r2, lsl #3
 800121e:	eb04 0282 	add.w	r2, r4, r2, lsl #2
                        pxTaskStatusArray[x].uxCurrentPriority,
 8001222:	9b08      	ldr	r3, [sp, #32]
 8001224:	eb03 03c3 	add.w	r3, r3, r3, lsl #3
 8001228:	eb04 0083 	add.w	r0, r4, r3, lsl #2
                        pxTaskStatusArray[x].eCurrentState,
 800122c:	9b08      	ldr	r3, [sp, #32]
 800122e:	eb03 03c3 	add.w	r3, r3, r3, lsl #3
 8001232:	eb04 0383 	add.w	r3, r4, r3, lsl #2
 8001236:	7b1e      	ldrb	r6, [r3, #12]
                        pxTaskStatusArray[x].ulRunTimeCounter,
 8001238:	9b08      	ldr	r3, [sp, #32]
 800123a:	eb03 03c3 	add.w	r3, r3, r3, lsl #3
 800123e:	eb04 0383 	add.w	r3, r4, r3, lsl #2
                        pxTaskStatusArray[x].usStackHighWaterMark);
 8001242:	9908      	ldr	r1, [sp, #32]
 8001244:	eb01 01c1 	add.w	r1, r1, r1, lsl #3
 8001248:	eb04 0181 	add.w	r1, r4, r1, lsl #2
 800124c:	8c09      	ldrh	r1, [r1, #32]
                printf("Task %2lu: %-12s %2d %2d %8.4f (%8lu) %4i\n",
 800124e:	f8d0 8010 	ldr.w	r8, [r0, #16]
 8001252:	6857      	ldr	r7, [r2, #4]
 8001254:	9105      	str	r1, [sp, #20]
 8001256:	699b      	ldr	r3, [r3, #24]
 8001258:	9304      	str	r3, [sp, #16]
 800125a:	eec7 7a87 	vdiv.f32	s15, s15, s14
 800125e:	ee17 0a90 	vmov	r0, s15
 8001262:	f7ff f971 	bl	8000548 <__aeabi_f2d>
 8001266:	e9cd 0102 	strd	r0, r1, [sp, #8]
 800126a:	9600      	str	r6, [sp, #0]
 800126c:	4643      	mov	r3, r8
 800126e:	463a      	mov	r2, r7
 8001270:	4629      	mov	r1, r5
 8001272:	481e      	ldr	r0, [pc, #120]	@ (80012ec <StartStatusTask+0x100>)
 8001274:	f005 fc12 	bl	8006a9c <iprintf>
            for (x = 0; x < uxArraySize; x++) {
 8001278:	9b08      	ldr	r3, [sp, #32]
 800127a:	3301      	adds	r3, #1
 800127c:	9308      	str	r3, [sp, #32]
 800127e:	9a08      	ldr	r2, [sp, #32]
 8001280:	9b09      	ldr	r3, [sp, #36]	@ 0x24
 8001282:	429a      	cmp	r2, r3
 8001284:	d3b6      	bcc.n	80011f4 <StartStatusTask+0x8>
            vPortFree(pxTaskStatusArray);
 8001286:	4620      	mov	r0, r4
 8001288:	f004 fe66 	bl	8005f58 <vPortFree>
        osMutexRelease(printMutexHandle);
 800128c:	4b18      	ldr	r3, [pc, #96]	@ (80012f0 <StartStatusTask+0x104>)
 800128e:	6818      	ldr	r0, [r3, #0]
 8001290:	f002 fab0 	bl	80037f4 <osMutexRelease>
        osDelay(10000);
 8001294:	f242 7010 	movw	r0, #10000	@ 0x2710
 8001298:	f002 fa26 	bl	80036e8 <osDelay>
        uxArraySize = uxTaskGetNumberOfTasks();
 800129c:	f003 fd5a 	bl	8004d54 <uxTaskGetNumberOfTasks>
 80012a0:	9009      	str	r0, [sp, #36]	@ 0x24
        pxTaskStatusArray = pvPortMalloc(uxArraySize * sizeof(TaskStatus_t)); // a little bit scary!
 80012a2:	9809      	ldr	r0, [sp, #36]	@ 0x24
 80012a4:	eb00 00c0 	add.w	r0, r0, r0, lsl #3
 80012a8:	0080      	lsls	r0, r0, #2
 80012aa:	f004 fdd3 	bl	8005e54 <pvPortMalloc>
 80012ae:	4604      	mov	r4, r0
        osMutexWait(printMutexHandle, osWaitForever);
 80012b0:	f04f 31ff 	mov.w	r1, #4294967295	@ 0xffffffff
 80012b4:	4b0e      	ldr	r3, [pc, #56]	@ (80012f0 <StartStatusTask+0x104>)
 80012b6:	6818      	ldr	r0, [r3, #0]
 80012b8:	f002 fa6d 	bl	8003796 <osMutexAcquire>
        if (pxTaskStatusArray != NULL) {
 80012bc:	b17c      	cbz	r4, 80012de <StartStatusTask+0xf2>
            uxArraySize = uxTaskGetSystemState(pxTaskStatusArray, uxArraySize,
 80012be:	9909      	ldr	r1, [sp, #36]	@ 0x24
 80012c0:	aa07      	add	r2, sp, #28
 80012c2:	4620      	mov	r0, r4
 80012c4:	f004 f81a 	bl	80052fc <uxTaskGetSystemState>
 80012c8:	9009      	str	r0, [sp, #36]	@ 0x24
            printf("Task count = %lu\n", uxArraySize);
 80012ca:	9909      	ldr	r1, [sp, #36]	@ 0x24
 80012cc:	4809      	ldr	r0, [pc, #36]	@ (80012f4 <StartStatusTask+0x108>)
 80012ce:	f005 fbe5 	bl	8006a9c <iprintf>
            printf("No       Name          P  S   Usage     Count     HW\n");
 80012d2:	4809      	ldr	r0, [pc, #36]	@ (80012f8 <StartStatusTask+0x10c>)
 80012d4:	f005 fc4a 	bl	8006b6c <puts>
            for (x = 0; x < uxArraySize; x++) {
 80012d8:	2300      	movs	r3, #0
 80012da:	9308      	str	r3, [sp, #32]
 80012dc:	e7cf      	b.n	800127e <StartStatusTask+0x92>
            printf("Unable to allocate stack space\n");
 80012de:	4807      	ldr	r0, [pc, #28]	@ (80012fc <StartStatusTask+0x110>)
 80012e0:	f005 fc44 	bl	8006b6c <puts>
 80012e4:	e7d2      	b.n	800128c <StartStatusTask+0xa0>
 80012e6:	bf00      	nop
 80012e8:	42c80000 	.word	0x42c80000
 80012ec:	08008b9c 	.word	0x08008b9c
 80012f0:	20000438 	.word	0x20000438
 80012f4:	08008b50 	.word	0x08008b50
 80012f8:	08008b64 	.word	0x08008b64
 80012fc:	08008bc8 	.word	0x08008bc8

08001300 <StartSineTask>:
{
 8001300:	b530      	push	{r4, r5, lr}
 8001302:	ed2d 8b02 	vpush	{d8}
 8001306:	b083      	sub	sp, #12
        ret = osMessageQueueGet(sineQueueHandle, &sine_p, 0, osWaitForever);
 8001308:	f04f 33ff 	mov.w	r3, #4294967295	@ 0xffffffff
 800130c:	2200      	movs	r2, #0
 800130e:	a901      	add	r1, sp, #4
 8001310:	481c      	ldr	r0, [pc, #112]	@ (8001384 <StartSineTask+0x84>)
 8001312:	6800      	ldr	r0, [r0, #0]
 8001314:	f002 fbde 	bl	8003ad4 <osMessageQueueGet>
        if (ret == osOK) {
 8001318:	2800      	cmp	r0, #0
 800131a:	d1f5      	bne.n	8001308 <StartSineTask+0x8>
 800131c:	4605      	mov	r5, r0
            ++sine_task;
 800131e:	4a1a      	ldr	r2, [pc, #104]	@ (8001388 <StartSineTask+0x88>)
 8001320:	6813      	ldr	r3, [r2, #0]
 8001322:	3301      	adds	r3, #1
 8001324:	6013      	str	r3, [r2, #0]
            sine_queue_t *sine = (sine_queue_t*) sine_p;
 8001326:	9c01      	ldr	r4, [sp, #4]
            for (int i = 0; i < DMA_BUFFER_SIZE; ++i) {
 8001328:	e000      	b.n	800132c <StartSineTask+0x2c>
 800132a:	3501      	adds	r5, #1
 800132c:	2d3f      	cmp	r5, #63	@ 0x3f
 800132e:	dceb      	bgt.n	8001308 <StartSineTask+0x8>
                sine->buffer[i] = OUTPUT_MID - (sine->amplification * (OUTPUT_MID * arm_cos_f32(sine->angle)));
 8001330:	ed94 8a03 	vldr	s16, [r4, #12]
 8001334:	ed94 0a01 	vldr	s0, [r4, #4]
 8001338:	f004 fe4c 	bl	8005fd4 <arm_cos_f32>
 800133c:	eddf 7a13 	vldr	s15, [pc, #76]	@ 800138c <StartSineTask+0x8c>
 8001340:	ee20 0a27 	vmul.f32	s0, s0, s15
 8001344:	ee28 8a00 	vmul.f32	s16, s16, s0
 8001348:	ee77 7ac8 	vsub.f32	s15, s15, s16
 800134c:	6823      	ldr	r3, [r4, #0]
 800134e:	eefc 7ae7 	vcvt.u32.f32	s15, s15
 8001352:	ee17 2a90 	vmov	r2, s15
 8001356:	f823 2015 	strh.w	r2, [r3, r5, lsl #1]
                sine->angle += sine->angle_change;
 800135a:	edd4 7a01 	vldr	s15, [r4, #4]
 800135e:	ed94 7a02 	vldr	s14, [r4, #8]
 8001362:	ee77 7a87 	vadd.f32	s15, s15, s14
 8001366:	edc4 7a01 	vstr	s15, [r4, #4]
                if (sine->angle >= two_pi) {
 800136a:	ed9f 7a09 	vldr	s14, [pc, #36]	@ 8001390 <StartSineTask+0x90>
 800136e:	eef4 7ac7 	vcmpe.f32	s15, s14
 8001372:	eef1 fa10 	vmrs	APSR_nzcv, fpscr
 8001376:	dbd8      	blt.n	800132a <StartSineTask+0x2a>
                    sine->angle -= two_pi;
 8001378:	ee77 7ac7 	vsub.f32	s15, s15, s14
 800137c:	edc4 7a01 	vstr	s15, [r4, #4]
 8001380:	e7d3      	b.n	800132a <StartSineTask+0x2a>
 8001382:	bf00      	nop
 8001384:	20000440 	.word	0x20000440
 8001388:	20000214 	.word	0x20000214
 800138c:	45000000 	.word	0x45000000
 8001390:	40c90fdb 	.word	0x40c90fdb

08001394 <StartWaste1Task>:
 * @param argument: Not used
 * @retval None
 */
/* USER CODE END Header_StartWaste1Task */
void StartWaste1Task(void *argument)
{
 8001394:	b508      	push	{r3, lr}
    /* Infinite loop */
    for (;;) {

        ++cnt;

        osThreadYield();
 8001396:	f002 f995 	bl	80036c4 <osThreadYield>
    for (;;) {
 800139a:	e7fc      	b.n	8001396 <StartWaste1Task+0x2>

0800139c <StartWaste2Task>:
 * @param argument: Not used
 * @retval None
 */
/* USER CODE END Header_StartWaste2Task */
void StartWaste2Task(void *argument)
{
 800139c:	b508      	push	{r3, lr}
    /* Infinite loop */
    for (;;) {

        ++cnt;

        osThreadYield();
 800139e:	f002 f991 	bl	80036c4 <osThreadYield>
    for (;;) {
 80013a2:	e7fc      	b.n	800139e <StartWaste2Task+0x2>

080013a4 <_write>:
    if (fd == 1 || fd == 2) {
 80013a4:	3801      	subs	r0, #1
 80013a6:	2801      	cmp	r0, #1
 80013a8:	d80a      	bhi.n	80013c0 <_write+0x1c>
int _write(int fd, char *ptr, int len) {
 80013aa:	b510      	push	{r4, lr}
 80013ac:	4614      	mov	r4, r2
        hstatus = HAL_UART_Transmit(&huart1, (uint8_t*) ptr, len, HAL_MAX_DELAY);
 80013ae:	f04f 33ff 	mov.w	r3, #4294967295	@ 0xffffffff
 80013b2:	b292      	uxth	r2, r2
 80013b4:	4805      	ldr	r0, [pc, #20]	@ (80013cc <_write+0x28>)
 80013b6:	f002 f87c 	bl	80034b2 <HAL_UART_Transmit>
        if (hstatus == HAL_OK)
 80013ba:	b920      	cbnz	r0, 80013c6 <_write+0x22>
            return len;
 80013bc:	4620      	mov	r0, r4
}
 80013be:	bd10      	pop	{r4, pc}
    return -1;
 80013c0:	f04f 30ff 	mov.w	r0, #4294967295	@ 0xffffffff
}
 80013c4:	4770      	bx	lr
            return -1;
 80013c6:	f04f 30ff 	mov.w	r0, #4294967295	@ 0xffffffff
 80013ca:	e7f8      	b.n	80013be <_write+0x1a>
 80013cc:	2000046c 	.word	0x2000046c

080013d0 <HAL_DAC_ConvHalfCpltCallbackCh1>:
void HAL_DAC_ConvHalfCpltCallbackCh1(DAC_HandleTypeDef *hdac) {
 80013d0:	b500      	push	{lr}
 80013d2:	b083      	sub	sp, #12
    ++conv_half_ch1;
 80013d4:	4a08      	ldr	r2, [pc, #32]	@ (80013f8 <HAL_DAC_ConvHalfCpltCallbackCh1+0x28>)
 80013d6:	6813      	ldr	r3, [r2, #0]
 80013d8:	3301      	adds	r3, #1
 80013da:	6013      	str	r3, [r2, #0]
    dacs[0].buffer = &dma_buffer_1[0];
 80013dc:	4b07      	ldr	r3, [pc, #28]	@ (80013fc <HAL_DAC_ConvHalfCpltCallbackCh1+0x2c>)
 80013de:	4a08      	ldr	r2, [pc, #32]	@ (8001400 <HAL_DAC_ConvHalfCpltCallbackCh1+0x30>)
 80013e0:	601a      	str	r2, [r3, #0]
    uint32_t dac_addr = (uint32_t) &dacs[0];
 80013e2:	9301      	str	r3, [sp, #4]
    osMessageQueuePut(sineQueueHandle, &dac_addr, 0, 0);
 80013e4:	2300      	movs	r3, #0
 80013e6:	461a      	mov	r2, r3
 80013e8:	a901      	add	r1, sp, #4
 80013ea:	4806      	ldr	r0, [pc, #24]	@ (8001404 <HAL_DAC_ConvHalfCpltCallbackCh1+0x34>)
 80013ec:	6800      	ldr	r0, [r0, #0]
 80013ee:	f002 fb2f 	bl	8003a50 <osMessageQueuePut>
}
 80013f2:	b003      	add	sp, #12
 80013f4:	f85d fb04 	ldr.w	pc, [sp], #4
 80013f8:	20000224 	.word	0x20000224
 80013fc:	20000000 	.word	0x20000000
 8001400:	20000328 	.word	0x20000328
 8001404:	20000440 	.word	0x20000440

08001408 <HAL_DAC_ConvCpltCallbackCh1>:
void HAL_DAC_ConvCpltCallbackCh1(DAC_HandleTypeDef *hdac) {
 8001408:	b500      	push	{lr}
 800140a:	b083      	sub	sp, #12
    ++conv_ch1;
 800140c:	4a08      	ldr	r2, [pc, #32]	@ (8001430 <HAL_DAC_ConvCpltCallbackCh1+0x28>)
 800140e:	6813      	ldr	r3, [r2, #0]
 8001410:	3301      	adds	r3, #1
 8001412:	6013      	str	r3, [r2, #0]
    dacs[0].buffer = &dma_buffer_1[DMA_BUFFER_SIZE];
 8001414:	4b07      	ldr	r3, [pc, #28]	@ (8001434 <HAL_DAC_ConvCpltCallbackCh1+0x2c>)
 8001416:	4a08      	ldr	r2, [pc, #32]	@ (8001438 <HAL_DAC_ConvCpltCallbackCh1+0x30>)
 8001418:	601a      	str	r2, [r3, #0]
    uint32_t dac_addr = (uint32_t) &dacs[0];
 800141a:	9301      	str	r3, [sp, #4]
    osMessageQueuePut(sineQueueHandle, &dac_addr, 0, 0);
 800141c:	2300      	movs	r3, #0
 800141e:	461a      	mov	r2, r3
 8001420:	a901      	add	r1, sp, #4
 8001422:	4806      	ldr	r0, [pc, #24]	@ (800143c <HAL_DAC_ConvCpltCallbackCh1+0x34>)
 8001424:	6800      	ldr	r0, [r0, #0]
 8001426:	f002 fb13 	bl	8003a50 <osMessageQueuePut>
}
 800142a:	b003      	add	sp, #12
 800142c:	f85d fb04 	ldr.w	pc, [sp], #4
 8001430:	20000220 	.word	0x20000220
 8001434:	20000000 	.word	0x20000000
 8001438:	200003a8 	.word	0x200003a8
 800143c:	20000440 	.word	0x20000440

08001440 <HAL_DACEx_ConvHalfCpltCallbackCh2>:
void HAL_DACEx_ConvHalfCpltCallbackCh2(DAC_HandleTypeDef *hdac) {
 8001440:	b500      	push	{lr}
 8001442:	b083      	sub	sp, #12
    ++conv_half_ch2;
 8001444:	4a09      	ldr	r2, [pc, #36]	@ (800146c <HAL_DACEx_ConvHalfCpltCallbackCh2+0x2c>)
 8001446:	6813      	ldr	r3, [r2, #0]
 8001448:	3301      	adds	r3, #1
 800144a:	6013      	str	r3, [r2, #0]
    dacs[1].buffer = &dma_buffer_2[0];
 800144c:	4b08      	ldr	r3, [pc, #32]	@ (8001470 <HAL_DACEx_ConvHalfCpltCallbackCh2+0x30>)
 800144e:	4a09      	ldr	r2, [pc, #36]	@ (8001474 <HAL_DACEx_ConvHalfCpltCallbackCh2+0x34>)
 8001450:	f843 2f10 	str.w	r2, [r3, #16]!
    uint32_t dac_addr = (uint32_t) &dacs[1];
 8001454:	9301      	str	r3, [sp, #4]
    osMessageQueuePut(sineQueueHandle, &dac_addr, 0, 0);
 8001456:	2300      	movs	r3, #0
 8001458:	461a      	mov	r2, r3
 800145a:	a901      	add	r1, sp, #4
 800145c:	4806      	ldr	r0, [pc, #24]	@ (8001478 <HAL_DACEx_ConvHalfCpltCallbackCh2+0x38>)
 800145e:	6800      	ldr	r0, [r0, #0]
 8001460:	f002 faf6 	bl	8003a50 <osMessageQueuePut>
}
 8001464:	b003      	add	sp, #12
 8001466:	f85d fb04 	ldr.w	pc, [sp], #4
 800146a:	bf00      	nop
 800146c:	2000021c 	.word	0x2000021c
 8001470:	20000000 	.word	0x20000000
 8001474:	20000228 	.word	0x20000228
 8001478:	20000440 	.word	0x20000440

0800147c <HAL_DACEx_ConvCpltCallbackCh2>:
void HAL_DACEx_ConvCpltCallbackCh2(DAC_HandleTypeDef *hdac) {
 800147c:	b500      	push	{lr}
 800147e:	b083      	sub	sp, #12
    ++conv_ch2;
 8001480:	4a09      	ldr	r2, [pc, #36]	@ (80014a8 <HAL_DACEx_ConvCpltCallbackCh2+0x2c>)
 8001482:	6813      	ldr	r3, [r2, #0]
 8001484:	3301      	adds	r3, #1
 8001486:	6013      	str	r3, [r2, #0]
    dacs[1].buffer = &dma_buffer_2[DMA_BUFFER_SIZE];
 8001488:	4b08      	ldr	r3, [pc, #32]	@ (80014ac <HAL_DACEx_ConvCpltCallbackCh2+0x30>)
 800148a:	4a09      	ldr	r2, [pc, #36]	@ (80014b0 <HAL_DACEx_ConvCpltCallbackCh2+0x34>)
 800148c:	f843 2f10 	str.w	r2, [r3, #16]!
    uint32_t dac_addr = (uint32_t) &dacs[1];
 8001490:	9301      	str	r3, [sp, #4]
    osMessageQueuePut(sineQueueHandle, &dac_addr, 0, 0);
 8001492:	2300      	movs	r3, #0
 8001494:	461a      	mov	r2, r3
 8001496:	a901      	add	r1, sp, #4
 8001498:	4806      	ldr	r0, [pc, #24]	@ (80014b4 <HAL_DACEx_ConvCpltCallbackCh2+0x38>)
 800149a:	6800      	ldr	r0, [r0, #0]
 800149c:	f002 fad8 	bl	8003a50 <osMessageQueuePut>
}
 80014a0:	b003      	add	sp, #12
 80014a2:	f85d fb04 	ldr.w	pc, [sp], #4
 80014a6:	bf00      	nop
 80014a8:	20000218 	.word	0x20000218
 80014ac:	20000000 	.word	0x20000000
 80014b0:	200002a8 	.word	0x200002a8
 80014b4:	20000440 	.word	0x20000440

080014b8 <configureTimerForRunTimeStats>:
void configureTimerForRunTimeStats(void) {
 80014b8:	b508      	push	{r3, lr}
    ulHighFrequencyTimerTicks = 0;
 80014ba:	4b03      	ldr	r3, [pc, #12]	@ (80014c8 <configureTimerForRunTimeStats+0x10>)
 80014bc:	2200      	movs	r2, #0
 80014be:	601a      	str	r2, [r3, #0]
    HAL_TIM_Base_Start_IT(&htim13);
 80014c0:	4802      	ldr	r0, [pc, #8]	@ (80014cc <configureTimerForRunTimeStats+0x14>)
 80014c2:	f001 fc69 	bl	8002d98 <HAL_TIM_Base_Start_IT>
}
 80014c6:	bd08      	pop	{r3, pc}
 80014c8:	20000428 	.word	0x20000428
 80014cc:	200004b4 	.word	0x200004b4

080014d0 <getRunTimeCounterValue>:
    return ulHighFrequencyTimerTicks;
 80014d0:	4b01      	ldr	r3, [pc, #4]	@ (80014d8 <getRunTimeCounterValue+0x8>)
 80014d2:	6818      	ldr	r0, [r3, #0]
}
 80014d4:	4770      	bx	lr
 80014d6:	bf00      	nop
 80014d8:	20000428 	.word	0x20000428

080014dc <HAL_TIM_PeriodElapsedCallback>:
  * a global variable "uwTick" used as application time base.
  * @param  htim : TIM handle
  * @retval None
  */
void HAL_TIM_PeriodElapsedCallback(TIM_HandleTypeDef *htim)
{
 80014dc:	b510      	push	{r4, lr}
 80014de:	4604      	mov	r4, r0
  /* USER CODE BEGIN Callback 0 */

    if (htim->Instance == TIM4) {
 80014e0:	6802      	ldr	r2, [r0, #0]
 80014e2:	4b08      	ldr	r3, [pc, #32]	@ (8001504 <HAL_TIM_PeriodElapsedCallback+0x28>)
 80014e4:	429a      	cmp	r2, r3
 80014e6:	d004      	beq.n	80014f2 <HAL_TIM_PeriodElapsedCallback+0x16>
        osSemaphoreRelease(pulseSemaphoreHandle);
    }

  /* USER CODE END Callback 0 */
  if (htim->Instance == TIM14) {
 80014e8:	6822      	ldr	r2, [r4, #0]
 80014ea:	4b07      	ldr	r3, [pc, #28]	@ (8001508 <HAL_TIM_PeriodElapsedCallback+0x2c>)
 80014ec:	429a      	cmp	r2, r3
 80014ee:	d005      	beq.n	80014fc <HAL_TIM_PeriodElapsedCallback+0x20>
    HAL_IncTick();
  }
  /* USER CODE BEGIN Callback 1 */

  /* USER CODE END Callback 1 */
}
 80014f0:	bd10      	pop	{r4, pc}
        osSemaphoreRelease(pulseSemaphoreHandle);
 80014f2:	4b06      	ldr	r3, [pc, #24]	@ (800150c <HAL_TIM_PeriodElapsedCallback+0x30>)
 80014f4:	6818      	ldr	r0, [r3, #0]
 80014f6:	f002 fa31 	bl	800395c <osSemaphoreRelease>
 80014fa:	e7f5      	b.n	80014e8 <HAL_TIM_PeriodElapsedCallback+0xc>
    HAL_IncTick();
 80014fc:	f000 fc4a 	bl	8001d94 <HAL_IncTick>
}
 8001500:	e7f6      	b.n	80014f0 <HAL_TIM_PeriodElapsedCallback+0x14>
 8001502:	bf00      	nop
 8001504:	40000800 	.word	0x40000800
 8001508:	40002000 	.word	0x40002000
 800150c:	2000042c 	.word	0x2000042c

08001510 <Error_Handler>:
  \details Disables IRQ interrupts by setting special-purpose register PRIMASK.
           Can only be executed in Privileged modes.
 */
__STATIC_FORCEINLINE void __disable_irq(void)
{
  __ASM volatile ("cpsid i" : : : "memory");
 8001510:	b672      	cpsid	i
void Error_Handler(void)
{
  /* USER CODE BEGIN Error_Handler_Debug */
    /* User can add his own implementation to report the HAL error return state */
    __disable_irq();
    while (1)
 8001512:	e7fe      	b.n	8001512 <Error_Handler+0x2>

08001514 <MX_USART1_UART_Init>:
{
 8001514:	b508      	push	{r3, lr}
  huart1.Instance = USART1;
 8001516:	480a      	ldr	r0, [pc, #40]	@ (8001540 <MX_USART1_UART_Init+0x2c>)
 8001518:	4b0a      	ldr	r3, [pc, #40]	@ (8001544 <MX_USART1_UART_Init+0x30>)
 800151a:	6003      	str	r3, [r0, #0]
  huart1.Init.BaudRate = 2000000;
 800151c:	4b0a      	ldr	r3, [pc, #40]	@ (8001548 <MX_USART1_UART_Init+0x34>)
 800151e:	6043      	str	r3, [r0, #4]
  huart1.Init.WordLength = UART_WORDLENGTH_8B;
 8001520:	2300      	movs	r3, #0
 8001522:	6083      	str	r3, [r0, #8]
  huart1.Init.StopBits = UART_STOPBITS_1;
 8001524:	60c3      	str	r3, [r0, #12]
  huart1.Init.Parity = UART_PARITY_NONE;
 8001526:	6103      	str	r3, [r0, #16]
  huart1.Init.Mode = UART_MODE_TX_RX;
 8001528:	220c      	movs	r2, #12
 800152a:	6142      	str	r2, [r0, #20]
  huart1.Init.HwFlowCtl = UART_HWCONTROL_NONE;
 800152c:	6183      	str	r3, [r0, #24]
  huart1.Init.OverSampling = UART_OVERSAMPLING_8;
 800152e:	f44f 4300 	mov.w	r3, #32768	@ 0x8000
 8001532:	61c3      	str	r3, [r0, #28]
  if (HAL_UART_Init(&huart1) != HAL_OK)
 8001534:	f001 ff8d 	bl	8003452 <HAL_UART_Init>
 8001538:	b900      	cbnz	r0, 800153c <MX_USART1_UART_Init+0x28>
}
 800153a:	bd08      	pop	{r3, pc}
    Error_Handler();
 800153c:	f7ff ffe8 	bl	8001510 <Error_Handler>
 8001540:	2000046c 	.word	0x2000046c
 8001544:	40011000 	.word	0x40011000
 8001548:	001e8480 	.word	0x001e8480

0800154c <MX_TIM13_Init>:
{
 800154c:	b508      	push	{r3, lr}
  htim13.Instance = TIM13;
 800154e:	4808      	ldr	r0, [pc, #32]	@ (8001570 <MX_TIM13_Init+0x24>)
 8001550:	4b08      	ldr	r3, [pc, #32]	@ (8001574 <MX_TIM13_Init+0x28>)
 8001552:	6003      	str	r3, [r0, #0]
  htim13.Init.Prescaler = 0;
 8001554:	2300      	movs	r3, #0
 8001556:	6043      	str	r3, [r0, #4]
  htim13.Init.CounterMode = TIM_COUNTERMODE_UP;
 8001558:	6083      	str	r3, [r0, #8]
  htim13.Init.Period = 840-1;
 800155a:	f240 3247 	movw	r2, #839	@ 0x347
 800155e:	60c2      	str	r2, [r0, #12]
  htim13.Init.ClockDivision = TIM_CLOCKDIVISION_DIV1;
 8001560:	6103      	str	r3, [r0, #16]
  htim13.Init.AutoReloadPreload = TIM_AUTORELOAD_PRELOAD_DISABLE;
 8001562:	6183      	str	r3, [r0, #24]
  if (HAL_TIM_Base_Init(&htim13) != HAL_OK)
 8001564:	f001 fd7c 	bl	8003060 <HAL_TIM_Base_Init>
 8001568:	b900      	cbnz	r0, 800156c <MX_TIM13_Init+0x20>
}
 800156a:	bd08      	pop	{r3, pc}
    Error_Handler();
 800156c:	f7ff ffd0 	bl	8001510 <Error_Handler>
 8001570:	200004b4 	.word	0x200004b4
 8001574:	40001c00 	.word	0x40001c00

08001578 <MX_TIM4_Init>:
{
 8001578:	b500      	push	{lr}
 800157a:	b087      	sub	sp, #28
  TIM_ClockConfigTypeDef sClockSourceConfig = {0};
 800157c:	2300      	movs	r3, #0
 800157e:	9302      	str	r3, [sp, #8]
 8001580:	9303      	str	r3, [sp, #12]
 8001582:	9304      	str	r3, [sp, #16]
 8001584:	9305      	str	r3, [sp, #20]
  TIM_MasterConfigTypeDef sMasterConfig = {0};
 8001586:	9300      	str	r3, [sp, #0]
 8001588:	9301      	str	r3, [sp, #4]
  htim4.Instance = TIM4;
 800158a:	4813      	ldr	r0, [pc, #76]	@ (80015d8 <MX_TIM4_Init+0x60>)
 800158c:	4a13      	ldr	r2, [pc, #76]	@ (80015dc <MX_TIM4_Init+0x64>)
 800158e:	6002      	str	r2, [r0, #0]
  htim4.Init.Prescaler = 84 - 1;
 8001590:	2253      	movs	r2, #83	@ 0x53
 8001592:	6042      	str	r2, [r0, #4]
  htim4.Init.CounterMode = TIM_COUNTERMODE_UP;
 8001594:	6083      	str	r3, [r0, #8]
  htim4.Init.Period = 100 - 1;
 8001596:	2263      	movs	r2, #99	@ 0x63
 8001598:	60c2      	str	r2, [r0, #12]
  htim4.Init.ClockDivision = TIM_CLOCKDIVISION_DIV1;
 800159a:	6103      	str	r3, [r0, #16]
  htim4.Init.AutoReloadPreload = TIM_AUTORELOAD_PRELOAD_DISABLE;
 800159c:	6183      	str	r3, [r0, #24]
  if (HAL_TIM_Base_Init(&htim4) != HAL_OK)
 800159e:	f001 fd5f 	bl	8003060 <HAL_TIM_Base_Init>
 80015a2:	b990      	cbnz	r0, 80015ca <MX_TIM4_Init+0x52>
  sClockSourceConfig.ClockSource = TIM_CLOCKSOURCE_INTERNAL;
 80015a4:	f44f 5380 	mov.w	r3, #4096	@ 0x1000
 80015a8:	9302      	str	r3, [sp, #8]
  if (HAL_TIM_ConfigClockSource(&htim4, &sClockSourceConfig) != HAL_OK)
 80015aa:	a902      	add	r1, sp, #8
 80015ac:	480a      	ldr	r0, [pc, #40]	@ (80015d8 <MX_TIM4_Init+0x60>)
 80015ae:	f001 fd90 	bl	80030d2 <HAL_TIM_ConfigClockSource>
 80015b2:	b960      	cbnz	r0, 80015ce <MX_TIM4_Init+0x56>
  sMasterConfig.MasterOutputTrigger = TIM_TRGO_RESET;
 80015b4:	2300      	movs	r3, #0
 80015b6:	9300      	str	r3, [sp, #0]
  sMasterConfig.MasterSlaveMode = TIM_MASTERSLAVEMODE_DISABLE;
 80015b8:	9301      	str	r3, [sp, #4]
  if (HAL_TIMEx_MasterConfigSynchronization(&htim4, &sMasterConfig) != HAL_OK)
 80015ba:	4669      	mov	r1, sp
 80015bc:	4806      	ldr	r0, [pc, #24]	@ (80015d8 <MX_TIM4_Init+0x60>)
 80015be:	f001 fe07 	bl	80031d0 <HAL_TIMEx_MasterConfigSynchronization>
 80015c2:	b930      	cbnz	r0, 80015d2 <MX_TIM4_Init+0x5a>
}
 80015c4:	b007      	add	sp, #28
 80015c6:	f85d fb04 	ldr.w	pc, [sp], #4
    Error_Handler();
 80015ca:	f7ff ffa1 	bl	8001510 <Error_Handler>
    Error_Handler();
 80015ce:	f7ff ff9f 	bl	8001510 <Error_Handler>
    Error_Handler();
 80015d2:	f7ff ff9d 	bl	8001510 <Error_Handler>
 80015d6:	bf00      	nop
 80015d8:	20000544 	.word	0x20000544
 80015dc:	40000800 	.word	0x40000800

080015e0 <MX_DAC_Init>:
{
 80015e0:	b500      	push	{lr}
 80015e2:	b083      	sub	sp, #12
  DAC_ChannelConfTypeDef sConfig = {0};
 80015e4:	2300      	movs	r3, #0
 80015e6:	9300      	str	r3, [sp, #0]
 80015e8:	9301      	str	r3, [sp, #4]
  hdac.Instance = DAC;
 80015ea:	480f      	ldr	r0, [pc, #60]	@ (8001628 <MX_DAC_Init+0x48>)
 80015ec:	4b0f      	ldr	r3, [pc, #60]	@ (800162c <MX_DAC_Init+0x4c>)
 80015ee:	6003      	str	r3, [r0, #0]
  if (HAL_DAC_Init(&hdac) != HAL_OK)
 80015f0:	f000 fc4a 	bl	8001e88 <HAL_DAC_Init>
 80015f4:	b988      	cbnz	r0, 800161a <MX_DAC_Init+0x3a>
  sConfig.DAC_Trigger = DAC_TRIGGER_T6_TRGO;
 80015f6:	2304      	movs	r3, #4
 80015f8:	9300      	str	r3, [sp, #0]
  sConfig.DAC_OutputBuffer = DAC_OUTPUTBUFFER_ENABLE;
 80015fa:	2200      	movs	r2, #0
 80015fc:	9201      	str	r2, [sp, #4]
  if (HAL_DAC_ConfigChannel(&hdac, &sConfig, DAC_CHANNEL_1) != HAL_OK)
 80015fe:	4669      	mov	r1, sp
 8001600:	4809      	ldr	r0, [pc, #36]	@ (8001628 <MX_DAC_Init+0x48>)
 8001602:	f000 fce5 	bl	8001fd0 <HAL_DAC_ConfigChannel>
 8001606:	b950      	cbnz	r0, 800161e <MX_DAC_Init+0x3e>
  if (HAL_DAC_ConfigChannel(&hdac, &sConfig, DAC_CHANNEL_2) != HAL_OK)
 8001608:	2210      	movs	r2, #16
 800160a:	4669      	mov	r1, sp
 800160c:	4806      	ldr	r0, [pc, #24]	@ (8001628 <MX_DAC_Init+0x48>)
 800160e:	f000 fcdf 	bl	8001fd0 <HAL_DAC_ConfigChannel>
 8001612:	b930      	cbnz	r0, 8001622 <MX_DAC_Init+0x42>
}
 8001614:	b003      	add	sp, #12
 8001616:	f85d fb04 	ldr.w	pc, [sp], #4
    Error_Handler();
 800161a:	f7ff ff79 	bl	8001510 <Error_Handler>
    Error_Handler();
 800161e:	f7ff ff77 	bl	8001510 <Error_Handler>
    Error_Handler();
 8001622:	f7ff ff75 	bl	8001510 <Error_Handler>
 8001626:	bf00      	nop
 8001628:	2000064c 	.word	0x2000064c
 800162c:	40007400 	.word	0x40007400

08001630 <MX_TIM6_Init>:
{
 8001630:	b500      	push	{lr}
 8001632:	b083      	sub	sp, #12
  TIM_MasterConfigTypeDef sMasterConfig = {0};
 8001634:	2300      	movs	r3, #0
 8001636:	9300      	str	r3, [sp, #0]
 8001638:	9301      	str	r3, [sp, #4]
  htim6.Instance = TIM6;
 800163a:	480e      	ldr	r0, [pc, #56]	@ (8001674 <MX_TIM6_Init+0x44>)
 800163c:	4a0e      	ldr	r2, [pc, #56]	@ (8001678 <MX_TIM6_Init+0x48>)
 800163e:	6002      	str	r2, [r0, #0]
  htim6.Init.Prescaler = 84 - 1;
 8001640:	2253      	movs	r2, #83	@ 0x53
 8001642:	6042      	str	r2, [r0, #4]
  htim6.Init.CounterMode = TIM_COUNTERMODE_UP;
 8001644:	6083      	str	r3, [r0, #8]
  htim6.Init.Period = 10 - 1;
 8001646:	2209      	movs	r2, #9
 8001648:	60c2      	str	r2, [r0, #12]
  htim6.Init.AutoReloadPreload = TIM_AUTORELOAD_PRELOAD_DISABLE;
 800164a:	6183      	str	r3, [r0, #24]
  if (HAL_TIM_Base_Init(&htim6) != HAL_OK)
 800164c:	f001 fd08 	bl	8003060 <HAL_TIM_Base_Init>
 8001650:	b958      	cbnz	r0, 800166a <MX_TIM6_Init+0x3a>
  sMasterConfig.MasterOutputTrigger = TIM_TRGO_UPDATE;
 8001652:	2320      	movs	r3, #32
 8001654:	9300      	str	r3, [sp, #0]
  sMasterConfig.MasterSlaveMode = TIM_MASTERSLAVEMODE_DISABLE;
 8001656:	2300      	movs	r3, #0
 8001658:	9301      	str	r3, [sp, #4]
  if (HAL_TIMEx_MasterConfigSynchronization(&htim6, &sMasterConfig) != HAL_OK)
 800165a:	4669      	mov	r1, sp
 800165c:	4805      	ldr	r0, [pc, #20]	@ (8001674 <MX_TIM6_Init+0x44>)
 800165e:	f001 fdb7 	bl	80031d0 <HAL_TIMEx_MasterConfigSynchronization>
 8001662:	b920      	cbnz	r0, 800166e <MX_TIM6_Init+0x3e>
}
 8001664:	b003      	add	sp, #12
 8001666:	f85d fb04 	ldr.w	pc, [sp], #4
    Error_Handler();
 800166a:	f7ff ff51 	bl	8001510 <Error_Handler>
    Error_Handler();
 800166e:	f7ff ff4f 	bl	8001510 <Error_Handler>
 8001672:	bf00      	nop
 8001674:	200004fc 	.word	0x200004fc
 8001678:	40001000 	.word	0x40001000

0800167c <SystemClock_Config>:
{
 800167c:	b500      	push	{lr}
 800167e:	b095      	sub	sp, #84	@ 0x54
  RCC_OscInitTypeDef RCC_OscInitStruct = {0};
 8001680:	2230      	movs	r2, #48	@ 0x30
 8001682:	2100      	movs	r1, #0
 8001684:	a808      	add	r0, sp, #32
 8001686:	f005 fb51 	bl	8006d2c <memset>
  RCC_ClkInitTypeDef RCC_ClkInitStruct = {0};
 800168a:	2300      	movs	r3, #0
 800168c:	9303      	str	r3, [sp, #12]
 800168e:	9304      	str	r3, [sp, #16]
 8001690:	9305      	str	r3, [sp, #20]
 8001692:	9306      	str	r3, [sp, #24]
 8001694:	9307      	str	r3, [sp, #28]
  __HAL_RCC_PWR_CLK_ENABLE();
 8001696:	9301      	str	r3, [sp, #4]
 8001698:	4a20      	ldr	r2, [pc, #128]	@ (800171c <SystemClock_Config+0xa0>)
 800169a:	6c11      	ldr	r1, [r2, #64]	@ 0x40
 800169c:	f041 5180 	orr.w	r1, r1, #268435456	@ 0x10000000
 80016a0:	6411      	str	r1, [r2, #64]	@ 0x40
 80016a2:	6c12      	ldr	r2, [r2, #64]	@ 0x40
 80016a4:	f002 5280 	and.w	r2, r2, #268435456	@ 0x10000000
 80016a8:	9201      	str	r2, [sp, #4]
 80016aa:	9a01      	ldr	r2, [sp, #4]
  __HAL_PWR_VOLTAGESCALING_CONFIG(PWR_REGULATOR_VOLTAGE_SCALE1);
 80016ac:	9302      	str	r3, [sp, #8]
 80016ae:	4b1c      	ldr	r3, [pc, #112]	@ (8001720 <SystemClock_Config+0xa4>)
 80016b0:	681a      	ldr	r2, [r3, #0]
 80016b2:	f442 4280 	orr.w	r2, r2, #16384	@ 0x4000
 80016b6:	601a      	str	r2, [r3, #0]
 80016b8:	681b      	ldr	r3, [r3, #0]
 80016ba:	f403 4380 	and.w	r3, r3, #16384	@ 0x4000
 80016be:	9302      	str	r3, [sp, #8]
 80016c0:	9b02      	ldr	r3, [sp, #8]
  RCC_OscInitStruct.OscillatorType = RCC_OSCILLATORTYPE_HSE;
 80016c2:	2301      	movs	r3, #1
 80016c4:	9308      	str	r3, [sp, #32]
  RCC_OscInitStruct.HSEState = RCC_HSE_ON;
 80016c6:	f44f 3380 	mov.w	r3, #65536	@ 0x10000
 80016ca:	9309      	str	r3, [sp, #36]	@ 0x24
  RCC_OscInitStruct.PLL.PLLState = RCC_PLL_ON;
 80016cc:	2302      	movs	r3, #2
 80016ce:	930e      	str	r3, [sp, #56]	@ 0x38
  RCC_OscInitStruct.PLL.PLLSource = RCC_PLLSOURCE_HSE;
 80016d0:	f44f 0280 	mov.w	r2, #4194304	@ 0x400000
 80016d4:	920f      	str	r2, [sp, #60]	@ 0x3c
  RCC_OscInitStruct.PLL.PLLM = 8;
 80016d6:	2208      	movs	r2, #8
 80016d8:	9210      	str	r2, [sp, #64]	@ 0x40
  RCC_OscInitStruct.PLL.PLLN = 168;
 80016da:	22a8      	movs	r2, #168	@ 0xa8
 80016dc:	9211      	str	r2, [sp, #68]	@ 0x44
  RCC_OscInitStruct.PLL.PLLP = RCC_PLLP_DIV2;
 80016de:	9312      	str	r3, [sp, #72]	@ 0x48
  RCC_OscInitStruct.PLL.PLLQ = 4;
 80016e0:	2304      	movs	r3, #4
 80016e2:	9313      	str	r3, [sp, #76]	@ 0x4c
  if (HAL_RCC_OscConfig(&RCC_OscInitStruct) != HAL_OK)
 80016e4:	a808      	add	r0, sp, #32
 80016e6:	f000 ffcf 	bl	8002688 <HAL_RCC_OscConfig>
 80016ea:	b998      	cbnz	r0, 8001714 <SystemClock_Config+0x98>
  RCC_ClkInitStruct.ClockType = RCC_CLOCKTYPE_HCLK|RCC_CLOCKTYPE_SYSCLK
 80016ec:	230f      	movs	r3, #15
 80016ee:	9303      	str	r3, [sp, #12]
  RCC_ClkInitStruct.SYSCLKSource = RCC_SYSCLKSOURCE_PLLCLK;
 80016f0:	2302      	movs	r3, #2
 80016f2:	9304      	str	r3, [sp, #16]
  RCC_ClkInitStruct.AHBCLKDivider = RCC_SYSCLK_DIV1;
 80016f4:	2300      	movs	r3, #0
 80016f6:	9305      	str	r3, [sp, #20]
  RCC_ClkInitStruct.APB1CLKDivider = RCC_HCLK_DIV4;
 80016f8:	f44f 53a0 	mov.w	r3, #5120	@ 0x1400
 80016fc:	9306      	str	r3, [sp, #24]
  RCC_ClkInitStruct.APB2CLKDivider = RCC_HCLK_DIV2;
 80016fe:	f44f 5380 	mov.w	r3, #4096	@ 0x1000
 8001702:	9307      	str	r3, [sp, #28]
  if (HAL_RCC_ClockConfig(&RCC_ClkInitStruct, FLASH_LATENCY_5) != HAL_OK)
 8001704:	2105      	movs	r1, #5
 8001706:	a803      	add	r0, sp, #12
 8001708:	f001 fa22 	bl	8002b50 <HAL_RCC_ClockConfig>
 800170c:	b920      	cbnz	r0, 8001718 <SystemClock_Config+0x9c>
}
 800170e:	b015      	add	sp, #84	@ 0x54
 8001710:	f85d fb04 	ldr.w	pc, [sp], #4
    Error_Handler();
 8001714:	f7ff fefc 	bl	8001510 <Error_Handler>
    Error_Handler();
 8001718:	f7ff fefa 	bl	8001510 <Error_Handler>
 800171c:	40023800 	.word	0x40023800
 8001720:	40007000 	.word	0x40007000

08001724 <main>:
{
 8001724:	b500      	push	{lr}
 8001726:	b083      	sub	sp, #12
  HAL_Init();
 8001728:	f000 fb1a 	bl	8001d60 <HAL_Init>
  SystemClock_Config();
 800172c:	f7ff ffa6 	bl	800167c <SystemClock_Config>
  MX_GPIO_Init();
 8001730:	f7ff fc02 	bl	8000f38 <MX_GPIO_Init>
  MX_DMA_Init();
 8001734:	f7ff fc50 	bl	8000fd8 <MX_DMA_Init>
  MX_USART1_UART_Init();
 8001738:	f7ff feec 	bl	8001514 <MX_USART1_UART_Init>
  MX_TIM13_Init();
 800173c:	f7ff ff06 	bl	800154c <MX_TIM13_Init>
  MX_TIM4_Init();
 8001740:	f7ff ff1a 	bl	8001578 <MX_TIM4_Init>
  MX_DAC_Init();
 8001744:	f7ff ff4c 	bl	80015e0 <MX_DAC_Init>
  MX_TIM6_Init();
 8001748:	f7ff ff72 	bl	8001630 <MX_TIM6_Init>
    printf("\n\n\n--------\nStarting\n");
 800174c:	4845      	ldr	r0, [pc, #276]	@ (8001864 <main+0x140>)
 800174e:	f005 fa0d 	bl	8006b6c <puts>
    HAL_TIM_Base_Start_IT(&htim4);
 8001752:	4845      	ldr	r0, [pc, #276]	@ (8001868 <main+0x144>)
 8001754:	f001 fb20 	bl	8002d98 <HAL_TIM_Base_Start_IT>
    HAL_TIM_Base_Start_IT(&htim6);
 8001758:	4844      	ldr	r0, [pc, #272]	@ (800186c <main+0x148>)
 800175a:	f001 fb1d 	bl	8002d98 <HAL_TIM_Base_Start_IT>
    HAL_DAC_Start_DMA(&hdac, DAC_CHANNEL_1, (uint32_t*) &dma_buffer_1, 2 * DMA_BUFFER_SIZE, DAC_ALIGN_12B_R);
 800175e:	4d44      	ldr	r5, [pc, #272]	@ (8001870 <main+0x14c>)
 8001760:	2400      	movs	r4, #0
 8001762:	9400      	str	r4, [sp, #0]
 8001764:	2380      	movs	r3, #128	@ 0x80
 8001766:	4a43      	ldr	r2, [pc, #268]	@ (8001874 <main+0x150>)
 8001768:	4621      	mov	r1, r4
 800176a:	4628      	mov	r0, r5
 800176c:	f000 fb9e 	bl	8001eac <HAL_DAC_Start_DMA>
    HAL_DAC_Start_DMA(&hdac, DAC_CHANNEL_2, (uint32_t*) &dma_buffer_2, 2 * DMA_BUFFER_SIZE, DAC_ALIGN_12B_R);
 8001770:	9400      	str	r4, [sp, #0]
 8001772:	2380      	movs	r3, #128	@ 0x80
 8001774:	4a40      	ldr	r2, [pc, #256]	@ (8001878 <main+0x154>)
 8001776:	2110      	movs	r1, #16
 8001778:	4628      	mov	r0, r5
 800177a:	f000 fb97 	bl	8001eac <HAL_DAC_Start_DMA>
  osKernelInitialize();
 800177e:	f001 ff0b 	bl	8003598 <osKernelInitialize>
  printMutexHandle = osMutexNew(&printMutex_attributes);
 8001782:	483e      	ldr	r0, [pc, #248]	@ (800187c <main+0x158>)
 8001784:	f001 ffbe 	bl	8003704 <osMutexNew>
 8001788:	4b3d      	ldr	r3, [pc, #244]	@ (8001880 <main+0x15c>)
 800178a:	6018      	str	r0, [r3, #0]
  ledMutexHandle = osMutexNew(&ledMutex_attributes);
 800178c:	483d      	ldr	r0, [pc, #244]	@ (8001884 <main+0x160>)
 800178e:	f001 ffb9 	bl	8003704 <osMutexNew>
 8001792:	4b3d      	ldr	r3, [pc, #244]	@ (8001888 <main+0x164>)
 8001794:	6018      	str	r0, [r3, #0]
  ledSemaphoreHandle = osSemaphoreNew(1, 1, &ledSemaphore_attributes);
 8001796:	4a3d      	ldr	r2, [pc, #244]	@ (800188c <main+0x168>)
 8001798:	2101      	movs	r1, #1
 800179a:	4608      	mov	r0, r1
 800179c:	f002 f851 	bl	8003842 <osSemaphoreNew>
 80017a0:	4b3b      	ldr	r3, [pc, #236]	@ (8001890 <main+0x16c>)
 80017a2:	6018      	str	r0, [r3, #0]
  pulseSemaphoreHandle = osSemaphoreNew(1, 1, &pulseSemaphore_attributes);
 80017a4:	4a3b      	ldr	r2, [pc, #236]	@ (8001894 <main+0x170>)
 80017a6:	2101      	movs	r1, #1
 80017a8:	4608      	mov	r0, r1
 80017aa:	f002 f84a 	bl	8003842 <osSemaphoreNew>
 80017ae:	4b3a      	ldr	r3, [pc, #232]	@ (8001898 <main+0x174>)
 80017b0:	6018      	str	r0, [r3, #0]
  tickQueueHandle = osMessageQueueNew (16, sizeof(uint32_t), &tickQueue_attributes);
 80017b2:	4a3a      	ldr	r2, [pc, #232]	@ (800189c <main+0x178>)
 80017b4:	2104      	movs	r1, #4
 80017b6:	2010      	movs	r0, #16
 80017b8:	f002 f8ff 	bl	80039ba <osMessageQueueNew>
 80017bc:	4b38      	ldr	r3, [pc, #224]	@ (80018a0 <main+0x17c>)
 80017be:	6018      	str	r0, [r3, #0]
  sineQueueHandle = osMessageQueueNew (16, sizeof(uint32_t), &sineQueue_attributes);
 80017c0:	4a38      	ldr	r2, [pc, #224]	@ (80018a4 <main+0x180>)
 80017c2:	2104      	movs	r1, #4
 80017c4:	2010      	movs	r0, #16
 80017c6:	f002 f8f8 	bl	80039ba <osMessageQueueNew>
 80017ca:	4b37      	ldr	r3, [pc, #220]	@ (80018a8 <main+0x184>)
 80017cc:	6018      	str	r0, [r3, #0]
  waveQueueHandle = osMessageQueueNew (16, sizeof(wave_queue_t), &waveQueue_attributes);
 80017ce:	4a37      	ldr	r2, [pc, #220]	@ (80018ac <main+0x188>)
 80017d0:	210c      	movs	r1, #12
 80017d2:	2010      	movs	r0, #16
 80017d4:	f002 f8f1 	bl	80039ba <osMessageQueueNew>
 80017d8:	4b35      	ldr	r3, [pc, #212]	@ (80018b0 <main+0x18c>)
 80017da:	6018      	str	r0, [r3, #0]
  defaultTaskHandle = osThreadNew(StartDefaultTask, NULL, &defaultTask_attributes);
 80017dc:	4a35      	ldr	r2, [pc, #212]	@ (80018b4 <main+0x190>)
 80017de:	4621      	mov	r1, r4
 80017e0:	4835      	ldr	r0, [pc, #212]	@ (80018b8 <main+0x194>)
 80017e2:	f001 ff11 	bl	8003608 <osThreadNew>
 80017e6:	4b35      	ldr	r3, [pc, #212]	@ (80018bc <main+0x198>)
 80017e8:	6018      	str	r0, [r3, #0]
  ledTaskHandle = osThreadNew(StartLedTask, NULL, &ledTask_attributes);
 80017ea:	4a35      	ldr	r2, [pc, #212]	@ (80018c0 <main+0x19c>)
 80017ec:	4621      	mov	r1, r4
 80017ee:	4835      	ldr	r0, [pc, #212]	@ (80018c4 <main+0x1a0>)
 80017f0:	f001 ff0a 	bl	8003608 <osThreadNew>
 80017f4:	4b34      	ldr	r3, [pc, #208]	@ (80018c8 <main+0x1a4>)
 80017f6:	6018      	str	r0, [r3, #0]
  tickTaskHandle = osThreadNew(StartTickTask, NULL, &tickTask_attributes);
 80017f8:	4a34      	ldr	r2, [pc, #208]	@ (80018cc <main+0x1a8>)
 80017fa:	4621      	mov	r1, r4
 80017fc:	4834      	ldr	r0, [pc, #208]	@ (80018d0 <main+0x1ac>)
 80017fe:	f001 ff03 	bl	8003608 <osThreadNew>
 8001802:	4b34      	ldr	r3, [pc, #208]	@ (80018d4 <main+0x1b0>)
 8001804:	6018      	str	r0, [r3, #0]
  statusTaskHandle = osThreadNew(StartStatusTask, NULL, &statusTask_attributes);
 8001806:	4a34      	ldr	r2, [pc, #208]	@ (80018d8 <main+0x1b4>)
 8001808:	4621      	mov	r1, r4
 800180a:	4834      	ldr	r0, [pc, #208]	@ (80018dc <main+0x1b8>)
 800180c:	f001 fefc 	bl	8003608 <osThreadNew>
 8001810:	4b33      	ldr	r3, [pc, #204]	@ (80018e0 <main+0x1bc>)
 8001812:	6018      	str	r0, [r3, #0]
  pulseTaskHandle = osThreadNew(StartPulseTask, NULL, &pulseTask_attributes);
 8001814:	4a33      	ldr	r2, [pc, #204]	@ (80018e4 <main+0x1c0>)
 8001816:	4621      	mov	r1, r4
 8001818:	4833      	ldr	r0, [pc, #204]	@ (80018e8 <main+0x1c4>)
 800181a:	f001 fef5 	bl	8003608 <osThreadNew>
 800181e:	4b33      	ldr	r3, [pc, #204]	@ (80018ec <main+0x1c8>)
 8001820:	6018      	str	r0, [r3, #0]
  sineTaskHandle = osThreadNew(StartSineTask, NULL, &sineTask_attributes);
 8001822:	4a33      	ldr	r2, [pc, #204]	@ (80018f0 <main+0x1cc>)
 8001824:	4621      	mov	r1, r4
 8001826:	4833      	ldr	r0, [pc, #204]	@ (80018f4 <main+0x1d0>)
 8001828:	f001 feee 	bl	8003608 <osThreadNew>
 800182c:	4b32      	ldr	r3, [pc, #200]	@ (80018f8 <main+0x1d4>)
 800182e:	6018      	str	r0, [r3, #0]
  waveTaskHandle = osThreadNew(StartWaveTask, NULL, &waveTask_attributes);
 8001830:	4a32      	ldr	r2, [pc, #200]	@ (80018fc <main+0x1d8>)
 8001832:	4621      	mov	r1, r4
 8001834:	4832      	ldr	r0, [pc, #200]	@ (8001900 <main+0x1dc>)
 8001836:	f001 fee7 	bl	8003608 <osThreadNew>
 800183a:	4b32      	ldr	r3, [pc, #200]	@ (8001904 <main+0x1e0>)
 800183c:	6018      	str	r0, [r3, #0]
  waste1TaskHandle = osThreadNew(StartWaste1Task, NULL, &waste1Task_attributes);
 800183e:	4a32      	ldr	r2, [pc, #200]	@ (8001908 <main+0x1e4>)
 8001840:	4621      	mov	r1, r4
 8001842:	4832      	ldr	r0, [pc, #200]	@ (800190c <main+0x1e8>)
 8001844:	f001 fee0 	bl	8003608 <osThreadNew>
 8001848:	4b31      	ldr	r3, [pc, #196]	@ (8001910 <main+0x1ec>)
 800184a:	6018      	str	r0, [r3, #0]
  waste2TaskHandle = osThreadNew(StartWaste2Task, NULL, &waste2Task_attributes);
 800184c:	4a31      	ldr	r2, [pc, #196]	@ (8001914 <main+0x1f0>)
 800184e:	4621      	mov	r1, r4
 8001850:	4831      	ldr	r0, [pc, #196]	@ (8001918 <main+0x1f4>)
 8001852:	f001 fed9 	bl	8003608 <osThreadNew>
 8001856:	4b31      	ldr	r3, [pc, #196]	@ (800191c <main+0x1f8>)
 8001858:	6018      	str	r0, [r3, #0]
  osKernelStart();
 800185a:	f001 feaf 	bl	80035bc <osKernelStart>
    Error_Handler();
 800185e:	f7ff fe57 	bl	8001510 <Error_Handler>
 8001862:	bf00      	nop
 8001864:	08008be8 	.word	0x08008be8
 8001868:	20000544 	.word	0x20000544
 800186c:	200004fc 	.word	0x200004fc
 8001870:	2000064c 	.word	0x2000064c
 8001874:	20000328 	.word	0x20000328
 8001878:	20000228 	.word	0x20000228
 800187c:	08008d1c 	.word	0x08008d1c
 8001880:	20000438 	.word	0x20000438
 8001884:	08008d0c 	.word	0x08008d0c
 8001888:	20000434 	.word	0x20000434
 800188c:	08008cfc 	.word	0x08008cfc
 8001890:	20000430 	.word	0x20000430
 8001894:	08008cec 	.word	0x08008cec
 8001898:	2000042c 	.word	0x2000042c
 800189c:	08008d5c 	.word	0x08008d5c
 80018a0:	20000444 	.word	0x20000444
 80018a4:	08008d44 	.word	0x08008d44
 80018a8:	20000440 	.word	0x20000440
 80018ac:	08008d2c 	.word	0x08008d2c
 80018b0:	2000043c 	.word	0x2000043c
 80018b4:	08008e94 	.word	0x08008e94
 80018b8:	0800101d 	.word	0x0800101d
 80018bc:	20000468 	.word	0x20000468
 80018c0:	08008e70 	.word	0x08008e70
 80018c4:	080010e5 	.word	0x080010e5
 80018c8:	20000464 	.word	0x20000464
 80018cc:	08008e4c 	.word	0x08008e4c
 80018d0:	08001171 	.word	0x08001171
 80018d4:	20000460 	.word	0x20000460
 80018d8:	08008e28 	.word	0x08008e28
 80018dc:	080011ed 	.word	0x080011ed
 80018e0:	2000045c 	.word	0x2000045c
 80018e4:	08008e04 	.word	0x08008e04
 80018e8:	080010bd 	.word	0x080010bd
 80018ec:	20000458 	.word	0x20000458
 80018f0:	08008de0 	.word	0x08008de0
 80018f4:	08001301 	.word	0x08001301
 80018f8:	20000454 	.word	0x20000454
 80018fc:	08008dbc 	.word	0x08008dbc
 8001900:	08001121 	.word	0x08001121
 8001904:	20000450 	.word	0x20000450
 8001908:	08008d98 	.word	0x08008d98
 800190c:	08001395 	.word	0x08001395
 8001910:	2000044c 	.word	0x2000044c
 8001914:	08008d74 	.word	0x08008d74
 8001918:	0800139d 	.word	0x0800139d
 800191c:	20000448 	.word	0x20000448

08001920 <HAL_MspInit>:
/* USER CODE END 0 */
/**
  * Initializes the Global MSP.
  */
void HAL_MspInit(void)
{
 8001920:	b500      	push	{lr}
 8001922:	b083      	sub	sp, #12

  /* USER CODE BEGIN MspInit 0 */

  /* USER CODE END MspInit 0 */

  __HAL_RCC_SYSCFG_CLK_ENABLE();
 8001924:	2200      	movs	r2, #0
 8001926:	9200      	str	r2, [sp, #0]
 8001928:	4b0d      	ldr	r3, [pc, #52]	@ (8001960 <HAL_MspInit+0x40>)
 800192a:	6c59      	ldr	r1, [r3, #68]	@ 0x44
 800192c:	f441 4180 	orr.w	r1, r1, #16384	@ 0x4000
 8001930:	6459      	str	r1, [r3, #68]	@ 0x44
 8001932:	6c59      	ldr	r1, [r3, #68]	@ 0x44
 8001934:	f401 4180 	and.w	r1, r1, #16384	@ 0x4000
 8001938:	9100      	str	r1, [sp, #0]
 800193a:	9900      	ldr	r1, [sp, #0]
  __HAL_RCC_PWR_CLK_ENABLE();
 800193c:	9201      	str	r2, [sp, #4]
 800193e:	6c19      	ldr	r1, [r3, #64]	@ 0x40
 8001940:	f041 5180 	orr.w	r1, r1, #268435456	@ 0x10000000
 8001944:	6419      	str	r1, [r3, #64]	@ 0x40
 8001946:	6c1b      	ldr	r3, [r3, #64]	@ 0x40
 8001948:	f003 5380 	and.w	r3, r3, #268435456	@ 0x10000000
 800194c:	9301      	str	r3, [sp, #4]
 800194e:	9b01      	ldr	r3, [sp, #4]

  /* System interrupt init*/
  /* PendSV_IRQn interrupt configuration */
  HAL_NVIC_SetPriority(PendSV_IRQn, 15, 0);
 8001950:	210f      	movs	r1, #15
 8001952:	f06f 0001 	mvn.w	r0, #1
 8001956:	f000 fa83 	bl	8001e60 <HAL_NVIC_SetPriority>

  /* USER CODE BEGIN MspInit 1 */

  /* USER CODE END MspInit 1 */
}
 800195a:	b003      	add	sp, #12
 800195c:	f85d fb04 	ldr.w	pc, [sp], #4
 8001960:	40023800 	.word	0x40023800

08001964 <HAL_DAC_MspInit>:
* This function configures the hardware resources used in this example
* @param hdac: DAC handle pointer
* @retval None
*/
void HAL_DAC_MspInit(DAC_HandleTypeDef* hdac)
{
 8001964:	b530      	push	{r4, r5, lr}
 8001966:	b089      	sub	sp, #36	@ 0x24
  GPIO_InitTypeDef GPIO_InitStruct = {0};
 8001968:	2300      	movs	r3, #0
 800196a:	9303      	str	r3, [sp, #12]
 800196c:	9304      	str	r3, [sp, #16]
 800196e:	9305      	str	r3, [sp, #20]
 8001970:	9306      	str	r3, [sp, #24]
 8001972:	9307      	str	r3, [sp, #28]
  if(hdac->Instance==DAC)
 8001974:	6802      	ldr	r2, [r0, #0]
 8001976:	4b33      	ldr	r3, [pc, #204]	@ (8001a44 <HAL_DAC_MspInit+0xe0>)
 8001978:	429a      	cmp	r2, r3
 800197a:	d001      	beq.n	8001980 <HAL_DAC_MspInit+0x1c>

  /* USER CODE END DAC_MspInit 1 */

  }

}
 800197c:	b009      	add	sp, #36	@ 0x24
 800197e:	bd30      	pop	{r4, r5, pc}
 8001980:	4604      	mov	r4, r0
    __HAL_RCC_DAC_CLK_ENABLE();
 8001982:	2500      	movs	r5, #0
 8001984:	9501      	str	r5, [sp, #4]
 8001986:	f503 33e2 	add.w	r3, r3, #115712	@ 0x1c400
 800198a:	6c1a      	ldr	r2, [r3, #64]	@ 0x40
 800198c:	f042 5200 	orr.w	r2, r2, #536870912	@ 0x20000000
 8001990:	641a      	str	r2, [r3, #64]	@ 0x40
 8001992:	6c1a      	ldr	r2, [r3, #64]	@ 0x40
 8001994:	f002 5200 	and.w	r2, r2, #536870912	@ 0x20000000
 8001998:	9201      	str	r2, [sp, #4]
 800199a:	9a01      	ldr	r2, [sp, #4]
    __HAL_RCC_GPIOA_CLK_ENABLE();
 800199c:	9502      	str	r5, [sp, #8]
 800199e:	6b1a      	ldr	r2, [r3, #48]	@ 0x30
 80019a0:	f042 0201 	orr.w	r2, r2, #1
 80019a4:	631a      	str	r2, [r3, #48]	@ 0x30
 80019a6:	6b1b      	ldr	r3, [r3, #48]	@ 0x30
 80019a8:	f003 0301 	and.w	r3, r3, #1
 80019ac:	9302      	str	r3, [sp, #8]
 80019ae:	9b02      	ldr	r3, [sp, #8]
    GPIO_InitStruct.Pin = GPIO_PIN_4|GPIO_PIN_5;
 80019b0:	2330      	movs	r3, #48	@ 0x30
 80019b2:	9303      	str	r3, [sp, #12]
    GPIO_InitStruct.Mode = GPIO_MODE_ANALOG;
 80019b4:	2303      	movs	r3, #3
 80019b6:	9304      	str	r3, [sp, #16]
    HAL_GPIO_Init(GPIOA, &GPIO_InitStruct);
 80019b8:	a903      	add	r1, sp, #12
 80019ba:	4823      	ldr	r0, [pc, #140]	@ (8001a48 <HAL_DAC_MspInit+0xe4>)
 80019bc:	f000 fd5e 	bl	800247c <HAL_GPIO_Init>
    hdma_dac1.Instance = DMA1_Stream5;
 80019c0:	4822      	ldr	r0, [pc, #136]	@ (8001a4c <HAL_DAC_MspInit+0xe8>)
 80019c2:	4b23      	ldr	r3, [pc, #140]	@ (8001a50 <HAL_DAC_MspInit+0xec>)
 80019c4:	6003      	str	r3, [r0, #0]
    hdma_dac1.Init.Channel = DMA_CHANNEL_7;
 80019c6:	f04f 6360 	mov.w	r3, #234881024	@ 0xe000000
 80019ca:	6043      	str	r3, [r0, #4]
    hdma_dac1.Init.Direction = DMA_MEMORY_TO_PERIPH;
 80019cc:	2340      	movs	r3, #64	@ 0x40
 80019ce:	6083      	str	r3, [r0, #8]
    hdma_dac1.Init.PeriphInc = DMA_PINC_DISABLE;
 80019d0:	60c5      	str	r5, [r0, #12]
    hdma_dac1.Init.MemInc = DMA_MINC_ENABLE;
 80019d2:	f44f 6380 	mov.w	r3, #1024	@ 0x400
 80019d6:	6103      	str	r3, [r0, #16]
    hdma_dac1.Init.PeriphDataAlignment = DMA_PDATAALIGN_HALFWORD;
 80019d8:	f44f 6300 	mov.w	r3, #2048	@ 0x800
 80019dc:	6143      	str	r3, [r0, #20]
    hdma_dac1.Init.MemDataAlignment = DMA_MDATAALIGN_HALFWORD;
 80019de:	f44f 5300 	mov.w	r3, #8192	@ 0x2000
 80019e2:	6183      	str	r3, [r0, #24]
    hdma_dac1.Init.Mode = DMA_CIRCULAR;
 80019e4:	f44f 7380 	mov.w	r3, #256	@ 0x100
 80019e8:	61c3      	str	r3, [r0, #28]
    hdma_dac1.Init.Priority = DMA_PRIORITY_LOW;
 80019ea:	6205      	str	r5, [r0, #32]
    hdma_dac1.Init.FIFOMode = DMA_FIFOMODE_DISABLE;
 80019ec:	6245      	str	r5, [r0, #36]	@ 0x24
    if (HAL_DMA_Init(&hdma_dac1) != HAL_OK)
 80019ee:	f000 fbbb 	bl	8002168 <HAL_DMA_Init>
 80019f2:	bb08      	cbnz	r0, 8001a38 <HAL_DAC_MspInit+0xd4>
    __HAL_LINKDMA(hdac,DMA_Handle1,hdma_dac1);
 80019f4:	4b15      	ldr	r3, [pc, #84]	@ (8001a4c <HAL_DAC_MspInit+0xe8>)
 80019f6:	60a3      	str	r3, [r4, #8]
 80019f8:	639c      	str	r4, [r3, #56]	@ 0x38
    hdma_dac2.Instance = DMA1_Stream6;
 80019fa:	4816      	ldr	r0, [pc, #88]	@ (8001a54 <HAL_DAC_MspInit+0xf0>)
 80019fc:	4b16      	ldr	r3, [pc, #88]	@ (8001a58 <HAL_DAC_MspInit+0xf4>)
 80019fe:	6003      	str	r3, [r0, #0]
    hdma_dac2.Init.Channel = DMA_CHANNEL_7;
 8001a00:	f04f 6360 	mov.w	r3, #234881024	@ 0xe000000
 8001a04:	6043      	str	r3, [r0, #4]
    hdma_dac2.Init.Direction = DMA_MEMORY_TO_PERIPH;
 8001a06:	2340      	movs	r3, #64	@ 0x40
 8001a08:	6083      	str	r3, [r0, #8]
    hdma_dac2.Init.PeriphInc = DMA_PINC_DISABLE;
 8001a0a:	2300      	movs	r3, #0
 8001a0c:	60c3      	str	r3, [r0, #12]
    hdma_dac2.Init.MemInc = DMA_MINC_ENABLE;
 8001a0e:	f44f 6280 	mov.w	r2, #1024	@ 0x400
 8001a12:	6102      	str	r2, [r0, #16]
    hdma_dac2.Init.PeriphDataAlignment = DMA_PDATAALIGN_HALFWORD;
 8001a14:	f44f 6200 	mov.w	r2, #2048	@ 0x800
 8001a18:	6142      	str	r2, [r0, #20]
    hdma_dac2.Init.MemDataAlignment = DMA_MDATAALIGN_HALFWORD;
 8001a1a:	f44f 5200 	mov.w	r2, #8192	@ 0x2000
 8001a1e:	6182      	str	r2, [r0, #24]
    hdma_dac2.Init.Mode = DMA_CIRCULAR;
 8001a20:	f44f 7280 	mov.w	r2, #256	@ 0x100
 8001a24:	61c2      	str	r2, [r0, #28]
    hdma_dac2.Init.Priority = DMA_PRIORITY_LOW;
 8001a26:	6203      	str	r3, [r0, #32]
    hdma_dac2.Init.FIFOMode = DMA_FIFOMODE_DISABLE;
 8001a28:	6243      	str	r3, [r0, #36]	@ 0x24
    if (HAL_DMA_Init(&hdma_dac2) != HAL_OK)
 8001a2a:	f000 fb9d 	bl	8002168 <HAL_DMA_Init>
 8001a2e:	b930      	cbnz	r0, 8001a3e <HAL_DAC_MspInit+0xda>
    __HAL_LINKDMA(hdac,DMA_Handle2,hdma_dac2);
 8001a30:	4b08      	ldr	r3, [pc, #32]	@ (8001a54 <HAL_DAC_MspInit+0xf0>)
 8001a32:	60e3      	str	r3, [r4, #12]
 8001a34:	639c      	str	r4, [r3, #56]	@ 0x38
}
 8001a36:	e7a1      	b.n	800197c <HAL_DAC_MspInit+0x18>
      Error_Handler();
 8001a38:	f7ff fd6a 	bl	8001510 <Error_Handler>
 8001a3c:	e7da      	b.n	80019f4 <HAL_DAC_MspInit+0x90>
      Error_Handler();
 8001a3e:	f7ff fd67 	bl	8001510 <Error_Handler>
 8001a42:	e7f5      	b.n	8001a30 <HAL_DAC_MspInit+0xcc>
 8001a44:	40007400 	.word	0x40007400
 8001a48:	40020000 	.word	0x40020000
 8001a4c:	200005ec 	.word	0x200005ec
 8001a50:	40026088 	.word	0x40026088
 8001a54:	2000058c 	.word	0x2000058c
 8001a58:	400260a0 	.word	0x400260a0

08001a5c <HAL_TIM_Base_MspInit>:
* This function configures the hardware resources used in this example
* @param htim_base: TIM_Base handle pointer
* @retval None
*/
void HAL_TIM_Base_MspInit(TIM_HandleTypeDef* htim_base)
{
 8001a5c:	b500      	push	{lr}
 8001a5e:	b085      	sub	sp, #20
  if(htim_base->Instance==TIM4)
 8001a60:	6803      	ldr	r3, [r0, #0]
 8001a62:	4a1d      	ldr	r2, [pc, #116]	@ (8001ad8 <HAL_TIM_Base_MspInit+0x7c>)
 8001a64:	4293      	cmp	r3, r2
 8001a66:	d008      	beq.n	8001a7a <HAL_TIM_Base_MspInit+0x1e>
    HAL_NVIC_EnableIRQ(TIM4_IRQn);
  /* USER CODE BEGIN TIM4_MspInit 1 */

  /* USER CODE END TIM4_MspInit 1 */
  }
  else if(htim_base->Instance==TIM6)
 8001a68:	4a1c      	ldr	r2, [pc, #112]	@ (8001adc <HAL_TIM_Base_MspInit+0x80>)
 8001a6a:	4293      	cmp	r3, r2
 8001a6c:	d019      	beq.n	8001aa2 <HAL_TIM_Base_MspInit+0x46>
    __HAL_RCC_TIM6_CLK_ENABLE();
  /* USER CODE BEGIN TIM6_MspInit 1 */

  /* USER CODE END TIM6_MspInit 1 */
  }
  else if(htim_base->Instance==TIM13)
 8001a6e:	4a1c      	ldr	r2, [pc, #112]	@ (8001ae0 <HAL_TIM_Base_MspInit+0x84>)
 8001a70:	4293      	cmp	r3, r2
 8001a72:	d023      	beq.n	8001abc <HAL_TIM_Base_MspInit+0x60>
  /* USER CODE BEGIN TIM13_MspInit 1 */

  /* USER CODE END TIM13_MspInit 1 */
  }

}
 8001a74:	b005      	add	sp, #20
 8001a76:	f85d fb04 	ldr.w	pc, [sp], #4
    __HAL_RCC_TIM4_CLK_ENABLE();
 8001a7a:	2200      	movs	r2, #0
 8001a7c:	9201      	str	r2, [sp, #4]
 8001a7e:	4b19      	ldr	r3, [pc, #100]	@ (8001ae4 <HAL_TIM_Base_MspInit+0x88>)
 8001a80:	6c19      	ldr	r1, [r3, #64]	@ 0x40
 8001a82:	f041 0104 	orr.w	r1, r1, #4
 8001a86:	6419      	str	r1, [r3, #64]	@ 0x40
 8001a88:	6c1b      	ldr	r3, [r3, #64]	@ 0x40
 8001a8a:	f003 0304 	and.w	r3, r3, #4
 8001a8e:	9301      	str	r3, [sp, #4]
 8001a90:	9b01      	ldr	r3, [sp, #4]
    HAL_NVIC_SetPriority(TIM4_IRQn, 5, 0);
 8001a92:	2105      	movs	r1, #5
 8001a94:	201e      	movs	r0, #30
 8001a96:	f000 f9e3 	bl	8001e60 <HAL_NVIC_SetPriority>
    HAL_NVIC_EnableIRQ(TIM4_IRQn);
 8001a9a:	201e      	movs	r0, #30
 8001a9c:	f000 f9f0 	bl	8001e80 <HAL_NVIC_EnableIRQ>
 8001aa0:	e7e8      	b.n	8001a74 <HAL_TIM_Base_MspInit+0x18>
    __HAL_RCC_TIM6_CLK_ENABLE();
 8001aa2:	2300      	movs	r3, #0
 8001aa4:	9302      	str	r3, [sp, #8]
 8001aa6:	4b0f      	ldr	r3, [pc, #60]	@ (8001ae4 <HAL_TIM_Base_MspInit+0x88>)
 8001aa8:	6c1a      	ldr	r2, [r3, #64]	@ 0x40
 8001aaa:	f042 0210 	orr.w	r2, r2, #16
 8001aae:	641a      	str	r2, [r3, #64]	@ 0x40
 8001ab0:	6c1b      	ldr	r3, [r3, #64]	@ 0x40
 8001ab2:	f003 0310 	and.w	r3, r3, #16
 8001ab6:	9302      	str	r3, [sp, #8]
 8001ab8:	9b02      	ldr	r3, [sp, #8]
 8001aba:	e7db      	b.n	8001a74 <HAL_TIM_Base_MspInit+0x18>
    __HAL_RCC_TIM13_CLK_ENABLE();
 8001abc:	2300      	movs	r3, #0
 8001abe:	9303      	str	r3, [sp, #12]
 8001ac0:	4b08      	ldr	r3, [pc, #32]	@ (8001ae4 <HAL_TIM_Base_MspInit+0x88>)
 8001ac2:	6c1a      	ldr	r2, [r3, #64]	@ 0x40
 8001ac4:	f042 0280 	orr.w	r2, r2, #128	@ 0x80
 8001ac8:	641a      	str	r2, [r3, #64]	@ 0x40
 8001aca:	6c1b      	ldr	r3, [r3, #64]	@ 0x40
 8001acc:	f003 0380 	and.w	r3, r3, #128	@ 0x80
 8001ad0:	9303      	str	r3, [sp, #12]
 8001ad2:	9b03      	ldr	r3, [sp, #12]
}
 8001ad4:	e7ce      	b.n	8001a74 <HAL_TIM_Base_MspInit+0x18>
 8001ad6:	bf00      	nop
 8001ad8:	40000800 	.word	0x40000800
 8001adc:	40001000 	.word	0x40001000
 8001ae0:	40001c00 	.word	0x40001c00
 8001ae4:	40023800 	.word	0x40023800

08001ae8 <HAL_UART_MspInit>:
* This function configures the hardware resources used in this example
* @param huart: UART handle pointer
* @retval None
*/
void HAL_UART_MspInit(UART_HandleTypeDef* huart)
{
 8001ae8:	b500      	push	{lr}
 8001aea:	b089      	sub	sp, #36	@ 0x24
  GPIO_InitTypeDef GPIO_InitStruct = {0};
 8001aec:	2300      	movs	r3, #0
 8001aee:	9303      	str	r3, [sp, #12]
 8001af0:	9304      	str	r3, [sp, #16]
 8001af2:	9305      	str	r3, [sp, #20]
 8001af4:	9306      	str	r3, [sp, #24]
 8001af6:	9307      	str	r3, [sp, #28]
  if(huart->Instance==USART1)
 8001af8:	6802      	ldr	r2, [r0, #0]
 8001afa:	f103 4380 	add.w	r3, r3, #1073741824	@ 0x40000000
 8001afe:	f503 3388 	add.w	r3, r3, #69632	@ 0x11000
 8001b02:	429a      	cmp	r2, r3
 8001b04:	d002      	beq.n	8001b0c <HAL_UART_MspInit+0x24>

  /* USER CODE END USART1_MspInit 1 */

  }

}
 8001b06:	b009      	add	sp, #36	@ 0x24
 8001b08:	f85d fb04 	ldr.w	pc, [sp], #4
    __HAL_RCC_USART1_CLK_ENABLE();
 8001b0c:	2100      	movs	r1, #0
 8001b0e:	9101      	str	r1, [sp, #4]
 8001b10:	f503 3394 	add.w	r3, r3, #75776	@ 0x12800
 8001b14:	6c5a      	ldr	r2, [r3, #68]	@ 0x44
 8001b16:	f042 0210 	orr.w	r2, r2, #16
 8001b1a:	645a      	str	r2, [r3, #68]	@ 0x44
 8001b1c:	6c5a      	ldr	r2, [r3, #68]	@ 0x44
 8001b1e:	f002 0210 	and.w	r2, r2, #16
 8001b22:	9201      	str	r2, [sp, #4]
 8001b24:	9a01      	ldr	r2, [sp, #4]
    __HAL_RCC_GPIOA_CLK_ENABLE();
 8001b26:	9102      	str	r1, [sp, #8]
 8001b28:	6b1a      	ldr	r2, [r3, #48]	@ 0x30
 8001b2a:	f042 0201 	orr.w	r2, r2, #1
 8001b2e:	631a      	str	r2, [r3, #48]	@ 0x30
 8001b30:	6b1b      	ldr	r3, [r3, #48]	@ 0x30
 8001b32:	f003 0301 	and.w	r3, r3, #1
 8001b36:	9302      	str	r3, [sp, #8]
 8001b38:	9b02      	ldr	r3, [sp, #8]
    GPIO_InitStruct.Pin = GPIO_PIN_9|GPIO_PIN_10;
 8001b3a:	f44f 63c0 	mov.w	r3, #1536	@ 0x600
 8001b3e:	9303      	str	r3, [sp, #12]
    GPIO_InitStruct.Mode = GPIO_MODE_AF_PP;
 8001b40:	2302      	movs	r3, #2
 8001b42:	9304      	str	r3, [sp, #16]
    GPIO_InitStruct.Speed = GPIO_SPEED_FREQ_VERY_HIGH;
 8001b44:	2303      	movs	r3, #3
 8001b46:	9306      	str	r3, [sp, #24]
    GPIO_InitStruct.Alternate = GPIO_AF7_USART1;
 8001b48:	2307      	movs	r3, #7
 8001b4a:	9307      	str	r3, [sp, #28]
    HAL_GPIO_Init(GPIOA, &GPIO_InitStruct);
 8001b4c:	a903      	add	r1, sp, #12
 8001b4e:	4802      	ldr	r0, [pc, #8]	@ (8001b58 <HAL_UART_MspInit+0x70>)
 8001b50:	f000 fc94 	bl	800247c <HAL_GPIO_Init>
}
 8001b54:	e7d7      	b.n	8001b06 <HAL_UART_MspInit+0x1e>
 8001b56:	bf00      	nop
 8001b58:	40020000 	.word	0x40020000

08001b5c <HAL_InitTick>:
  *         reset by HAL_Init() or at any time when clock is configured, by HAL_RCC_ClockConfig().
  * @param  TickPriority: Tick interrupt priority.
  * @retval HAL status
  */
HAL_StatusTypeDef HAL_InitTick(uint32_t TickPriority)
{
 8001b5c:	b530      	push	{r4, r5, lr}
 8001b5e:	b089      	sub	sp, #36	@ 0x24
 8001b60:	4604      	mov	r4, r0
  uint32_t              uwPrescalerValue = 0U;
  uint32_t              pFLatency;
  HAL_StatusTypeDef     status;

  /* Enable TIM14 clock */
  __HAL_RCC_TIM14_CLK_ENABLE();
 8001b62:	2300      	movs	r3, #0
 8001b64:	9301      	str	r3, [sp, #4]
 8001b66:	4b21      	ldr	r3, [pc, #132]	@ (8001bec <HAL_InitTick+0x90>)
 8001b68:	6c1a      	ldr	r2, [r3, #64]	@ 0x40
 8001b6a:	f442 7280 	orr.w	r2, r2, #256	@ 0x100
 8001b6e:	641a      	str	r2, [r3, #64]	@ 0x40
 8001b70:	6c1b      	ldr	r3, [r3, #64]	@ 0x40
 8001b72:	f403 7380 	and.w	r3, r3, #256	@ 0x100
 8001b76:	9301      	str	r3, [sp, #4]
 8001b78:	9b01      	ldr	r3, [sp, #4]
  /* Get clock configuration */
  HAL_RCC_GetClockConfig(&clkconfig, &pFLatency);
 8001b7a:	a902      	add	r1, sp, #8
 8001b7c:	a803      	add	r0, sp, #12
 8001b7e:	f001 f8bd 	bl	8002cfc <HAL_RCC_GetClockConfig>
  /* Get APB1 prescaler */
  uwAPB1Prescaler = clkconfig.APB1CLKDivider;
 8001b82:	9b06      	ldr	r3, [sp, #24]
  /* Compute TIM14 clock */
  if (uwAPB1Prescaler == RCC_HCLK_DIV1)
 8001b84:	b9cb      	cbnz	r3, 8001bba <HAL_InitTick+0x5e>
  {
    uwTimclock = HAL_RCC_GetPCLK1Freq();
 8001b86:	f001 f899 	bl	8002cbc <HAL_RCC_GetPCLK1Freq>
 8001b8a:	4603      	mov	r3, r0
  {
    uwTimclock = 2UL * HAL_RCC_GetPCLK1Freq();
  }

  /* Compute the prescaler value to have TIM14 counter clock equal to 1MHz */
  uwPrescalerValue = (uint32_t) ((uwTimclock / 1000000U) - 1U);
 8001b8c:	4a18      	ldr	r2, [pc, #96]	@ (8001bf0 <HAL_InitTick+0x94>)
 8001b8e:	fba2 2303 	umull	r2, r3, r2, r3
 8001b92:	0c9b      	lsrs	r3, r3, #18
 8001b94:	3b01      	subs	r3, #1

  /* Initialize TIM14 */
  htim14.Instance = TIM14;
 8001b96:	4817      	ldr	r0, [pc, #92]	@ (8001bf4 <HAL_InitTick+0x98>)
 8001b98:	4a17      	ldr	r2, [pc, #92]	@ (8001bf8 <HAL_InitTick+0x9c>)
 8001b9a:	6002      	str	r2, [r0, #0]
  + Period = [(TIM14CLK/1000) - 1]. to have a (1/1000) s time base.
  + Prescaler = (uwTimclock/1000000 - 1) to have a 1MHz counter clock.
  + ClockDivision = 0
  + Counter direction = Up
  */
  htim14.Init.Period = (1000000U / 1000U) - 1U;
 8001b9c:	f240 32e7 	movw	r2, #999	@ 0x3e7
 8001ba0:	60c2      	str	r2, [r0, #12]
  htim14.Init.Prescaler = uwPrescalerValue;
 8001ba2:	6043      	str	r3, [r0, #4]
  htim14.Init.ClockDivision = 0;
 8001ba4:	2300      	movs	r3, #0
 8001ba6:	6103      	str	r3, [r0, #16]
  htim14.Init.CounterMode = TIM_COUNTERMODE_UP;
 8001ba8:	6083      	str	r3, [r0, #8]
  htim14.Init.AutoReloadPreload = TIM_AUTORELOAD_PRELOAD_DISABLE;
 8001baa:	6183      	str	r3, [r0, #24]

  status = HAL_TIM_Base_Init(&htim14);
 8001bac:	f001 fa58 	bl	8003060 <HAL_TIM_Base_Init>
  if (status == HAL_OK)
 8001bb0:	4605      	mov	r5, r0
 8001bb2:	b130      	cbz	r0, 8001bc2 <HAL_InitTick+0x66>
    }
  }

 /* Return function status */
  return status;
}
 8001bb4:	4628      	mov	r0, r5
 8001bb6:	b009      	add	sp, #36	@ 0x24
 8001bb8:	bd30      	pop	{r4, r5, pc}
    uwTimclock = 2UL * HAL_RCC_GetPCLK1Freq();
 8001bba:	f001 f87f 	bl	8002cbc <HAL_RCC_GetPCLK1Freq>
 8001bbe:	0043      	lsls	r3, r0, #1
 8001bc0:	e7e4      	b.n	8001b8c <HAL_InitTick+0x30>
    status = HAL_TIM_Base_Start_IT(&htim14);
 8001bc2:	480c      	ldr	r0, [pc, #48]	@ (8001bf4 <HAL_InitTick+0x98>)
 8001bc4:	f001 f8e8 	bl	8002d98 <HAL_TIM_Base_Start_IT>
    if (status == HAL_OK)
 8001bc8:	4605      	mov	r5, r0
 8001bca:	2800      	cmp	r0, #0
 8001bcc:	d1f2      	bne.n	8001bb4 <HAL_InitTick+0x58>
        HAL_NVIC_EnableIRQ(TIM8_TRG_COM_TIM14_IRQn);
 8001bce:	202d      	movs	r0, #45	@ 0x2d
 8001bd0:	f000 f956 	bl	8001e80 <HAL_NVIC_EnableIRQ>
      if (TickPriority < (1UL << __NVIC_PRIO_BITS))
 8001bd4:	2c0f      	cmp	r4, #15
 8001bd6:	d901      	bls.n	8001bdc <HAL_InitTick+0x80>
        status = HAL_ERROR;
 8001bd8:	2501      	movs	r5, #1
 8001bda:	e7eb      	b.n	8001bb4 <HAL_InitTick+0x58>
        HAL_NVIC_SetPriority(TIM8_TRG_COM_TIM14_IRQn, TickPriority, 0U);
 8001bdc:	2200      	movs	r2, #0
 8001bde:	4621      	mov	r1, r4
 8001be0:	202d      	movs	r0, #45	@ 0x2d
 8001be2:	f000 f93d 	bl	8001e60 <HAL_NVIC_SetPriority>
        uwTickPrio = TickPriority;
 8001be6:	4b05      	ldr	r3, [pc, #20]	@ (8001bfc <HAL_InitTick+0xa0>)
 8001be8:	601c      	str	r4, [r3, #0]
 8001bea:	e7e3      	b.n	8001bb4 <HAL_InitTick+0x58>
 8001bec:	40023800 	.word	0x40023800
 8001bf0:	431bde83 	.word	0x431bde83
 8001bf4:	20000660 	.word	0x20000660
 8001bf8:	40002000 	.word	0x40002000
 8001bfc:	20000028 	.word	0x20000028

08001c00 <NMI_Handler>:
{
  /* USER CODE BEGIN NonMaskableInt_IRQn 0 */

  /* USER CODE END NonMaskableInt_IRQn 0 */
  /* USER CODE BEGIN NonMaskableInt_IRQn 1 */
   while (1)
 8001c00:	e7fe      	b.n	8001c00 <NMI_Handler>

08001c02 <HardFault_Handler>:
void HardFault_Handler(void)
{
  /* USER CODE BEGIN HardFault_IRQn 0 */

  /* USER CODE END HardFault_IRQn 0 */
  while (1)
 8001c02:	e7fe      	b.n	8001c02 <HardFault_Handler>

08001c04 <MemManage_Handler>:
void MemManage_Handler(void)
{
  /* USER CODE BEGIN MemoryManagement_IRQn 0 */

  /* USER CODE END MemoryManagement_IRQn 0 */
  while (1)
 8001c04:	e7fe      	b.n	8001c04 <MemManage_Handler>

08001c06 <BusFault_Handler>:
void BusFault_Handler(void)
{
  /* USER CODE BEGIN BusFault_IRQn 0 */

  /* USER CODE END BusFault_IRQn 0 */
  while (1)
 8001c06:	e7fe      	b.n	8001c06 <BusFault_Handler>

08001c08 <UsageFault_Handler>:
void UsageFault_Handler(void)
{
  /* USER CODE BEGIN UsageFault_IRQn 0 */

  /* USER CODE END UsageFault_IRQn 0 */
  while (1)
 8001c08:	e7fe      	b.n	8001c08 <UsageFault_Handler>

08001c0a <DebugMon_Handler>:

  /* USER CODE END DebugMonitor_IRQn 0 */
  /* USER CODE BEGIN DebugMonitor_IRQn 1 */

  /* USER CODE END DebugMonitor_IRQn 1 */
}
 8001c0a:	4770      	bx	lr

08001c0c <DMA1_Stream5_IRQHandler>:

/**
  * @brief This function handles DMA1 stream5 global interrupt.
  */
void DMA1_Stream5_IRQHandler(void)
{
 8001c0c:	b508      	push	{r3, lr}
  /* USER CODE BEGIN DMA1_Stream5_IRQn 0 */

  /* USER CODE END DMA1_Stream5_IRQn 0 */
  HAL_DMA_IRQHandler(&hdma_dac1);
 8001c0e:	4802      	ldr	r0, [pc, #8]	@ (8001c18 <DMA1_Stream5_IRQHandler+0xc>)
 8001c10:	f000 fb46 	bl	80022a0 <HAL_DMA_IRQHandler>
  /* USER CODE BEGIN DMA1_Stream5_IRQn 1 */

  /* USER CODE END DMA1_Stream5_IRQn 1 */
}
 8001c14:	bd08      	pop	{r3, pc}
 8001c16:	bf00      	nop
 8001c18:	200005ec 	.word	0x200005ec

08001c1c <DMA1_Stream6_IRQHandler>:

/**
  * @brief This function handles DMA1 stream6 global interrupt.
  */
void DMA1_Stream6_IRQHandler(void)
{
 8001c1c:	b508      	push	{r3, lr}
  /* USER CODE BEGIN DMA1_Stream6_IRQn 0 */

  /* USER CODE END DMA1_Stream6_IRQn 0 */
  HAL_DMA_IRQHandler(&hdma_dac2);
 8001c1e:	4802      	ldr	r0, [pc, #8]	@ (8001c28 <DMA1_Stream6_IRQHandler+0xc>)
 8001c20:	f000 fb3e 	bl	80022a0 <HAL_DMA_IRQHandler>
  /* USER CODE BEGIN DMA1_Stream6_IRQn 1 */

  /* USER CODE END DMA1_Stream6_IRQn 1 */
}
 8001c24:	bd08      	pop	{r3, pc}
 8001c26:	bf00      	nop
 8001c28:	2000058c 	.word	0x2000058c

08001c2c <TIM4_IRQHandler>:

/**
  * @brief This function handles TIM4 global interrupt.
  */
void TIM4_IRQHandler(void)
{
 8001c2c:	b508      	push	{r3, lr}
  /* USER CODE BEGIN TIM4_IRQn 0 */

  /* USER CODE END TIM4_IRQn 0 */
  HAL_TIM_IRQHandler(&htim4);
 8001c2e:	4802      	ldr	r0, [pc, #8]	@ (8001c38 <TIM4_IRQHandler+0xc>)
 8001c30:	f001 f8fa 	bl	8002e28 <HAL_TIM_IRQHandler>
  /* USER CODE BEGIN TIM4_IRQn 1 */

  /* USER CODE END TIM4_IRQn 1 */
}
 8001c34:	bd08      	pop	{r3, pc}
 8001c36:	bf00      	nop
 8001c38:	20000544 	.word	0x20000544

08001c3c <TIM8_TRG_COM_TIM14_IRQHandler>:

/**
  * @brief This function handles TIM8 trigger and commutation interrupts and TIM14 global interrupt.
  */
void TIM8_TRG_COM_TIM14_IRQHandler(void)
{
 8001c3c:	b508      	push	{r3, lr}
  /* USER CODE BEGIN TIM8_TRG_COM_TIM14_IRQn 0 */
  ++ulHighFrequencyTimerTicks;
 8001c3e:	4a04      	ldr	r2, [pc, #16]	@ (8001c50 <TIM8_TRG_COM_TIM14_IRQHandler+0x14>)
 8001c40:	6813      	ldr	r3, [r2, #0]
 8001c42:	3301      	adds	r3, #1
 8001c44:	6013      	str	r3, [r2, #0]
  /* USER CODE END TIM8_TRG_COM_TIM14_IRQn 0 */
  HAL_TIM_IRQHandler(&htim14);
 8001c46:	4803      	ldr	r0, [pc, #12]	@ (8001c54 <TIM8_TRG_COM_TIM14_IRQHandler+0x18>)
 8001c48:	f001 f8ee 	bl	8002e28 <HAL_TIM_IRQHandler>
  /* USER CODE BEGIN TIM8_TRG_COM_TIM14_IRQn 1 */

  /* USER CODE END TIM8_TRG_COM_TIM14_IRQn 1 */
}
 8001c4c:	bd08      	pop	{r3, pc}
 8001c4e:	bf00      	nop
 8001c50:	20000428 	.word	0x20000428
 8001c54:	20000660 	.word	0x20000660

08001c58 <_getpid>:
}

int _getpid(void)
{
  return 1;
}
 8001c58:	2001      	movs	r0, #1
 8001c5a:	4770      	bx	lr

08001c5c <_kill>:

int _kill(int pid, int sig)
{
 8001c5c:	b508      	push	{r3, lr}
  (void)pid;
  (void)sig;
  errno = EINVAL;
 8001c5e:	f005 f90d 	bl	8006e7c <__errno>
 8001c62:	2316      	movs	r3, #22
 8001c64:	6003      	str	r3, [r0, #0]
  return -1;
}
 8001c66:	f04f 30ff 	mov.w	r0, #4294967295	@ 0xffffffff
 8001c6a:	bd08      	pop	{r3, pc}

08001c6c <_exit>:

void _exit (int status)
{
 8001c6c:	b508      	push	{r3, lr}
  _kill(status, -1);
 8001c6e:	f04f 31ff 	mov.w	r1, #4294967295	@ 0xffffffff
 8001c72:	f7ff fff3 	bl	8001c5c <_kill>
  while (1) {}    /* Make sure we hang here */
 8001c76:	e7fe      	b.n	8001c76 <_exit+0xa>

08001c78 <_read>:
}

__attribute__((weak)) int _read(int file, char *ptr, int len)
{
 8001c78:	b570      	push	{r4, r5, r6, lr}
 8001c7a:	460c      	mov	r4, r1
 8001c7c:	4616      	mov	r6, r2
  (void)file;
  int DataIdx;

  for (DataIdx = 0; DataIdx < len; DataIdx++)
 8001c7e:	2500      	movs	r5, #0
 8001c80:	e006      	b.n	8001c90 <_read+0x18>
  {
    *ptr++ = __io_getchar();
 8001c82:	f3af 8000 	nop.w
 8001c86:	4621      	mov	r1, r4
 8001c88:	f801 0b01 	strb.w	r0, [r1], #1
  for (DataIdx = 0; DataIdx < len; DataIdx++)
 8001c8c:	3501      	adds	r5, #1
    *ptr++ = __io_getchar();
 8001c8e:	460c      	mov	r4, r1
  for (DataIdx = 0; DataIdx < len; DataIdx++)
 8001c90:	42b5      	cmp	r5, r6
 8001c92:	dbf6      	blt.n	8001c82 <_read+0xa>
  }

  return len;
}
 8001c94:	4630      	mov	r0, r6
 8001c96:	bd70      	pop	{r4, r5, r6, pc}

08001c98 <_close>:

int _close(int file)
{
  (void)file;
  return -1;
}
 8001c98:	f04f 30ff 	mov.w	r0, #4294967295	@ 0xffffffff
 8001c9c:	4770      	bx	lr

08001c9e <_fstat>:


int _fstat(int file, struct stat *st)
{
  (void)file;
  st->st_mode = S_IFCHR;
 8001c9e:	f44f 5300 	mov.w	r3, #8192	@ 0x2000
 8001ca2:	604b      	str	r3, [r1, #4]
  return 0;
}
 8001ca4:	2000      	movs	r0, #0
 8001ca6:	4770      	bx	lr

08001ca8 <_isatty>:

int _isatty(int file)
{
  (void)file;
  return 1;
}
 8001ca8:	2001      	movs	r0, #1
 8001caa:	4770      	bx	lr

08001cac <_lseek>:
{
  (void)file;
  (void)ptr;
  (void)dir;
  return 0;
}
 8001cac:	2000      	movs	r0, #0
 8001cae:	4770      	bx	lr

08001cb0 <_sbrk>:
 *
 * @param incr Memory size
 * @return Pointer to allocated memory
 */
void *_sbrk(ptrdiff_t incr)
{
 8001cb0:	b510      	push	{r4, lr}
 8001cb2:	4603      	mov	r3, r0
  extern uint8_t _end; /* Symbol defined in the linker script */
  extern uint8_t _estack; /* Symbol defined in the linker script */
  extern uint32_t _Min_Stack_Size; /* Symbol defined in the linker script */
  const uint32_t stack_limit = (uint32_t)&_estack - (uint32_t)&_Min_Stack_Size;
 8001cb4:	4a0c      	ldr	r2, [pc, #48]	@ (8001ce8 <_sbrk+0x38>)
 8001cb6:	490d      	ldr	r1, [pc, #52]	@ (8001cec <_sbrk+0x3c>)
  const uint8_t *max_heap = (uint8_t *)stack_limit;
  uint8_t *prev_heap_end;

  /* Initialize heap end at first call */
  if (NULL == __sbrk_heap_end)
 8001cb8:	480d      	ldr	r0, [pc, #52]	@ (8001cf0 <_sbrk+0x40>)
 8001cba:	6800      	ldr	r0, [r0, #0]
 8001cbc:	b140      	cbz	r0, 8001cd0 <_sbrk+0x20>
  {
    __sbrk_heap_end = &_end;
  }

  /* Protect heap from growing into the reserved MSP stack */
  if (__sbrk_heap_end + incr > max_heap)
 8001cbe:	480c      	ldr	r0, [pc, #48]	@ (8001cf0 <_sbrk+0x40>)
 8001cc0:	6800      	ldr	r0, [r0, #0]
 8001cc2:	4403      	add	r3, r0
 8001cc4:	1a52      	subs	r2, r2, r1
 8001cc6:	4293      	cmp	r3, r2
 8001cc8:	d806      	bhi.n	8001cd8 <_sbrk+0x28>
    errno = ENOMEM;
    return (void *)-1;
  }

  prev_heap_end = __sbrk_heap_end;
  __sbrk_heap_end += incr;
 8001cca:	4a09      	ldr	r2, [pc, #36]	@ (8001cf0 <_sbrk+0x40>)
 8001ccc:	6013      	str	r3, [r2, #0]

  return (void *)prev_heap_end;
}
 8001cce:	bd10      	pop	{r4, pc}
    __sbrk_heap_end = &_end;
 8001cd0:	4807      	ldr	r0, [pc, #28]	@ (8001cf0 <_sbrk+0x40>)
 8001cd2:	4c08      	ldr	r4, [pc, #32]	@ (8001cf4 <_sbrk+0x44>)
 8001cd4:	6004      	str	r4, [r0, #0]
 8001cd6:	e7f2      	b.n	8001cbe <_sbrk+0xe>
    errno = ENOMEM;
 8001cd8:	f005 f8d0 	bl	8006e7c <__errno>
 8001cdc:	230c      	movs	r3, #12
 8001cde:	6003      	str	r3, [r0, #0]
    return (void *)-1;
 8001ce0:	f04f 30ff 	mov.w	r0, #4294967295	@ 0xffffffff
 8001ce4:	e7f3      	b.n	8001cce <_sbrk+0x1e>
 8001ce6:	bf00      	nop
 8001ce8:	20020000 	.word	0x20020000
 8001cec:	00000400 	.word	0x00000400
 8001cf0:	200006a8 	.word	0x200006a8
 8001cf4:	200015f8 	.word	0x200015f8

08001cf8 <SystemInit>:
  */
void SystemInit(void)
{
  /* FPU settings ------------------------------------------------------------*/
  #if (__FPU_PRESENT == 1) && (__FPU_USED == 1)
    SCB->CPACR |= ((3UL << 10*2)|(3UL << 11*2));  /* set CP10 and CP11 Full Access */
 8001cf8:	4a03      	ldr	r2, [pc, #12]	@ (8001d08 <SystemInit+0x10>)
 8001cfa:	f8d2 3088 	ldr.w	r3, [r2, #136]	@ 0x88
 8001cfe:	f443 0370 	orr.w	r3, r3, #15728640	@ 0xf00000
 8001d02:	f8c2 3088 	str.w	r3, [r2, #136]	@ 0x88

  /* Configure the Vector Table location -------------------------------------*/
#if defined(USER_VECT_TAB_ADDRESS)
  SCB->VTOR = VECT_TAB_BASE_ADDRESS | VECT_TAB_OFFSET; /* Vector Table Relocation in Internal SRAM */
#endif /* USER_VECT_TAB_ADDRESS */
}
 8001d06:	4770      	bx	lr
 8001d08:	e000ed00 	.word	0xe000ed00

08001d0c <Reset_Handler>:

    .section  .text.Reset_Handler
  .weak  Reset_Handler
  .type  Reset_Handler, %function
Reset_Handler:  
  ldr   sp, =_estack     /* set stack pointer */
 8001d0c:	f8df d034 	ldr.w	sp, [pc, #52]	@ 8001d44 <LoopFillZerobss+0xe>
  
/* Call the clock system initialization function.*/
  bl  SystemInit  
 8001d10:	f7ff fff2 	bl	8001cf8 <SystemInit>

/* Copy the data segment initializers from flash to SRAM */  
  ldr r0, =_sdata
 8001d14:	480c      	ldr	r0, [pc, #48]	@ (8001d48 <LoopFillZerobss+0x12>)
  ldr r1, =_edata
 8001d16:	490d      	ldr	r1, [pc, #52]	@ (8001d4c <LoopFillZerobss+0x16>)
  ldr r2, =_sidata
 8001d18:	4a0d      	ldr	r2, [pc, #52]	@ (8001d50 <LoopFillZerobss+0x1a>)
  movs r3, #0
 8001d1a:	2300      	movs	r3, #0
  b LoopCopyDataInit
 8001d1c:	e002      	b.n	8001d24 <LoopCopyDataInit>

08001d1e <CopyDataInit>:

CopyDataInit:
  ldr r4, [r2, r3]
 8001d1e:	58d4      	ldr	r4, [r2, r3]
  str r4, [r0, r3]
 8001d20:	50c4      	str	r4, [r0, r3]
  adds r3, r3, #4
 8001d22:	3304      	adds	r3, #4

08001d24 <LoopCopyDataInit>:

LoopCopyDataInit:
  adds r4, r0, r3
 8001d24:	18c4      	adds	r4, r0, r3
  cmp r4, r1
 8001d26:	428c      	cmp	r4, r1
  bcc CopyDataInit
 8001d28:	d3f9      	bcc.n	8001d1e <CopyDataInit>
  
/* Zero fill the bss segment. */
  ldr r2, =_sbss
 8001d2a:	4a0a      	ldr	r2, [pc, #40]	@ (8001d54 <LoopFillZerobss+0x1e>)
  ldr r4, =_ebss
 8001d2c:	4c0a      	ldr	r4, [pc, #40]	@ (8001d58 <LoopFillZerobss+0x22>)
  movs r3, #0
 8001d2e:	2300      	movs	r3, #0
  b LoopFillZerobss
 8001d30:	e001      	b.n	8001d36 <LoopFillZerobss>

08001d32 <FillZerobss>:

FillZerobss:
  str  r3, [r2]
 8001d32:	6013      	str	r3, [r2, #0]
  adds r2, r2, #4
 8001d34:	3204      	adds	r2, #4

08001d36 <LoopFillZerobss>:

LoopFillZerobss:
  cmp r2, r4
 8001d36:	42a2      	cmp	r2, r4
  bcc FillZerobss
 8001d38:	d3fb      	bcc.n	8001d32 <FillZerobss>
 
/* Call static constructors */
    bl __libc_init_array
 8001d3a:	f005 f8a5 	bl	8006e88 <__libc_init_array>
/* Call the application's entry point.*/
  bl  main
 8001d3e:	f7ff fcf1 	bl	8001724 <main>
  bx  lr    
 8001d42:	4770      	bx	lr
  ldr   sp, =_estack     /* set stack pointer */
 8001d44:	20020000 	.word	0x20020000
  ldr r0, =_sdata
 8001d48:	20000000 	.word	0x20000000
  ldr r1, =_edata
 8001d4c:	200001f8 	.word	0x200001f8
  ldr r2, =_sidata
 8001d50:	08009a78 	.word	0x08009a78
  ldr r2, =_sbss
 8001d54:	200001f8 	.word	0x200001f8
  ldr r4, =_ebss
 8001d58:	200015f4 	.word	0x200015f4

08001d5c <ADC_IRQHandler>:
 * @retval None       
*/
    .section  .text.Default_Handler,"ax",%progbits
Default_Handler:
Infinite_Loop:
  b  Infinite_Loop
 8001d5c:	e7fe      	b.n	8001d5c <ADC_IRQHandler>
	...

08001d60 <HAL_Init>:
  *         need to ensure that the SysTick time base is always set to 1 millisecond
  *         to have correct HAL operation.
  * @retval HAL status
  */
HAL_StatusTypeDef HAL_Init(void)
{
 8001d60:	b508      	push	{r3, lr}
  /* Configure Flash prefetch, Instruction cache, Data cache */ 
#if (INSTRUCTION_CACHE_ENABLE != 0U)
  __HAL_FLASH_INSTRUCTION_CACHE_ENABLE();
 8001d62:	4b0b      	ldr	r3, [pc, #44]	@ (8001d90 <HAL_Init+0x30>)
 8001d64:	681a      	ldr	r2, [r3, #0]
 8001d66:	f442 7200 	orr.w	r2, r2, #512	@ 0x200
 8001d6a:	601a      	str	r2, [r3, #0]
#endif /* INSTRUCTION_CACHE_ENABLE */

#if (DATA_CACHE_ENABLE != 0U)
  __HAL_FLASH_DATA_CACHE_ENABLE();
 8001d6c:	681a      	ldr	r2, [r3, #0]
 8001d6e:	f442 6280 	orr.w	r2, r2, #1024	@ 0x400
 8001d72:	601a      	str	r2, [r3, #0]
#endif /* DATA_CACHE_ENABLE */

#if (PREFETCH_ENABLE != 0U)
  __HAL_FLASH_PREFETCH_BUFFER_ENABLE();
 8001d74:	681a      	ldr	r2, [r3, #0]
 8001d76:	f442 7280 	orr.w	r2, r2, #256	@ 0x100
 8001d7a:	601a      	str	r2, [r3, #0]
#endif /* PREFETCH_ENABLE */

  /* Set Interrupt Group Priority */
  HAL_NVIC_SetPriorityGrouping(NVIC_PRIORITYGROUP_4);
 8001d7c:	2003      	movs	r0, #3
 8001d7e:	f000 f85d 	bl	8001e3c <HAL_NVIC_SetPriorityGrouping>

  /* Use systick as time base source and configure 1ms tick (default clock after Reset is HSI) */
  HAL_InitTick(TICK_INT_PRIORITY);
 8001d82:	200f      	movs	r0, #15
 8001d84:	f7ff feea 	bl	8001b5c <HAL_InitTick>

  /* Init the low level hardware */
  HAL_MspInit();
 8001d88:	f7ff fdca 	bl	8001920 <HAL_MspInit>

  /* Return function status */
  return HAL_OK;
}
 8001d8c:	2000      	movs	r0, #0
 8001d8e:	bd08      	pop	{r3, pc}
 8001d90:	40023c00 	.word	0x40023c00

08001d94 <HAL_IncTick>:
  *      implementations in user file.
  * @retval None
  */
__weak void HAL_IncTick(void)
{
  uwTick += uwTickFreq;
 8001d94:	4a03      	ldr	r2, [pc, #12]	@ (8001da4 <HAL_IncTick+0x10>)
 8001d96:	6811      	ldr	r1, [r2, #0]
 8001d98:	4b03      	ldr	r3, [pc, #12]	@ (8001da8 <HAL_IncTick+0x14>)
 8001d9a:	781b      	ldrb	r3, [r3, #0]
 8001d9c:	440b      	add	r3, r1
 8001d9e:	6013      	str	r3, [r2, #0]
}
 8001da0:	4770      	bx	lr
 8001da2:	bf00      	nop
 8001da4:	200006ac 	.word	0x200006ac
 8001da8:	20000024 	.word	0x20000024

08001dac <HAL_GetTick>:
  *       implementations in user file.
  * @retval tick value
  */
__weak uint32_t HAL_GetTick(void)
{
  return uwTick;
 8001dac:	4b01      	ldr	r3, [pc, #4]	@ (8001db4 <HAL_GetTick+0x8>)
 8001dae:	6818      	ldr	r0, [r3, #0]
}
 8001db0:	4770      	bx	lr
 8001db2:	bf00      	nop
 8001db4:	200006ac 	.word	0x200006ac

08001db8 <__NVIC_EnableIRQ>:
  \param [in]      IRQn  Device specific interrupt number.
  \note    IRQn must not be negative.
 */
__STATIC_INLINE void __NVIC_EnableIRQ(IRQn_Type IRQn)
{
  if ((int32_t)(IRQn) >= 0)
 8001db8:	2800      	cmp	r0, #0
 8001dba:	db07      	blt.n	8001dcc <__NVIC_EnableIRQ+0x14>
  {
    __COMPILER_BARRIER();
    NVIC->ISER[(((uint32_t)IRQn) >> 5UL)] = (uint32_t)(1UL << (((uint32_t)IRQn) & 0x1FUL));
 8001dbc:	f000 021f 	and.w	r2, r0, #31
 8001dc0:	0940      	lsrs	r0, r0, #5
 8001dc2:	2301      	movs	r3, #1
 8001dc4:	4093      	lsls	r3, r2
 8001dc6:	4a02      	ldr	r2, [pc, #8]	@ (8001dd0 <__NVIC_EnableIRQ+0x18>)
 8001dc8:	f842 3020 	str.w	r3, [r2, r0, lsl #2]
    __COMPILER_BARRIER();
  }
}
 8001dcc:	4770      	bx	lr
 8001dce:	bf00      	nop
 8001dd0:	e000e100 	.word	0xe000e100

08001dd4 <__NVIC_SetPriority>:
  \param [in]  priority  Priority to set.
  \note    The priority cannot be set for every processor exception.
 */
__STATIC_INLINE void __NVIC_SetPriority(IRQn_Type IRQn, uint32_t priority)
{
  if ((int32_t)(IRQn) >= 0)
 8001dd4:	2800      	cmp	r0, #0
 8001dd6:	db08      	blt.n	8001dea <__NVIC_SetPriority+0x16>
  {
    NVIC->IP[((uint32_t)IRQn)]               = (uint8_t)((priority << (8U - __NVIC_PRIO_BITS)) & (uint32_t)0xFFUL);
 8001dd8:	0109      	lsls	r1, r1, #4
 8001dda:	b2c9      	uxtb	r1, r1
 8001ddc:	f100 4060 	add.w	r0, r0, #3758096384	@ 0xe0000000
 8001de0:	f500 4061 	add.w	r0, r0, #57600	@ 0xe100
 8001de4:	f880 1300 	strb.w	r1, [r0, #768]	@ 0x300
 8001de8:	4770      	bx	lr
  }
  else
  {
    SCB->SHP[(((uint32_t)IRQn) & 0xFUL)-4UL] = (uint8_t)((priority << (8U - __NVIC_PRIO_BITS)) & (uint32_t)0xFFUL);
 8001dea:	f000 000f 	and.w	r0, r0, #15
 8001dee:	0109      	lsls	r1, r1, #4
 8001df0:	b2c9      	uxtb	r1, r1
 8001df2:	4b01      	ldr	r3, [pc, #4]	@ (8001df8 <__NVIC_SetPriority+0x24>)
 8001df4:	5419      	strb	r1, [r3, r0]
  }
}
 8001df6:	4770      	bx	lr
 8001df8:	e000ed14 	.word	0xe000ed14

08001dfc <NVIC_EncodePriority>:
  \param [in]   PreemptPriority  Preemptive priority value (starting from 0).
  \param [in]       SubPriority  Subpriority value (starting from 0).
  \return                        Encoded priority. Value can be used in the function \ref NVIC_SetPriority().
 */
__STATIC_INLINE uint32_t NVIC_EncodePriority (uint32_t PriorityGroup, uint32_t PreemptPriority, uint32_t SubPriority)
{
 8001dfc:	b500      	push	{lr}
  uint32_t PriorityGroupTmp = (PriorityGroup & (uint32_t)0x07UL);   /* only values 0..7 are used          */
 8001dfe:	f000 0007 	and.w	r0, r0, #7
  uint32_t PreemptPriorityBits;
  uint32_t SubPriorityBits;

  PreemptPriorityBits = ((7UL - PriorityGroupTmp) > (uint32_t)(__NVIC_PRIO_BITS)) ? (uint32_t)(__NVIC_PRIO_BITS) : (uint32_t)(7UL - PriorityGroupTmp);
 8001e02:	f1c0 0c07 	rsb	ip, r0, #7
 8001e06:	f1bc 0f04 	cmp.w	ip, #4
 8001e0a:	bf28      	it	cs
 8001e0c:	f04f 0c04 	movcs.w	ip, #4
  SubPriorityBits     = ((PriorityGroupTmp + (uint32_t)(__NVIC_PRIO_BITS)) < (uint32_t)7UL) ? (uint32_t)0UL : (uint32_t)((PriorityGroupTmp - 7UL) + (uint32_t)(__NVIC_PRIO_BITS));
 8001e10:	1d03      	adds	r3, r0, #4
 8001e12:	2b06      	cmp	r3, #6
 8001e14:	d90f      	bls.n	8001e36 <NVIC_EncodePriority+0x3a>
 8001e16:	1ec3      	subs	r3, r0, #3

  return (
           ((PreemptPriority & (uint32_t)((1UL << (PreemptPriorityBits)) - 1UL)) << SubPriorityBits) |
 8001e18:	f04f 3eff 	mov.w	lr, #4294967295	@ 0xffffffff
 8001e1c:	fa0e f00c 	lsl.w	r0, lr, ip
 8001e20:	ea21 0100 	bic.w	r1, r1, r0
 8001e24:	4099      	lsls	r1, r3
           ((SubPriority     & (uint32_t)((1UL << (SubPriorityBits    )) - 1UL)))
 8001e26:	fa0e fe03 	lsl.w	lr, lr, r3
 8001e2a:	ea22 020e 	bic.w	r2, r2, lr
         );
}
 8001e2e:	ea41 0002 	orr.w	r0, r1, r2
 8001e32:	f85d fb04 	ldr.w	pc, [sp], #4
  SubPriorityBits     = ((PriorityGroupTmp + (uint32_t)(__NVIC_PRIO_BITS)) < (uint32_t)7UL) ? (uint32_t)0UL : (uint32_t)((PriorityGroupTmp - 7UL) + (uint32_t)(__NVIC_PRIO_BITS));
 8001e36:	2300      	movs	r3, #0
 8001e38:	e7ee      	b.n	8001e18 <NVIC_EncodePriority+0x1c>
	...

08001e3c <HAL_NVIC_SetPriorityGrouping>:
  reg_value  =  SCB->AIRCR;                                                   /* read old register configuration    */
 8001e3c:	4a07      	ldr	r2, [pc, #28]	@ (8001e5c <HAL_NVIC_SetPriorityGrouping+0x20>)
 8001e3e:	68d3      	ldr	r3, [r2, #12]
  reg_value &= ~((uint32_t)(SCB_AIRCR_VECTKEY_Msk | SCB_AIRCR_PRIGROUP_Msk)); /* clear bits to change               */
 8001e40:	f423 63e0 	bic.w	r3, r3, #1792	@ 0x700
 8001e44:	041b      	lsls	r3, r3, #16
 8001e46:	0c1b      	lsrs	r3, r3, #16
                (PriorityGroupTmp << SCB_AIRCR_PRIGROUP_Pos)  );              /* Insert write key and priority group */
 8001e48:	0200      	lsls	r0, r0, #8
 8001e4a:	f400 60e0 	and.w	r0, r0, #1792	@ 0x700
                ((uint32_t)0x5FAUL << SCB_AIRCR_VECTKEY_Pos) |
 8001e4e:	4303      	orrs	r3, r0
  reg_value  =  (reg_value                                   |
 8001e50:	f043 63bf 	orr.w	r3, r3, #100139008	@ 0x5f80000
 8001e54:	f443 3300 	orr.w	r3, r3, #131072	@ 0x20000
  SCB->AIRCR =  reg_value;
 8001e58:	60d3      	str	r3, [r2, #12]
  /* Check the parameters */
  assert_param(IS_NVIC_PRIORITY_GROUP(PriorityGroup));
  
  /* Set the PRIGROUP[10:8] bits according to the PriorityGroup parameter value */
  NVIC_SetPriorityGrouping(PriorityGroup);
}
 8001e5a:	4770      	bx	lr
 8001e5c:	e000ed00 	.word	0xe000ed00

08001e60 <HAL_NVIC_SetPriority>:
  *         This parameter can be a value between 0 and 15
  *         A lower priority value indicates a higher priority.          
  * @retval None
  */
void HAL_NVIC_SetPriority(IRQn_Type IRQn, uint32_t PreemptPriority, uint32_t SubPriority)
{ 
 8001e60:	b510      	push	{r4, lr}
 8001e62:	4604      	mov	r4, r0
  return ((uint32_t)((SCB->AIRCR & SCB_AIRCR_PRIGROUP_Msk) >> SCB_AIRCR_PRIGROUP_Pos));
 8001e64:	4b05      	ldr	r3, [pc, #20]	@ (8001e7c <HAL_NVIC_SetPriority+0x1c>)
 8001e66:	68d8      	ldr	r0, [r3, #12]
  assert_param(IS_NVIC_SUB_PRIORITY(SubPriority));
  assert_param(IS_NVIC_PREEMPTION_PRIORITY(PreemptPriority));
  
  prioritygroup = NVIC_GetPriorityGrouping();
  
  NVIC_SetPriority(IRQn, NVIC_EncodePriority(prioritygroup, PreemptPriority, SubPriority));
 8001e68:	f3c0 2002 	ubfx	r0, r0, #8, #3
 8001e6c:	f7ff ffc6 	bl	8001dfc <NVIC_EncodePriority>
 8001e70:	4601      	mov	r1, r0
 8001e72:	4620      	mov	r0, r4
 8001e74:	f7ff ffae 	bl	8001dd4 <__NVIC_SetPriority>
}
 8001e78:	bd10      	pop	{r4, pc}
 8001e7a:	bf00      	nop
 8001e7c:	e000ed00 	.word	0xe000ed00

08001e80 <HAL_NVIC_EnableIRQ>:
  *         This parameter can be an enumerator of IRQn_Type enumeration
  *         (For the complete STM32 Devices IRQ Channels list, please refer to the appropriate CMSIS device file (stm32f4xxxx.h))
  * @retval None
  */
void HAL_NVIC_EnableIRQ(IRQn_Type IRQn)
{
 8001e80:	b508      	push	{r3, lr}
  /* Check the parameters */
  assert_param(IS_NVIC_DEVICE_IRQ(IRQn));
  
  /* Enable interrupt */
  NVIC_EnableIRQ(IRQn);
 8001e82:	f7ff ff99 	bl	8001db8 <__NVIC_EnableIRQ>
}
 8001e86:	bd08      	pop	{r3, pc}

08001e88 <HAL_DAC_Init>:
  * @retval HAL status
  */
HAL_StatusTypeDef HAL_DAC_Init(DAC_HandleTypeDef *hdac)
{
  /* Check the DAC peripheral handle */
  if (hdac == NULL)
 8001e88:	b170      	cbz	r0, 8001ea8 <HAL_DAC_Init+0x20>
{
 8001e8a:	b510      	push	{r4, lr}
 8001e8c:	4604      	mov	r4, r0
    return HAL_ERROR;
  }
  /* Check the parameters */
  assert_param(IS_DAC_ALL_INSTANCE(hdac->Instance));

  if (hdac->State == HAL_DAC_STATE_RESET)
 8001e8e:	7903      	ldrb	r3, [r0, #4]
 8001e90:	b133      	cbz	r3, 8001ea0 <HAL_DAC_Init+0x18>
    HAL_DAC_MspInit(hdac);
#endif /* USE_HAL_DAC_REGISTER_CALLBACKS */
  }

  /* Initialize the DAC state*/
  hdac->State = HAL_DAC_STATE_BUSY;
 8001e92:	2302      	movs	r3, #2
 8001e94:	7123      	strb	r3, [r4, #4]

  /* Set DAC error code to none */
  hdac->ErrorCode = HAL_DAC_ERROR_NONE;
 8001e96:	2000      	movs	r0, #0
 8001e98:	6120      	str	r0, [r4, #16]

  /* Initialize the DAC state*/
  hdac->State = HAL_DAC_STATE_READY;
 8001e9a:	2301      	movs	r3, #1
 8001e9c:	7123      	strb	r3, [r4, #4]

  /* Return function status */
  return HAL_OK;
}
 8001e9e:	bd10      	pop	{r4, pc}
    hdac->Lock = HAL_UNLOCKED;
 8001ea0:	7143      	strb	r3, [r0, #5]
    HAL_DAC_MspInit(hdac);
 8001ea2:	f7ff fd5f 	bl	8001964 <HAL_DAC_MspInit>
 8001ea6:	e7f4      	b.n	8001e92 <HAL_DAC_Init+0xa>
    return HAL_ERROR;
 8001ea8:	2001      	movs	r0, #1
}
 8001eaa:	4770      	bx	lr

08001eac <HAL_DAC_Start_DMA>:
  *            @arg DAC_ALIGN_12B_R: 12bit right data alignment selected
  * @retval HAL status
  */
HAL_StatusTypeDef HAL_DAC_Start_DMA(DAC_HandleTypeDef *hdac, uint32_t Channel, const uint32_t *pData, uint32_t Length,
                                    uint32_t Alignment)
{
 8001eac:	b570      	push	{r4, r5, r6, lr}
 8001eae:	460d      	mov	r5, r1
 8001eb0:	4611      	mov	r1, r2
 8001eb2:	9a04      	ldr	r2, [sp, #16]
  HAL_StatusTypeDef status = HAL_ERROR;
  uint32_t tmpreg;

  /* Check the DAC peripheral handle */
  if (hdac == NULL)
 8001eb4:	2800      	cmp	r0, #0
 8001eb6:	d061      	beq.n	8001f7c <HAL_DAC_Start_DMA+0xd0>
 8001eb8:	4604      	mov	r4, r0
  /* Check the parameters */
  assert_param(IS_DAC_CHANNEL(Channel));
  assert_param(IS_DAC_ALIGN(Alignment));

  /* Process locked */
  __HAL_LOCK(hdac);
 8001eba:	7940      	ldrb	r0, [r0, #5]
 8001ebc:	2801      	cmp	r0, #1
 8001ebe:	d05f      	beq.n	8001f80 <HAL_DAC_Start_DMA+0xd4>
 8001ec0:	2001      	movs	r0, #1
 8001ec2:	7160      	strb	r0, [r4, #5]

  /* Change DAC state */
  hdac->State = HAL_DAC_STATE_BUSY;
 8001ec4:	2002      	movs	r0, #2
 8001ec6:	7120      	strb	r0, [r4, #4]

  if (Channel == DAC_CHANNEL_1)
 8001ec8:	2d00      	cmp	r5, #0
 8001eca:	d12f      	bne.n	8001f2c <HAL_DAC_Start_DMA+0x80>
  {
    /* Set the DMA transfer complete callback for channel1 */
    hdac->DMA_Handle1->XferCpltCallback = DAC_DMAConvCpltCh1;
 8001ecc:	68a0      	ldr	r0, [r4, #8]
 8001ece:	4e2d      	ldr	r6, [pc, #180]	@ (8001f84 <HAL_DAC_Start_DMA+0xd8>)
 8001ed0:	63c6      	str	r6, [r0, #60]	@ 0x3c

    /* Set the DMA half transfer complete callback for channel1 */
    hdac->DMA_Handle1->XferHalfCpltCallback = DAC_DMAHalfConvCpltCh1;
 8001ed2:	68a0      	ldr	r0, [r4, #8]
 8001ed4:	4e2c      	ldr	r6, [pc, #176]	@ (8001f88 <HAL_DAC_Start_DMA+0xdc>)
 8001ed6:	6406      	str	r6, [r0, #64]	@ 0x40

    /* Set the DMA error callback for channel1 */
    hdac->DMA_Handle1->XferErrorCallback = DAC_DMAErrorCh1;
 8001ed8:	68a0      	ldr	r0, [r4, #8]
 8001eda:	4e2c      	ldr	r6, [pc, #176]	@ (8001f8c <HAL_DAC_Start_DMA+0xe0>)
 8001edc:	64c6      	str	r6, [r0, #76]	@ 0x4c

    /* Enable the selected DAC channel1 DMA request */
    SET_BIT(hdac->Instance->CR, DAC_CR_DMAEN1);
 8001ede:	6826      	ldr	r6, [r4, #0]
 8001ee0:	6830      	ldr	r0, [r6, #0]
 8001ee2:	f440 5080 	orr.w	r0, r0, #4096	@ 0x1000
 8001ee6:	6030      	str	r0, [r6, #0]

    /* Case of use of channel 1 */
    switch (Alignment)
 8001ee8:	b122      	cbz	r2, 8001ef4 <HAL_DAC_Start_DMA+0x48>
 8001eea:	2a04      	cmp	r2, #4
 8001eec:	d01b      	beq.n	8001f26 <HAL_DAC_Start_DMA+0x7a>
        /* Get DHR12L1 address */
        tmpreg = (uint32_t)&hdac->Instance->DHR12L1;
        break;
      default: /* case DAC_ALIGN_8B_R */
        /* Get DHR8R1 address */
        tmpreg = (uint32_t)&hdac->Instance->DHR8R1;
 8001eee:	6822      	ldr	r2, [r4, #0]
 8001ef0:	3210      	adds	r2, #16
        break;
 8001ef2:	e001      	b.n	8001ef8 <HAL_DAC_Start_DMA+0x4c>
        tmpreg = (uint32_t)&hdac->Instance->DHR12R1;
 8001ef4:	6822      	ldr	r2, [r4, #0]
 8001ef6:	3208      	adds	r2, #8
        tmpreg = (uint32_t)&hdac->Instance->DHR8R2;
        break;
    }
  }
#endif /* DAC_CHANNEL2_SUPPORT */
  if (Channel == DAC_CHANNEL_1)
 8001ef8:	2d00      	cmp	r5, #0
 8001efa:	d131      	bne.n	8001f60 <HAL_DAC_Start_DMA+0xb4>
  {
    /* Enable the DAC DMA underrun interrupt */
    __HAL_DAC_ENABLE_IT(hdac, DAC_IT_DMAUDR1);
 8001efc:	6826      	ldr	r6, [r4, #0]
 8001efe:	6830      	ldr	r0, [r6, #0]
 8001f00:	f440 5000 	orr.w	r0, r0, #8192	@ 0x2000
 8001f04:	6030      	str	r0, [r6, #0]

    /* Enable the DMA Stream */
    status = HAL_DMA_Start_IT(hdac->DMA_Handle1, (uint32_t)pData, tmpreg, Length);
 8001f06:	68a0      	ldr	r0, [r4, #8]
 8001f08:	f000 f994 	bl	8002234 <HAL_DMA_Start_IT>
    status = HAL_DMA_Start_IT(hdac->DMA_Handle2, (uint32_t)pData, tmpreg, Length);
  }
#endif /* DAC_CHANNEL2_SUPPORT */

  /* Process Unlocked */
  __HAL_UNLOCK(hdac);
 8001f0c:	2300      	movs	r3, #0
 8001f0e:	7163      	strb	r3, [r4, #5]

  if (status == HAL_OK)
 8001f10:	2800      	cmp	r0, #0
 8001f12:	d12e      	bne.n	8001f72 <HAL_DAC_Start_DMA+0xc6>
  {
    /* Enable the Peripheral */
    __HAL_DAC_ENABLE(hdac, Channel);
 8001f14:	6821      	ldr	r1, [r4, #0]
 8001f16:	680b      	ldr	r3, [r1, #0]
 8001f18:	f005 0510 	and.w	r5, r5, #16
 8001f1c:	2201      	movs	r2, #1
 8001f1e:	40aa      	lsls	r2, r5
 8001f20:	4313      	orrs	r3, r2
 8001f22:	600b      	str	r3, [r1, #0]
    hdac->ErrorCode |= HAL_DAC_ERROR_DMA;
  }

  /* Return function status */
  return status;
}
 8001f24:	bd70      	pop	{r4, r5, r6, pc}
        tmpreg = (uint32_t)&hdac->Instance->DHR12L1;
 8001f26:	6822      	ldr	r2, [r4, #0]
 8001f28:	320c      	adds	r2, #12
        break;
 8001f2a:	e7e5      	b.n	8001ef8 <HAL_DAC_Start_DMA+0x4c>
    hdac->DMA_Handle2->XferCpltCallback = DAC_DMAConvCpltCh2;
 8001f2c:	68e0      	ldr	r0, [r4, #12]
 8001f2e:	4e18      	ldr	r6, [pc, #96]	@ (8001f90 <HAL_DAC_Start_DMA+0xe4>)
 8001f30:	63c6      	str	r6, [r0, #60]	@ 0x3c
    hdac->DMA_Handle2->XferHalfCpltCallback = DAC_DMAHalfConvCpltCh2;
 8001f32:	68e0      	ldr	r0, [r4, #12]
 8001f34:	4e17      	ldr	r6, [pc, #92]	@ (8001f94 <HAL_DAC_Start_DMA+0xe8>)
 8001f36:	6406      	str	r6, [r0, #64]	@ 0x40
    hdac->DMA_Handle2->XferErrorCallback = DAC_DMAErrorCh2;
 8001f38:	68e0      	ldr	r0, [r4, #12]
 8001f3a:	4e17      	ldr	r6, [pc, #92]	@ (8001f98 <HAL_DAC_Start_DMA+0xec>)
 8001f3c:	64c6      	str	r6, [r0, #76]	@ 0x4c
    SET_BIT(hdac->Instance->CR, DAC_CR_DMAEN2);
 8001f3e:	6826      	ldr	r6, [r4, #0]
 8001f40:	6830      	ldr	r0, [r6, #0]
 8001f42:	f040 5080 	orr.w	r0, r0, #268435456	@ 0x10000000
 8001f46:	6030      	str	r0, [r6, #0]
    switch (Alignment)
 8001f48:	b122      	cbz	r2, 8001f54 <HAL_DAC_Start_DMA+0xa8>
 8001f4a:	2a04      	cmp	r2, #4
 8001f4c:	d005      	beq.n	8001f5a <HAL_DAC_Start_DMA+0xae>
        tmpreg = (uint32_t)&hdac->Instance->DHR8R2;
 8001f4e:	6822      	ldr	r2, [r4, #0]
 8001f50:	321c      	adds	r2, #28
        break;
 8001f52:	e7d1      	b.n	8001ef8 <HAL_DAC_Start_DMA+0x4c>
        tmpreg = (uint32_t)&hdac->Instance->DHR12R2;
 8001f54:	6822      	ldr	r2, [r4, #0]
 8001f56:	3214      	adds	r2, #20
        break;
 8001f58:	e7ce      	b.n	8001ef8 <HAL_DAC_Start_DMA+0x4c>
        tmpreg = (uint32_t)&hdac->Instance->DHR12L2;
 8001f5a:	6822      	ldr	r2, [r4, #0]
 8001f5c:	3218      	adds	r2, #24
        break;
 8001f5e:	e7cb      	b.n	8001ef8 <HAL_DAC_Start_DMA+0x4c>
    __HAL_DAC_ENABLE_IT(hdac, DAC_IT_DMAUDR2);
 8001f60:	6826      	ldr	r6, [r4, #0]
 8001f62:	6830      	ldr	r0, [r6, #0]
 8001f64:	f040 5000 	orr.w	r0, r0, #536870912	@ 0x20000000
 8001f68:	6030      	str	r0, [r6, #0]
    status = HAL_DMA_Start_IT(hdac->DMA_Handle2, (uint32_t)pData, tmpreg, Length);
 8001f6a:	68e0      	ldr	r0, [r4, #12]
 8001f6c:	f000 f962 	bl	8002234 <HAL_DMA_Start_IT>
 8001f70:	e7cc      	b.n	8001f0c <HAL_DAC_Start_DMA+0x60>
    hdac->ErrorCode |= HAL_DAC_ERROR_DMA;
 8001f72:	6923      	ldr	r3, [r4, #16]
 8001f74:	f043 0304 	orr.w	r3, r3, #4
 8001f78:	6123      	str	r3, [r4, #16]
 8001f7a:	e7d3      	b.n	8001f24 <HAL_DAC_Start_DMA+0x78>
    return HAL_ERROR;
 8001f7c:	2001      	movs	r0, #1
 8001f7e:	e7d1      	b.n	8001f24 <HAL_DAC_Start_DMA+0x78>
  __HAL_LOCK(hdac);
 8001f80:	2002      	movs	r0, #2
 8001f82:	e7cf      	b.n	8001f24 <HAL_DAC_Start_DMA+0x78>
 8001f84:	08001f9d 	.word	0x08001f9d
 8001f88:	08001fad 	.word	0x08001fad
 8001f8c:	08001fb9 	.word	0x08001fb9
 8001f90:	08002035 	.word	0x08002035
 8001f94:	08002045 	.word	0x08002045
 8001f98:	0800204f 	.word	0x0800204f

08001f9c <DAC_DMAConvCpltCh1>:
  * @param  hdma pointer to a DMA_HandleTypeDef structure that contains
  *                the configuration information for the specified DMA module.
  * @retval None
  */
void DAC_DMAConvCpltCh1(DMA_HandleTypeDef *hdma)
{
 8001f9c:	b510      	push	{r4, lr}
  DAC_HandleTypeDef *hdac = (DAC_HandleTypeDef *)((DMA_HandleTypeDef *)hdma)->Parent;
 8001f9e:	6b84      	ldr	r4, [r0, #56]	@ 0x38

#if (USE_HAL_DAC_REGISTER_CALLBACKS == 1)
  hdac->ConvCpltCallbackCh1(hdac);
#else
  HAL_DAC_ConvCpltCallbackCh1(hdac);
 8001fa0:	4620      	mov	r0, r4
 8001fa2:	f7ff fa31 	bl	8001408 <HAL_DAC_ConvCpltCallbackCh1>
#endif /* USE_HAL_DAC_REGISTER_CALLBACKS */

  hdac->State = HAL_DAC_STATE_READY;
 8001fa6:	2301      	movs	r3, #1
 8001fa8:	7123      	strb	r3, [r4, #4]
}
 8001faa:	bd10      	pop	{r4, pc}

08001fac <DAC_DMAHalfConvCpltCh1>:
  * @param  hdma pointer to a DMA_HandleTypeDef structure that contains
  *                the configuration information for the specified DMA module.
  * @retval None
  */
void DAC_DMAHalfConvCpltCh1(DMA_HandleTypeDef *hdma)
{
 8001fac:	b508      	push	{r3, lr}
  DAC_HandleTypeDef *hdac = (DAC_HandleTypeDef *)((DMA_HandleTypeDef *)hdma)->Parent;
  /* Conversion complete callback */
#if (USE_HAL_DAC_REGISTER_CALLBACKS == 1)
  hdac->ConvHalfCpltCallbackCh1(hdac);
#else
  HAL_DAC_ConvHalfCpltCallbackCh1(hdac);
 8001fae:	6b80      	ldr	r0, [r0, #56]	@ 0x38
 8001fb0:	f7ff fa0e 	bl	80013d0 <HAL_DAC_ConvHalfCpltCallbackCh1>
#endif  /* USE_HAL_DAC_REGISTER_CALLBACKS */
}
 8001fb4:	bd08      	pop	{r3, pc}

08001fb6 <HAL_DAC_ErrorCallbackCh1>:
}
 8001fb6:	4770      	bx	lr

08001fb8 <DAC_DMAErrorCh1>:
  * @param  hdma pointer to a DMA_HandleTypeDef structure that contains
  *                the configuration information for the specified DMA module.
  * @retval None
  */
void DAC_DMAErrorCh1(DMA_HandleTypeDef *hdma)
{
 8001fb8:	b510      	push	{r4, lr}
  DAC_HandleTypeDef *hdac = (DAC_HandleTypeDef *)((DMA_HandleTypeDef *)hdma)->Parent;
 8001fba:	6b84      	ldr	r4, [r0, #56]	@ 0x38

  /* Set DAC error code to DMA error */
  hdac->ErrorCode |= HAL_DAC_ERROR_DMA;
 8001fbc:	6923      	ldr	r3, [r4, #16]
 8001fbe:	f043 0304 	orr.w	r3, r3, #4
 8001fc2:	6123      	str	r3, [r4, #16]

#if (USE_HAL_DAC_REGISTER_CALLBACKS == 1)
  hdac->ErrorCallbackCh1(hdac);
#else
  HAL_DAC_ErrorCallbackCh1(hdac);
 8001fc4:	4620      	mov	r0, r4
 8001fc6:	f7ff fff6 	bl	8001fb6 <HAL_DAC_ErrorCallbackCh1>
#endif /* USE_HAL_DAC_REGISTER_CALLBACKS */

  hdac->State = HAL_DAC_STATE_READY;
 8001fca:	2301      	movs	r3, #1
 8001fcc:	7123      	strb	r3, [r4, #4]
}
 8001fce:	bd10      	pop	{r4, pc}

08001fd0 <HAL_DAC_ConfigChannel>:
  if ((hdac == NULL) || (sConfig == NULL))
 8001fd0:	b348      	cbz	r0, 8002026 <HAL_DAC_ConfigChannel+0x56>
 8001fd2:	4684      	mov	ip, r0
 8001fd4:	b349      	cbz	r1, 800202a <HAL_DAC_ConfigChannel+0x5a>
  __HAL_LOCK(hdac);
 8001fd6:	7943      	ldrb	r3, [r0, #5]
 8001fd8:	2b01      	cmp	r3, #1
 8001fda:	d028      	beq.n	800202e <HAL_DAC_ConfigChannel+0x5e>
{
 8001fdc:	b510      	push	{r4, lr}
  __HAL_LOCK(hdac);
 8001fde:	f04f 0e01 	mov.w	lr, #1
 8001fe2:	f880 e005 	strb.w	lr, [r0, #5]
  hdac->State = HAL_DAC_STATE_BUSY;
 8001fe6:	2302      	movs	r3, #2
 8001fe8:	7103      	strb	r3, [r0, #4]
  tmpreg1 = hdac->Instance->CR;
 8001fea:	6804      	ldr	r4, [r0, #0]
 8001fec:	6820      	ldr	r0, [r4, #0]
               << (Channel & 0x10UL));
 8001fee:	f002 0210 	and.w	r2, r2, #16
 8001ff2:	f640 73fe 	movw	r3, #4094	@ 0xffe
 8001ff6:	4093      	lsls	r3, r2
  tmpreg1 &= ~(((uint32_t)(DAC_CR_MAMP1 | DAC_CR_WAVE1 | DAC_CR_TSEL1 | DAC_CR_TEN1 | DAC_CR_BOFF1))
 8001ff8:	ea20 0003 	bic.w	r0, r0, r3
  tmpreg2 = (sConfig->DAC_Trigger | sConfig->DAC_OutputBuffer);
 8001ffc:	680b      	ldr	r3, [r1, #0]
 8001ffe:	6849      	ldr	r1, [r1, #4]
 8002000:	430b      	orrs	r3, r1
  tmpreg1 |= tmpreg2 << (Channel & 0x10UL);
 8002002:	4093      	lsls	r3, r2
 8002004:	4303      	orrs	r3, r0
  hdac->Instance->CR = tmpreg1;
 8002006:	6023      	str	r3, [r4, #0]
  CLEAR_BIT(hdac->Instance->CR, (DAC_CR_WAVE1 << (Channel & 0x10UL)));
 8002008:	f8dc 0000 	ldr.w	r0, [ip]
 800200c:	6803      	ldr	r3, [r0, #0]
 800200e:	21c0      	movs	r1, #192	@ 0xc0
 8002010:	fa01 f202 	lsl.w	r2, r1, r2
 8002014:	ea23 0302 	bic.w	r3, r3, r2
 8002018:	6003      	str	r3, [r0, #0]
  hdac->State = HAL_DAC_STATE_READY;
 800201a:	f88c e004 	strb.w	lr, [ip, #4]
  __HAL_UNLOCK(hdac);
 800201e:	2000      	movs	r0, #0
 8002020:	f88c 0005 	strb.w	r0, [ip, #5]
}
 8002024:	bd10      	pop	{r4, pc}
    return HAL_ERROR;
 8002026:	2001      	movs	r0, #1
 8002028:	4770      	bx	lr
 800202a:	2001      	movs	r0, #1
 800202c:	4770      	bx	lr
  __HAL_LOCK(hdac);
 800202e:	2002      	movs	r0, #2
}
 8002030:	4770      	bx	lr

08002032 <HAL_DACEx_ErrorCallbackCh2>:
  UNUSED(hdac);

  /* NOTE : This function should not be modified, when the callback is needed,
            the HAL_DACEx_ErrorCallbackCh2 could be implemented in the user file
   */
}
 8002032:	4770      	bx	lr

08002034 <DAC_DMAConvCpltCh2>:
  * @param  hdma pointer to a DMA_HandleTypeDef structure that contains
  *                the configuration information for the specified DMA module.
  * @retval None
  */
void DAC_DMAConvCpltCh2(DMA_HandleTypeDef *hdma)
{
 8002034:	b510      	push	{r4, lr}
  DAC_HandleTypeDef *hdac = (DAC_HandleTypeDef *)((DMA_HandleTypeDef *)hdma)->Parent;
 8002036:	6b84      	ldr	r4, [r0, #56]	@ 0x38

#if (USE_HAL_DAC_REGISTER_CALLBACKS == 1)
  hdac->ConvCpltCallbackCh2(hdac);
#else
  HAL_DACEx_ConvCpltCallbackCh2(hdac);
 8002038:	4620      	mov	r0, r4
 800203a:	f7ff fa1f 	bl	800147c <HAL_DACEx_ConvCpltCallbackCh2>
#endif /* USE_HAL_DAC_REGISTER_CALLBACKS */

  hdac->State = HAL_DAC_STATE_READY;
 800203e:	2301      	movs	r3, #1
 8002040:	7123      	strb	r3, [r4, #4]
}
 8002042:	bd10      	pop	{r4, pc}

08002044 <DAC_DMAHalfConvCpltCh2>:
  * @param  hdma pointer to a DMA_HandleTypeDef structure that contains
  *                the configuration information for the specified DMA module.
  * @retval None
  */
void DAC_DMAHalfConvCpltCh2(DMA_HandleTypeDef *hdma)
{
 8002044:	b508      	push	{r3, lr}
  DAC_HandleTypeDef *hdac = (DAC_HandleTypeDef *)((DMA_HandleTypeDef *)hdma)->Parent;
  /* Conversion complete callback */
#if (USE_HAL_DAC_REGISTER_CALLBACKS == 1)
  hdac->ConvHalfCpltCallbackCh2(hdac);
#else
  HAL_DACEx_ConvHalfCpltCallbackCh2(hdac);
 8002046:	6b80      	ldr	r0, [r0, #56]	@ 0x38
 8002048:	f7ff f9fa 	bl	8001440 <HAL_DACEx_ConvHalfCpltCallbackCh2>
#endif /* USE_HAL_DAC_REGISTER_CALLBACKS */
}
 800204c:	bd08      	pop	{r3, pc}

0800204e <DAC_DMAErrorCh2>:
  * @param  hdma pointer to a DMA_HandleTypeDef structure that contains
  *                the configuration information for the specified DMA module.
  * @retval None
  */
void DAC_DMAErrorCh2(DMA_HandleTypeDef *hdma)
{
 800204e:	b510      	push	{r4, lr}
  DAC_HandleTypeDef *hdac = (DAC_HandleTypeDef *)((DMA_HandleTypeDef *)hdma)->Parent;
 8002050:	6b84      	ldr	r4, [r0, #56]	@ 0x38

  /* Set DAC error code to DMA error */
  hdac->ErrorCode |= HAL_DAC_ERROR_DMA;
 8002052:	6923      	ldr	r3, [r4, #16]
 8002054:	f043 0304 	orr.w	r3, r3, #4
 8002058:	6123      	str	r3, [r4, #16]

#if (USE_HAL_DAC_REGISTER_CALLBACKS == 1)
  hdac->ErrorCallbackCh2(hdac);
#else
  HAL_DACEx_ErrorCallbackCh2(hdac);
 800205a:	4620      	mov	r0, r4
 800205c:	f7ff ffe9 	bl	8002032 <HAL_DACEx_ErrorCallbackCh2>
#endif /* USE_HAL_DAC_REGISTER_CALLBACKS */

  hdac->State = HAL_DAC_STATE_READY;
 8002060:	2301      	movs	r3, #1
 8002062:	7123      	strb	r3, [r4, #4]
}
 8002064:	bd10      	pop	{r4, pc}

08002066 <DMA_SetConfig>:
  * @param  DstAddress The destination memory Buffer address
  * @param  DataLength The length of data to be transferred from source to destination
  * @retval HAL status
  */
static void DMA_SetConfig(DMA_HandleTypeDef *hdma, uint32_t SrcAddress, uint32_t DstAddress, uint32_t DataLength)
{
 8002066:	b430      	push	{r4, r5}
  /* Clear DBM bit */
  hdma->Instance->CR &= (uint32_t)(~DMA_SxCR_DBM);
 8002068:	6805      	ldr	r5, [r0, #0]
 800206a:	682c      	ldr	r4, [r5, #0]
 800206c:	f424 2480 	bic.w	r4, r4, #262144	@ 0x40000
 8002070:	602c      	str	r4, [r5, #0]

  /* Configure DMA Stream data length */
  hdma->Instance->NDTR = DataLength;
 8002072:	6804      	ldr	r4, [r0, #0]
 8002074:	6063      	str	r3, [r4, #4]

  /* Memory to Peripheral */
  if((hdma->Init.Direction) == DMA_MEMORY_TO_PERIPH)
 8002076:	6883      	ldr	r3, [r0, #8]
 8002078:	2b40      	cmp	r3, #64	@ 0x40
 800207a:	d005      	beq.n	8002088 <DMA_SetConfig+0x22>
  }
  /* Peripheral to Memory */
  else
  {
    /* Configure DMA Stream source address */
    hdma->Instance->PAR = SrcAddress;
 800207c:	6803      	ldr	r3, [r0, #0]
 800207e:	6099      	str	r1, [r3, #8]

    /* Configure DMA Stream destination address */
    hdma->Instance->M0AR = DstAddress;
 8002080:	6803      	ldr	r3, [r0, #0]
 8002082:	60da      	str	r2, [r3, #12]
  }
}
 8002084:	bc30      	pop	{r4, r5}
 8002086:	4770      	bx	lr
    hdma->Instance->PAR = DstAddress;
 8002088:	6803      	ldr	r3, [r0, #0]
 800208a:	609a      	str	r2, [r3, #8]
    hdma->Instance->M0AR = SrcAddress;
 800208c:	6803      	ldr	r3, [r0, #0]
 800208e:	60d9      	str	r1, [r3, #12]
 8002090:	e7f8      	b.n	8002084 <DMA_SetConfig+0x1e>
	...

08002094 <DMA_CalcBaseAndBitshift>:
  * @param  hdma       pointer to a DMA_HandleTypeDef structure that contains
  *                     the configuration information for the specified DMA Stream. 
  * @retval Stream base address
  */
static uint32_t DMA_CalcBaseAndBitshift(DMA_HandleTypeDef *hdma)
{
 8002094:	b410      	push	{r4}
  uint32_t stream_number = (((uint32_t)hdma->Instance & 0xFFU) - 16U) / 24U;
 8002096:	6803      	ldr	r3, [r0, #0]
 8002098:	b2d9      	uxtb	r1, r3
 800209a:	3910      	subs	r1, #16
 800209c:	4a0c      	ldr	r2, [pc, #48]	@ (80020d0 <DMA_CalcBaseAndBitshift+0x3c>)
 800209e:	fba2 4201 	umull	r4, r2, r2, r1
 80020a2:	0912      	lsrs	r2, r2, #4
  
  /* lookup table for necessary bitshift of flags within status registers */
  static const uint8_t flagBitshiftOffset[8U] = {0U, 6U, 16U, 22U, 0U, 6U, 16U, 22U};
  hdma->StreamIndex = flagBitshiftOffset[stream_number];
 80020a4:	4c0b      	ldr	r4, [pc, #44]	@ (80020d4 <DMA_CalcBaseAndBitshift+0x40>)
 80020a6:	5ca2      	ldrb	r2, [r4, r2]
 80020a8:	65c2      	str	r2, [r0, #92]	@ 0x5c
  
  if (stream_number > 3U)
 80020aa:	295f      	cmp	r1, #95	@ 0x5f
 80020ac:	d909      	bls.n	80020c2 <DMA_CalcBaseAndBitshift+0x2e>
  {
    /* return pointer to HISR and HIFCR */
    hdma->StreamBaseAddress = (((uint32_t)hdma->Instance & (uint32_t)(~0x3FFU)) + 4U);
 80020ae:	f423 737f 	bic.w	r3, r3, #1020	@ 0x3fc
 80020b2:	f023 0303 	bic.w	r3, r3, #3
 80020b6:	3304      	adds	r3, #4
 80020b8:	6583      	str	r3, [r0, #88]	@ 0x58
    /* return pointer to LISR and LIFCR */
    hdma->StreamBaseAddress = ((uint32_t)hdma->Instance & (uint32_t)(~0x3FFU));
  }
  
  return hdma->StreamBaseAddress;
}
 80020ba:	6d80      	ldr	r0, [r0, #88]	@ 0x58
 80020bc:	f85d 4b04 	ldr.w	r4, [sp], #4
 80020c0:	4770      	bx	lr
    hdma->StreamBaseAddress = ((uint32_t)hdma->Instance & (uint32_t)(~0x3FFU));
 80020c2:	f423 737f 	bic.w	r3, r3, #1020	@ 0x3fc
 80020c6:	f023 0303 	bic.w	r3, r3, #3
 80020ca:	6583      	str	r3, [r0, #88]	@ 0x58
 80020cc:	e7f5      	b.n	80020ba <DMA_CalcBaseAndBitshift+0x26>
 80020ce:	bf00      	nop
 80020d0:	aaaaaaab 	.word	0xaaaaaaab
 80020d4:	08008ed0 	.word	0x08008ed0

080020d8 <DMA_CheckFifoParam>:
  * @retval HAL status
  */
static HAL_StatusTypeDef DMA_CheckFifoParam(DMA_HandleTypeDef *hdma)
{
  HAL_StatusTypeDef status = HAL_OK;
  uint32_t tmp = hdma->Init.FIFOThreshold;
 80020d8:	6a83      	ldr	r3, [r0, #40]	@ 0x28
  
  /* Memory Data size equal to Byte */
  if(hdma->Init.MemDataAlignment == DMA_MDATAALIGN_BYTE)
 80020da:	6982      	ldr	r2, [r0, #24]
 80020dc:	b992      	cbnz	r2, 8002104 <DMA_CheckFifoParam+0x2c>
  {
    switch (tmp)
 80020de:	2b01      	cmp	r3, #1
 80020e0:	d00a      	beq.n	80020f8 <DMA_CheckFifoParam+0x20>
 80020e2:	2b02      	cmp	r3, #2
 80020e4:	d002      	beq.n	80020ec <DMA_CheckFifoParam+0x14>
 80020e6:	b10b      	cbz	r3, 80020ec <DMA_CheckFifoParam+0x14>
 80020e8:	2000      	movs	r0, #0
 80020ea:	4770      	bx	lr
    {
    case DMA_FIFO_THRESHOLD_1QUARTERFULL:
    case DMA_FIFO_THRESHOLD_3QUARTERSFULL:
      if ((hdma->Init.MemBurst & DMA_SxCR_MBURST_1) == DMA_SxCR_MBURST_1)
 80020ec:	6ac3      	ldr	r3, [r0, #44]	@ 0x2c
 80020ee:	f013 7f80 	tst.w	r3, #16777216	@ 0x1000000
 80020f2:	d128      	bne.n	8002146 <DMA_CheckFifoParam+0x6e>
  HAL_StatusTypeDef status = HAL_OK;
 80020f4:	2000      	movs	r0, #0
 80020f6:	4770      	bx	lr
      {
        status = HAL_ERROR;
      }
      break;
    case DMA_FIFO_THRESHOLD_HALFFULL:
      if (hdma->Init.MemBurst == DMA_MBURST_INC16)
 80020f8:	6ac3      	ldr	r3, [r0, #44]	@ 0x2c
 80020fa:	f1b3 7fc0 	cmp.w	r3, #25165824	@ 0x1800000
 80020fe:	d024      	beq.n	800214a <DMA_CheckFifoParam+0x72>
  HAL_StatusTypeDef status = HAL_OK;
 8002100:	2000      	movs	r0, #0
 8002102:	4770      	bx	lr
      break;
    }
  }
  
  /* Memory Data size equal to Half-Word */
  else if (hdma->Init.MemDataAlignment == DMA_MDATAALIGN_HALFWORD)
 8002104:	f5b2 5f00 	cmp.w	r2, #8192	@ 0x2000
 8002108:	d009      	beq.n	800211e <DMA_CheckFifoParam+0x46>
  }
  
  /* Memory Data size equal to Word */
  else
  {
    switch (tmp)
 800210a:	2b02      	cmp	r3, #2
 800210c:	d925      	bls.n	800215a <DMA_CheckFifoParam+0x82>
 800210e:	2b03      	cmp	r3, #3
 8002110:	d125      	bne.n	800215e <DMA_CheckFifoParam+0x86>
    case DMA_FIFO_THRESHOLD_HALFFULL:
    case DMA_FIFO_THRESHOLD_3QUARTERSFULL:
      status = HAL_ERROR;
      break;
    case DMA_FIFO_THRESHOLD_FULL:
      if ((hdma->Init.MemBurst & DMA_SxCR_MBURST_1) == DMA_SxCR_MBURST_1)
 8002112:	6ac3      	ldr	r3, [r0, #44]	@ 0x2c
 8002114:	f013 7f80 	tst.w	r3, #16777216	@ 0x1000000
 8002118:	d123      	bne.n	8002162 <DMA_CheckFifoParam+0x8a>
  HAL_StatusTypeDef status = HAL_OK;
 800211a:	2000      	movs	r0, #0
 800211c:	4770      	bx	lr
    switch (tmp)
 800211e:	2b03      	cmp	r3, #3
 8002120:	d803      	bhi.n	800212a <DMA_CheckFifoParam+0x52>
 8002122:	e8df f003 	tbb	[pc, r3]
 8002126:	0414      	.short	0x0414
 8002128:	0a14      	.short	0x0a14
 800212a:	2000      	movs	r0, #0
 800212c:	4770      	bx	lr
      if ((hdma->Init.MemBurst & DMA_SxCR_MBURST_1) == DMA_SxCR_MBURST_1)
 800212e:	6ac3      	ldr	r3, [r0, #44]	@ 0x2c
 8002130:	f013 7f80 	tst.w	r3, #16777216	@ 0x1000000
 8002134:	d10d      	bne.n	8002152 <DMA_CheckFifoParam+0x7a>
  HAL_StatusTypeDef status = HAL_OK;
 8002136:	2000      	movs	r0, #0
 8002138:	4770      	bx	lr
      if (hdma->Init.MemBurst == DMA_MBURST_INC16)
 800213a:	6ac3      	ldr	r3, [r0, #44]	@ 0x2c
 800213c:	f1b3 7fc0 	cmp.w	r3, #25165824	@ 0x1800000
 8002140:	d009      	beq.n	8002156 <DMA_CheckFifoParam+0x7e>
  HAL_StatusTypeDef status = HAL_OK;
 8002142:	2000      	movs	r0, #0
 8002144:	4770      	bx	lr
        status = HAL_ERROR;
 8002146:	2001      	movs	r0, #1
 8002148:	4770      	bx	lr
        status = HAL_ERROR;
 800214a:	2001      	movs	r0, #1
 800214c:	4770      	bx	lr
      status = HAL_ERROR;
 800214e:	2001      	movs	r0, #1
 8002150:	4770      	bx	lr
        status = HAL_ERROR;
 8002152:	2001      	movs	r0, #1
 8002154:	4770      	bx	lr
        status = HAL_ERROR;
 8002156:	2001      	movs	r0, #1
 8002158:	4770      	bx	lr
      status = HAL_ERROR;
 800215a:	2001      	movs	r0, #1
 800215c:	4770      	bx	lr
    switch (tmp)
 800215e:	2000      	movs	r0, #0
 8002160:	4770      	bx	lr
      {
        status = HAL_ERROR;
 8002162:	2001      	movs	r0, #1
      break;
    }
  } 
  
  return status; 
}
 8002164:	4770      	bx	lr
	...

08002168 <HAL_DMA_Init>:
{
 8002168:	b570      	push	{r4, r5, r6, lr}
 800216a:	4604      	mov	r4, r0
  uint32_t tickstart = HAL_GetTick();
 800216c:	f7ff fe1e 	bl	8001dac <HAL_GetTick>
  if(hdma == NULL)
 8002170:	2c00      	cmp	r4, #0
 8002172:	d05b      	beq.n	800222c <HAL_DMA_Init+0xc4>
 8002174:	4605      	mov	r5, r0
  hdma->State = HAL_DMA_STATE_BUSY;
 8002176:	2302      	movs	r3, #2
 8002178:	f884 3035 	strb.w	r3, [r4, #53]	@ 0x35
  __HAL_UNLOCK(hdma);
 800217c:	2300      	movs	r3, #0
 800217e:	f884 3034 	strb.w	r3, [r4, #52]	@ 0x34
  __HAL_DMA_DISABLE(hdma);
 8002182:	6822      	ldr	r2, [r4, #0]
 8002184:	6813      	ldr	r3, [r2, #0]
 8002186:	f023 0301 	bic.w	r3, r3, #1
 800218a:	6013      	str	r3, [r2, #0]
  while((hdma->Instance->CR & DMA_SxCR_EN) != RESET)
 800218c:	6823      	ldr	r3, [r4, #0]
 800218e:	681a      	ldr	r2, [r3, #0]
 8002190:	f012 0f01 	tst.w	r2, #1
 8002194:	d00a      	beq.n	80021ac <HAL_DMA_Init+0x44>
    if((HAL_GetTick() - tickstart ) > HAL_TIMEOUT_DMA_ABORT)
 8002196:	f7ff fe09 	bl	8001dac <HAL_GetTick>
 800219a:	1b43      	subs	r3, r0, r5
 800219c:	2b05      	cmp	r3, #5
 800219e:	d9f5      	bls.n	800218c <HAL_DMA_Init+0x24>
      hdma->ErrorCode = HAL_DMA_ERROR_TIMEOUT;
 80021a0:	2320      	movs	r3, #32
 80021a2:	6563      	str	r3, [r4, #84]	@ 0x54
      hdma->State = HAL_DMA_STATE_TIMEOUT;
 80021a4:	2003      	movs	r0, #3
 80021a6:	f884 0035 	strb.w	r0, [r4, #53]	@ 0x35
}
 80021aa:	bd70      	pop	{r4, r5, r6, pc}
  tmp = hdma->Instance->CR;
 80021ac:	681a      	ldr	r2, [r3, #0]
  tmp &= ((uint32_t)~(DMA_SxCR_CHSEL | DMA_SxCR_MBURST | DMA_SxCR_PBURST | \
 80021ae:	4920      	ldr	r1, [pc, #128]	@ (8002230 <HAL_DMA_Init+0xc8>)
 80021b0:	4011      	ands	r1, r2
  tmp |=  hdma->Init.Channel             | hdma->Init.Direction        |
 80021b2:	6862      	ldr	r2, [r4, #4]
 80021b4:	68a0      	ldr	r0, [r4, #8]
 80021b6:	4302      	orrs	r2, r0
          hdma->Init.PeriphInc           | hdma->Init.MemInc           |
 80021b8:	68e0      	ldr	r0, [r4, #12]
  tmp |=  hdma->Init.Channel             | hdma->Init.Direction        |
 80021ba:	4302      	orrs	r2, r0
          hdma->Init.PeriphInc           | hdma->Init.MemInc           |
 80021bc:	6920      	ldr	r0, [r4, #16]
 80021be:	4302      	orrs	r2, r0
          hdma->Init.PeriphDataAlignment | hdma->Init.MemDataAlignment |
 80021c0:	6960      	ldr	r0, [r4, #20]
          hdma->Init.PeriphInc           | hdma->Init.MemInc           |
 80021c2:	4302      	orrs	r2, r0
          hdma->Init.PeriphDataAlignment | hdma->Init.MemDataAlignment |
 80021c4:	69a0      	ldr	r0, [r4, #24]
 80021c6:	4302      	orrs	r2, r0
          hdma->Init.Mode                | hdma->Init.Priority;
 80021c8:	69e0      	ldr	r0, [r4, #28]
          hdma->Init.PeriphDataAlignment | hdma->Init.MemDataAlignment |
 80021ca:	4302      	orrs	r2, r0
          hdma->Init.Mode                | hdma->Init.Priority;
 80021cc:	6a20      	ldr	r0, [r4, #32]
 80021ce:	4302      	orrs	r2, r0
  tmp |=  hdma->Init.Channel             | hdma->Init.Direction        |
 80021d0:	430a      	orrs	r2, r1
  if(hdma->Init.FIFOMode == DMA_FIFOMODE_ENABLE)
 80021d2:	6a61      	ldr	r1, [r4, #36]	@ 0x24
 80021d4:	2904      	cmp	r1, #4
 80021d6:	d01e      	beq.n	8002216 <HAL_DMA_Init+0xae>
  hdma->Instance->CR = tmp;  
 80021d8:	601a      	str	r2, [r3, #0]
  tmp = hdma->Instance->FCR;
 80021da:	6826      	ldr	r6, [r4, #0]
 80021dc:	6975      	ldr	r5, [r6, #20]
  tmp &= (uint32_t)~(DMA_SxFCR_DMDIS | DMA_SxFCR_FTH);
 80021de:	f025 0507 	bic.w	r5, r5, #7
  tmp |= hdma->Init.FIFOMode;
 80021e2:	6a63      	ldr	r3, [r4, #36]	@ 0x24
 80021e4:	431d      	orrs	r5, r3
  if(hdma->Init.FIFOMode == DMA_FIFOMODE_ENABLE)
 80021e6:	2b04      	cmp	r3, #4
 80021e8:	d107      	bne.n	80021fa <HAL_DMA_Init+0x92>
    tmp |= hdma->Init.FIFOThreshold;
 80021ea:	6aa3      	ldr	r3, [r4, #40]	@ 0x28
 80021ec:	431d      	orrs	r5, r3
    if (hdma->Init.MemBurst != DMA_MBURST_SINGLE)
 80021ee:	6ae3      	ldr	r3, [r4, #44]	@ 0x2c
 80021f0:	b11b      	cbz	r3, 80021fa <HAL_DMA_Init+0x92>
      if (DMA_CheckFifoParam(hdma) != HAL_OK)
 80021f2:	4620      	mov	r0, r4
 80021f4:	f7ff ff70 	bl	80020d8 <DMA_CheckFifoParam>
 80021f8:	b990      	cbnz	r0, 8002220 <HAL_DMA_Init+0xb8>
  hdma->Instance->FCR = tmp;
 80021fa:	6175      	str	r5, [r6, #20]
  regs = (DMA_Base_Registers *)DMA_CalcBaseAndBitshift(hdma);
 80021fc:	4620      	mov	r0, r4
 80021fe:	f7ff ff49 	bl	8002094 <DMA_CalcBaseAndBitshift>
  regs->IFCR = 0x3FU << hdma->StreamIndex;
 8002202:	6de2      	ldr	r2, [r4, #92]	@ 0x5c
 8002204:	233f      	movs	r3, #63	@ 0x3f
 8002206:	4093      	lsls	r3, r2
 8002208:	6083      	str	r3, [r0, #8]
  hdma->ErrorCode = HAL_DMA_ERROR_NONE;
 800220a:	2000      	movs	r0, #0
 800220c:	6560      	str	r0, [r4, #84]	@ 0x54
  hdma->State = HAL_DMA_STATE_READY;
 800220e:	2301      	movs	r3, #1
 8002210:	f884 3035 	strb.w	r3, [r4, #53]	@ 0x35
  return HAL_OK;
 8002214:	e7c9      	b.n	80021aa <HAL_DMA_Init+0x42>
    tmp |=  hdma->Init.MemBurst | hdma->Init.PeriphBurst;
 8002216:	6ae1      	ldr	r1, [r4, #44]	@ 0x2c
 8002218:	6b20      	ldr	r0, [r4, #48]	@ 0x30
 800221a:	4301      	orrs	r1, r0
 800221c:	430a      	orrs	r2, r1
 800221e:	e7db      	b.n	80021d8 <HAL_DMA_Init+0x70>
        hdma->ErrorCode = HAL_DMA_ERROR_PARAM;
 8002220:	2340      	movs	r3, #64	@ 0x40
 8002222:	6563      	str	r3, [r4, #84]	@ 0x54
        hdma->State = HAL_DMA_STATE_READY;
 8002224:	2001      	movs	r0, #1
 8002226:	f884 0035 	strb.w	r0, [r4, #53]	@ 0x35
        return HAL_ERROR; 
 800222a:	e7be      	b.n	80021aa <HAL_DMA_Init+0x42>
    return HAL_ERROR;
 800222c:	2001      	movs	r0, #1
 800222e:	e7bc      	b.n	80021aa <HAL_DMA_Init+0x42>
 8002230:	f010803f 	.word	0xf010803f

08002234 <HAL_DMA_Start_IT>:
{
 8002234:	b538      	push	{r3, r4, r5, lr}
 8002236:	4604      	mov	r4, r0
  DMA_Base_Registers *regs = (DMA_Base_Registers *)hdma->StreamBaseAddress;
 8002238:	6d85      	ldr	r5, [r0, #88]	@ 0x58
  __HAL_LOCK(hdma);
 800223a:	f890 0034 	ldrb.w	r0, [r0, #52]	@ 0x34
 800223e:	2801      	cmp	r0, #1
 8002240:	d02b      	beq.n	800229a <HAL_DMA_Start_IT+0x66>
 8002242:	2001      	movs	r0, #1
 8002244:	f884 0034 	strb.w	r0, [r4, #52]	@ 0x34
  if(HAL_DMA_STATE_READY == hdma->State)
 8002248:	f894 0035 	ldrb.w	r0, [r4, #53]	@ 0x35
 800224c:	b2c0      	uxtb	r0, r0
 800224e:	2801      	cmp	r0, #1
 8002250:	d004      	beq.n	800225c <HAL_DMA_Start_IT+0x28>
    __HAL_UNLOCK(hdma);	  
 8002252:	2300      	movs	r3, #0
 8002254:	f884 3034 	strb.w	r3, [r4, #52]	@ 0x34
    status = HAL_BUSY;
 8002258:	2002      	movs	r0, #2
}
 800225a:	bd38      	pop	{r3, r4, r5, pc}
    hdma->State = HAL_DMA_STATE_BUSY;
 800225c:	2002      	movs	r0, #2
 800225e:	f884 0035 	strb.w	r0, [r4, #53]	@ 0x35
    hdma->ErrorCode = HAL_DMA_ERROR_NONE;
 8002262:	2000      	movs	r0, #0
 8002264:	6560      	str	r0, [r4, #84]	@ 0x54
    DMA_SetConfig(hdma, SrcAddress, DstAddress, DataLength);
 8002266:	4620      	mov	r0, r4
 8002268:	f7ff fefd 	bl	8002066 <DMA_SetConfig>
    regs->IFCR = 0x3FU << hdma->StreamIndex;
 800226c:	6de2      	ldr	r2, [r4, #92]	@ 0x5c
 800226e:	233f      	movs	r3, #63	@ 0x3f
 8002270:	4093      	lsls	r3, r2
 8002272:	60ab      	str	r3, [r5, #8]
    hdma->Instance->CR  |= DMA_IT_TC | DMA_IT_TE | DMA_IT_DME;
 8002274:	6822      	ldr	r2, [r4, #0]
 8002276:	6813      	ldr	r3, [r2, #0]
 8002278:	f043 0316 	orr.w	r3, r3, #22
 800227c:	6013      	str	r3, [r2, #0]
    if(hdma->XferHalfCpltCallback != NULL)
 800227e:	6c23      	ldr	r3, [r4, #64]	@ 0x40
 8002280:	b123      	cbz	r3, 800228c <HAL_DMA_Start_IT+0x58>
      hdma->Instance->CR  |= DMA_IT_HT;
 8002282:	6822      	ldr	r2, [r4, #0]
 8002284:	6813      	ldr	r3, [r2, #0]
 8002286:	f043 0308 	orr.w	r3, r3, #8
 800228a:	6013      	str	r3, [r2, #0]
    __HAL_DMA_ENABLE(hdma);
 800228c:	6822      	ldr	r2, [r4, #0]
 800228e:	6813      	ldr	r3, [r2, #0]
 8002290:	f043 0301 	orr.w	r3, r3, #1
 8002294:	6013      	str	r3, [r2, #0]
  HAL_StatusTypeDef status = HAL_OK;
 8002296:	2000      	movs	r0, #0
 8002298:	e7df      	b.n	800225a <HAL_DMA_Start_IT+0x26>
  __HAL_LOCK(hdma);
 800229a:	2002      	movs	r0, #2
 800229c:	e7dd      	b.n	800225a <HAL_DMA_Start_IT+0x26>
	...

080022a0 <HAL_DMA_IRQHandler>:
{
 80022a0:	b5f0      	push	{r4, r5, r6, r7, lr}
 80022a2:	b083      	sub	sp, #12
 80022a4:	4604      	mov	r4, r0
  __IO uint32_t count = 0U;
 80022a6:	2300      	movs	r3, #0
 80022a8:	9301      	str	r3, [sp, #4]
  uint32_t timeout = SystemCoreClock / 9600U;
 80022aa:	4b72      	ldr	r3, [pc, #456]	@ (8002474 <HAL_DMA_IRQHandler+0x1d4>)
 80022ac:	681d      	ldr	r5, [r3, #0]
 80022ae:	4b72      	ldr	r3, [pc, #456]	@ (8002478 <HAL_DMA_IRQHandler+0x1d8>)
 80022b0:	fba3 3505 	umull	r3, r5, r3, r5
 80022b4:	0aad      	lsrs	r5, r5, #10
  DMA_Base_Registers *regs = (DMA_Base_Registers *)hdma->StreamBaseAddress;
 80022b6:	6d87      	ldr	r7, [r0, #88]	@ 0x58
  tmpisr = regs->ISR;
 80022b8:	683e      	ldr	r6, [r7, #0]
  if ((tmpisr & (DMA_FLAG_TEIF0_4 << hdma->StreamIndex)) != RESET)
 80022ba:	6dc2      	ldr	r2, [r0, #92]	@ 0x5c
 80022bc:	2308      	movs	r3, #8
 80022be:	4093      	lsls	r3, r2
 80022c0:	4233      	tst	r3, r6
 80022c2:	d010      	beq.n	80022e6 <HAL_DMA_IRQHandler+0x46>
    if(__HAL_DMA_GET_IT_SOURCE(hdma, DMA_IT_TE) != RESET)
 80022c4:	6803      	ldr	r3, [r0, #0]
 80022c6:	681a      	ldr	r2, [r3, #0]
 80022c8:	f012 0f04 	tst.w	r2, #4
 80022cc:	d00b      	beq.n	80022e6 <HAL_DMA_IRQHandler+0x46>
      hdma->Instance->CR  &= ~(DMA_IT_TE);
 80022ce:	681a      	ldr	r2, [r3, #0]
 80022d0:	f022 0204 	bic.w	r2, r2, #4
 80022d4:	601a      	str	r2, [r3, #0]
      regs->IFCR = DMA_FLAG_TEIF0_4 << hdma->StreamIndex;
 80022d6:	6dc2      	ldr	r2, [r0, #92]	@ 0x5c
 80022d8:	2308      	movs	r3, #8
 80022da:	4093      	lsls	r3, r2
 80022dc:	60bb      	str	r3, [r7, #8]
      hdma->ErrorCode |= HAL_DMA_ERROR_TE;
 80022de:	6d43      	ldr	r3, [r0, #84]	@ 0x54
 80022e0:	f043 0301 	orr.w	r3, r3, #1
 80022e4:	6543      	str	r3, [r0, #84]	@ 0x54
  if ((tmpisr & (DMA_FLAG_FEIF0_4 << hdma->StreamIndex)) != RESET)
 80022e6:	6de2      	ldr	r2, [r4, #92]	@ 0x5c
 80022e8:	2301      	movs	r3, #1
 80022ea:	4093      	lsls	r3, r2
 80022ec:	4233      	tst	r3, r6
 80022ee:	d009      	beq.n	8002304 <HAL_DMA_IRQHandler+0x64>
    if(__HAL_DMA_GET_IT_SOURCE(hdma, DMA_IT_FE) != RESET)
 80022f0:	6822      	ldr	r2, [r4, #0]
 80022f2:	6952      	ldr	r2, [r2, #20]
 80022f4:	f012 0f80 	tst.w	r2, #128	@ 0x80
 80022f8:	d004      	beq.n	8002304 <HAL_DMA_IRQHandler+0x64>
      regs->IFCR = DMA_FLAG_FEIF0_4 << hdma->StreamIndex;
 80022fa:	60bb      	str	r3, [r7, #8]
      hdma->ErrorCode |= HAL_DMA_ERROR_FE;
 80022fc:	6d63      	ldr	r3, [r4, #84]	@ 0x54
 80022fe:	f043 0302 	orr.w	r3, r3, #2
 8002302:	6563      	str	r3, [r4, #84]	@ 0x54
  if ((tmpisr & (DMA_FLAG_DMEIF0_4 << hdma->StreamIndex)) != RESET)
 8002304:	6de2      	ldr	r2, [r4, #92]	@ 0x5c
 8002306:	2304      	movs	r3, #4
 8002308:	4093      	lsls	r3, r2
 800230a:	4233      	tst	r3, r6
 800230c:	d009      	beq.n	8002322 <HAL_DMA_IRQHandler+0x82>
    if(__HAL_DMA_GET_IT_SOURCE(hdma, DMA_IT_DME) != RESET)
 800230e:	6822      	ldr	r2, [r4, #0]
 8002310:	6812      	ldr	r2, [r2, #0]
 8002312:	f012 0f02 	tst.w	r2, #2
 8002316:	d004      	beq.n	8002322 <HAL_DMA_IRQHandler+0x82>
      regs->IFCR = DMA_FLAG_DMEIF0_4 << hdma->StreamIndex;
 8002318:	60bb      	str	r3, [r7, #8]
      hdma->ErrorCode |= HAL_DMA_ERROR_DME;
 800231a:	6d63      	ldr	r3, [r4, #84]	@ 0x54
 800231c:	f043 0304 	orr.w	r3, r3, #4
 8002320:	6563      	str	r3, [r4, #84]	@ 0x54
  if ((tmpisr & (DMA_FLAG_HTIF0_4 << hdma->StreamIndex)) != RESET)
 8002322:	6de2      	ldr	r2, [r4, #92]	@ 0x5c
 8002324:	2310      	movs	r3, #16
 8002326:	4093      	lsls	r3, r2
 8002328:	4233      	tst	r3, r6
 800232a:	d024      	beq.n	8002376 <HAL_DMA_IRQHandler+0xd6>
    if(__HAL_DMA_GET_IT_SOURCE(hdma, DMA_IT_HT) != RESET)
 800232c:	6822      	ldr	r2, [r4, #0]
 800232e:	6812      	ldr	r2, [r2, #0]
 8002330:	f012 0f08 	tst.w	r2, #8
 8002334:	d01f      	beq.n	8002376 <HAL_DMA_IRQHandler+0xd6>
      regs->IFCR = DMA_FLAG_HTIF0_4 << hdma->StreamIndex;
 8002336:	60bb      	str	r3, [r7, #8]
      if(((hdma->Instance->CR) & (uint32_t)(DMA_SxCR_DBM)) != RESET)
 8002338:	6823      	ldr	r3, [r4, #0]
 800233a:	681a      	ldr	r2, [r3, #0]
 800233c:	f412 2f80 	tst.w	r2, #262144	@ 0x40000
 8002340:	d00d      	beq.n	800235e <HAL_DMA_IRQHandler+0xbe>
        if((hdma->Instance->CR & DMA_SxCR_CT) == RESET)
 8002342:	681b      	ldr	r3, [r3, #0]
 8002344:	f413 2f00 	tst.w	r3, #524288	@ 0x80000
 8002348:	d104      	bne.n	8002354 <HAL_DMA_IRQHandler+0xb4>
          if(hdma->XferHalfCpltCallback != NULL)
 800234a:	6c23      	ldr	r3, [r4, #64]	@ 0x40
 800234c:	b19b      	cbz	r3, 8002376 <HAL_DMA_IRQHandler+0xd6>
            hdma->XferHalfCpltCallback(hdma);
 800234e:	4620      	mov	r0, r4
 8002350:	4798      	blx	r3
 8002352:	e010      	b.n	8002376 <HAL_DMA_IRQHandler+0xd6>
          if(hdma->XferM1HalfCpltCallback != NULL)
 8002354:	6ca3      	ldr	r3, [r4, #72]	@ 0x48
 8002356:	b173      	cbz	r3, 8002376 <HAL_DMA_IRQHandler+0xd6>
            hdma->XferM1HalfCpltCallback(hdma);
 8002358:	4620      	mov	r0, r4
 800235a:	4798      	blx	r3
 800235c:	e00b      	b.n	8002376 <HAL_DMA_IRQHandler+0xd6>
        if((hdma->Instance->CR & DMA_SxCR_CIRC) == RESET)
 800235e:	681a      	ldr	r2, [r3, #0]
 8002360:	f412 7f80 	tst.w	r2, #256	@ 0x100
 8002364:	d103      	bne.n	800236e <HAL_DMA_IRQHandler+0xce>
          hdma->Instance->CR  &= ~(DMA_IT_HT);
 8002366:	681a      	ldr	r2, [r3, #0]
 8002368:	f022 0208 	bic.w	r2, r2, #8
 800236c:	601a      	str	r2, [r3, #0]
        if(hdma->XferHalfCpltCallback != NULL)
 800236e:	6c23      	ldr	r3, [r4, #64]	@ 0x40
 8002370:	b10b      	cbz	r3, 8002376 <HAL_DMA_IRQHandler+0xd6>
          hdma->XferHalfCpltCallback(hdma);
 8002372:	4620      	mov	r0, r4
 8002374:	4798      	blx	r3
  if ((tmpisr & (DMA_FLAG_TCIF0_4 << hdma->StreamIndex)) != RESET)
 8002376:	6de2      	ldr	r2, [r4, #92]	@ 0x5c
 8002378:	2320      	movs	r3, #32
 800237a:	4093      	lsls	r3, r2
 800237c:	4233      	tst	r3, r6
 800237e:	d055      	beq.n	800242c <HAL_DMA_IRQHandler+0x18c>
    if(__HAL_DMA_GET_IT_SOURCE(hdma, DMA_IT_TC) != RESET)
 8002380:	6822      	ldr	r2, [r4, #0]
 8002382:	6812      	ldr	r2, [r2, #0]
 8002384:	f012 0f10 	tst.w	r2, #16
 8002388:	d050      	beq.n	800242c <HAL_DMA_IRQHandler+0x18c>
      regs->IFCR = DMA_FLAG_TCIF0_4 << hdma->StreamIndex;
 800238a:	60bb      	str	r3, [r7, #8]
      if(HAL_DMA_STATE_ABORT == hdma->State)
 800238c:	f894 3035 	ldrb.w	r3, [r4, #53]	@ 0x35
 8002390:	b2db      	uxtb	r3, r3
 8002392:	2b05      	cmp	r3, #5
 8002394:	d00e      	beq.n	80023b4 <HAL_DMA_IRQHandler+0x114>
      if(((hdma->Instance->CR) & (uint32_t)(DMA_SxCR_DBM)) != RESET)
 8002396:	6823      	ldr	r3, [r4, #0]
 8002398:	681a      	ldr	r2, [r3, #0]
 800239a:	f412 2f80 	tst.w	r2, #262144	@ 0x40000
 800239e:	d033      	beq.n	8002408 <HAL_DMA_IRQHandler+0x168>
        if((hdma->Instance->CR & DMA_SxCR_CT) == RESET)
 80023a0:	681b      	ldr	r3, [r3, #0]
 80023a2:	f413 2f00 	tst.w	r3, #524288	@ 0x80000
 80023a6:	d12a      	bne.n	80023fe <HAL_DMA_IRQHandler+0x15e>
          if(hdma->XferM1CpltCallback != NULL)
 80023a8:	6c63      	ldr	r3, [r4, #68]	@ 0x44
 80023aa:	2b00      	cmp	r3, #0
 80023ac:	d03e      	beq.n	800242c <HAL_DMA_IRQHandler+0x18c>
            hdma->XferM1CpltCallback(hdma);
 80023ae:	4620      	mov	r0, r4
 80023b0:	4798      	blx	r3
 80023b2:	e03b      	b.n	800242c <HAL_DMA_IRQHandler+0x18c>
        hdma->Instance->CR  &= ~(DMA_IT_TC | DMA_IT_TE | DMA_IT_DME);
 80023b4:	6822      	ldr	r2, [r4, #0]
 80023b6:	6813      	ldr	r3, [r2, #0]
 80023b8:	f023 0316 	bic.w	r3, r3, #22
 80023bc:	6013      	str	r3, [r2, #0]
        hdma->Instance->FCR &= ~(DMA_IT_FE);
 80023be:	6822      	ldr	r2, [r4, #0]
 80023c0:	6953      	ldr	r3, [r2, #20]
 80023c2:	f023 0380 	bic.w	r3, r3, #128	@ 0x80
 80023c6:	6153      	str	r3, [r2, #20]
        if((hdma->XferHalfCpltCallback != NULL) || (hdma->XferM1HalfCpltCallback != NULL))
 80023c8:	6c23      	ldr	r3, [r4, #64]	@ 0x40
 80023ca:	b1a3      	cbz	r3, 80023f6 <HAL_DMA_IRQHandler+0x156>
          hdma->Instance->CR  &= ~(DMA_IT_HT);
 80023cc:	6822      	ldr	r2, [r4, #0]
 80023ce:	6813      	ldr	r3, [r2, #0]
 80023d0:	f023 0308 	bic.w	r3, r3, #8
 80023d4:	6013      	str	r3, [r2, #0]
        regs->IFCR = 0x3FU << hdma->StreamIndex;
 80023d6:	6de2      	ldr	r2, [r4, #92]	@ 0x5c
 80023d8:	233f      	movs	r3, #63	@ 0x3f
 80023da:	4093      	lsls	r3, r2
 80023dc:	60bb      	str	r3, [r7, #8]
        hdma->State = HAL_DMA_STATE_READY;
 80023de:	2301      	movs	r3, #1
 80023e0:	f884 3035 	strb.w	r3, [r4, #53]	@ 0x35
        __HAL_UNLOCK(hdma);
 80023e4:	2300      	movs	r3, #0
 80023e6:	f884 3034 	strb.w	r3, [r4, #52]	@ 0x34
        if(hdma->XferAbortCallback != NULL)
 80023ea:	6d23      	ldr	r3, [r4, #80]	@ 0x50
 80023ec:	2b00      	cmp	r3, #0
 80023ee:	d03f      	beq.n	8002470 <HAL_DMA_IRQHandler+0x1d0>
          hdma->XferAbortCallback(hdma);
 80023f0:	4620      	mov	r0, r4
 80023f2:	4798      	blx	r3
        return;
 80023f4:	e03c      	b.n	8002470 <HAL_DMA_IRQHandler+0x1d0>
        if((hdma->XferHalfCpltCallback != NULL) || (hdma->XferM1HalfCpltCallback != NULL))
 80023f6:	6ca3      	ldr	r3, [r4, #72]	@ 0x48
 80023f8:	2b00      	cmp	r3, #0
 80023fa:	d1e7      	bne.n	80023cc <HAL_DMA_IRQHandler+0x12c>
 80023fc:	e7eb      	b.n	80023d6 <HAL_DMA_IRQHandler+0x136>
          if(hdma->XferCpltCallback != NULL)
 80023fe:	6be3      	ldr	r3, [r4, #60]	@ 0x3c
 8002400:	b1a3      	cbz	r3, 800242c <HAL_DMA_IRQHandler+0x18c>
            hdma->XferCpltCallback(hdma);
 8002402:	4620      	mov	r0, r4
 8002404:	4798      	blx	r3
 8002406:	e011      	b.n	800242c <HAL_DMA_IRQHandler+0x18c>
        if((hdma->Instance->CR & DMA_SxCR_CIRC) == RESET)
 8002408:	681a      	ldr	r2, [r3, #0]
 800240a:	f412 7f80 	tst.w	r2, #256	@ 0x100
 800240e:	d109      	bne.n	8002424 <HAL_DMA_IRQHandler+0x184>
          hdma->Instance->CR  &= ~(DMA_IT_TC);
 8002410:	681a      	ldr	r2, [r3, #0]
 8002412:	f022 0210 	bic.w	r2, r2, #16
 8002416:	601a      	str	r2, [r3, #0]
          hdma->State = HAL_DMA_STATE_READY;
 8002418:	2301      	movs	r3, #1
 800241a:	f884 3035 	strb.w	r3, [r4, #53]	@ 0x35
          __HAL_UNLOCK(hdma);
 800241e:	2300      	movs	r3, #0
 8002420:	f884 3034 	strb.w	r3, [r4, #52]	@ 0x34
        if(hdma->XferCpltCallback != NULL)
 8002424:	6be3      	ldr	r3, [r4, #60]	@ 0x3c
 8002426:	b10b      	cbz	r3, 800242c <HAL_DMA_IRQHandler+0x18c>
          hdma->XferCpltCallback(hdma);
 8002428:	4620      	mov	r0, r4
 800242a:	4798      	blx	r3
  if(hdma->ErrorCode != HAL_DMA_ERROR_NONE)
 800242c:	6d63      	ldr	r3, [r4, #84]	@ 0x54
 800242e:	b1fb      	cbz	r3, 8002470 <HAL_DMA_IRQHandler+0x1d0>
    if((hdma->ErrorCode & HAL_DMA_ERROR_TE) != RESET)
 8002430:	6d63      	ldr	r3, [r4, #84]	@ 0x54
 8002432:	f013 0f01 	tst.w	r3, #1
 8002436:	d017      	beq.n	8002468 <HAL_DMA_IRQHandler+0x1c8>
      hdma->State = HAL_DMA_STATE_ABORT;
 8002438:	2305      	movs	r3, #5
 800243a:	f884 3035 	strb.w	r3, [r4, #53]	@ 0x35
      __HAL_DMA_DISABLE(hdma);
 800243e:	6822      	ldr	r2, [r4, #0]
 8002440:	6813      	ldr	r3, [r2, #0]
 8002442:	f023 0301 	bic.w	r3, r3, #1
 8002446:	6013      	str	r3, [r2, #0]
        if (++count > timeout)
 8002448:	9b01      	ldr	r3, [sp, #4]
 800244a:	3301      	adds	r3, #1
 800244c:	9301      	str	r3, [sp, #4]
 800244e:	42ab      	cmp	r3, r5
 8002450:	d804      	bhi.n	800245c <HAL_DMA_IRQHandler+0x1bc>
      while((hdma->Instance->CR & DMA_SxCR_EN) != RESET);
 8002452:	6823      	ldr	r3, [r4, #0]
 8002454:	681b      	ldr	r3, [r3, #0]
 8002456:	f013 0f01 	tst.w	r3, #1
 800245a:	d1f5      	bne.n	8002448 <HAL_DMA_IRQHandler+0x1a8>
      hdma->State = HAL_DMA_STATE_READY;
 800245c:	2301      	movs	r3, #1
 800245e:	f884 3035 	strb.w	r3, [r4, #53]	@ 0x35
      __HAL_UNLOCK(hdma);
 8002462:	2300      	movs	r3, #0
 8002464:	f884 3034 	strb.w	r3, [r4, #52]	@ 0x34
    if(hdma->XferErrorCallback != NULL)
 8002468:	6ce3      	ldr	r3, [r4, #76]	@ 0x4c
 800246a:	b10b      	cbz	r3, 8002470 <HAL_DMA_IRQHandler+0x1d0>
      hdma->XferErrorCallback(hdma);
 800246c:	4620      	mov	r0, r4
 800246e:	4798      	blx	r3
}
 8002470:	b003      	add	sp, #12
 8002472:	bdf0      	pop	{r4, r5, r6, r7, pc}
 8002474:	20000020 	.word	0x20000020
 8002478:	1b4e81b5 	.word	0x1b4e81b5

0800247c <HAL_GPIO_Init>:
  assert_param(IS_GPIO_ALL_INSTANCE(GPIOx));
  assert_param(IS_GPIO_PIN(GPIO_Init->Pin));
  assert_param(IS_GPIO_MODE(GPIO_Init->Mode));

  /* Configure the port pins */
  for(position = 0U; position < GPIO_NUMBER; position++)
 800247c:	2300      	movs	r3, #0
 800247e:	2b0f      	cmp	r3, #15
 8002480:	f200 80e9 	bhi.w	8002656 <HAL_GPIO_Init+0x1da>
{
 8002484:	b570      	push	{r4, r5, r6, lr}
 8002486:	b082      	sub	sp, #8
 8002488:	e065      	b.n	8002556 <HAL_GPIO_Init+0xda>
          (GPIO_Init->Mode & GPIO_MODE) == MODE_AF)
      {
        /* Check the Speed parameter */
        assert_param(IS_GPIO_SPEED(GPIO_Init->Speed));
        /* Configure the IO Speed */
        temp = GPIOx->OSPEEDR; 
 800248a:	6885      	ldr	r5, [r0, #8]
        temp &= ~(GPIO_OSPEEDER_OSPEEDR0 << (position * 2U));
 800248c:	ea4f 0e43 	mov.w	lr, r3, lsl #1
 8002490:	2403      	movs	r4, #3
 8002492:	fa04 f40e 	lsl.w	r4, r4, lr
 8002496:	ea25 0504 	bic.w	r5, r5, r4
        temp |= (GPIO_Init->Speed << (position * 2U));
 800249a:	68cc      	ldr	r4, [r1, #12]
 800249c:	fa04 f40e 	lsl.w	r4, r4, lr
 80024a0:	432c      	orrs	r4, r5
        GPIOx->OSPEEDR = temp;
 80024a2:	6084      	str	r4, [r0, #8]

        /* Configure the IO Output Type */
        temp = GPIOx->OTYPER;
 80024a4:	6844      	ldr	r4, [r0, #4]
        temp &= ~(GPIO_OTYPER_OT_0 << position) ;
 80024a6:	ea24 0402 	bic.w	r4, r4, r2
        temp |= (((GPIO_Init->Mode & OUTPUT_TYPE) >> OUTPUT_TYPE_Pos) << position);
 80024aa:	684a      	ldr	r2, [r1, #4]
 80024ac:	f3c2 1200 	ubfx	r2, r2, #4, #1
 80024b0:	409a      	lsls	r2, r3
 80024b2:	4322      	orrs	r2, r4
        GPIOx->OTYPER = temp;
 80024b4:	6042      	str	r2, [r0, #4]
 80024b6:	e05c      	b.n	8002572 <HAL_GPIO_Init+0xf6>
      if((GPIO_Init->Mode & GPIO_MODE) == MODE_AF)
      {
        /* Check the Alternate function parameter */
        assert_param(IS_GPIO_AF(GPIO_Init->Alternate));
        /* Configure Alternate function mapped with the current IO */
        temp = GPIOx->AFR[position >> 3U];
 80024b8:	08dc      	lsrs	r4, r3, #3
 80024ba:	3408      	adds	r4, #8
 80024bc:	f850 2024 	ldr.w	r2, [r0, r4, lsl #2]
        temp &= ~(0xFU << ((uint32_t)(position & 0x07U) * 4U)) ;
 80024c0:	f003 0507 	and.w	r5, r3, #7
 80024c4:	00ad      	lsls	r5, r5, #2
 80024c6:	f04f 0e0f 	mov.w	lr, #15
 80024ca:	fa0e fe05 	lsl.w	lr, lr, r5
 80024ce:	ea22 0e0e 	bic.w	lr, r2, lr
        temp |= ((uint32_t)(GPIO_Init->Alternate) << (((uint32_t)position & 0x07U) * 4U));
 80024d2:	690a      	ldr	r2, [r1, #16]
 80024d4:	40aa      	lsls	r2, r5
 80024d6:	ea42 020e 	orr.w	r2, r2, lr
        GPIOx->AFR[position >> 3U] = temp;
 80024da:	f840 2024 	str.w	r2, [r0, r4, lsl #2]
 80024de:	e05c      	b.n	800259a <HAL_GPIO_Init+0x11e>
        /* Enable SYSCFG Clock */
        __HAL_RCC_SYSCFG_CLK_ENABLE();

        temp = SYSCFG->EXTICR[position >> 2U];
        temp &= ~(0x0FU << (4U * (position & 0x03U)));
        temp |= ((uint32_t)(GPIO_GET_INDEX(GPIOx)) << (4U * (position & 0x03U)));
 80024e0:	2207      	movs	r2, #7
 80024e2:	e000      	b.n	80024e6 <HAL_GPIO_Init+0x6a>
 80024e4:	2200      	movs	r2, #0
 80024e6:	fa02 f20e 	lsl.w	r2, r2, lr
 80024ea:	432a      	orrs	r2, r5
        SYSCFG->EXTICR[position >> 2U] = temp;
 80024ec:	3402      	adds	r4, #2
 80024ee:	4d5a      	ldr	r5, [pc, #360]	@ (8002658 <HAL_GPIO_Init+0x1dc>)
 80024f0:	f845 2024 	str.w	r2, [r5, r4, lsl #2]

        /* Clear Rising Falling edge configuration */
        temp = EXTI->RTSR;
 80024f4:	4a59      	ldr	r2, [pc, #356]	@ (800265c <HAL_GPIO_Init+0x1e0>)
 80024f6:	6894      	ldr	r4, [r2, #8]
        temp &= ~((uint32_t)iocurrent);
 80024f8:	ea6f 020c 	mvn.w	r2, ip
 80024fc:	ea24 050c 	bic.w	r5, r4, ip
        if((GPIO_Init->Mode & TRIGGER_RISING) != 0x00U)
 8002500:	684e      	ldr	r6, [r1, #4]
 8002502:	f416 1f80 	tst.w	r6, #1048576	@ 0x100000
 8002506:	d001      	beq.n	800250c <HAL_GPIO_Init+0x90>
        {
          temp |= iocurrent;
 8002508:	ea4c 0504 	orr.w	r5, ip, r4
        }
        EXTI->RTSR = temp;
 800250c:	4c53      	ldr	r4, [pc, #332]	@ (800265c <HAL_GPIO_Init+0x1e0>)
 800250e:	60a5      	str	r5, [r4, #8]

        temp = EXTI->FTSR;
 8002510:	68e4      	ldr	r4, [r4, #12]
        temp &= ~((uint32_t)iocurrent);
 8002512:	ea02 0504 	and.w	r5, r2, r4
        if((GPIO_Init->Mode & TRIGGER_FALLING) != 0x00U)
 8002516:	684e      	ldr	r6, [r1, #4]
 8002518:	f416 1f00 	tst.w	r6, #2097152	@ 0x200000
 800251c:	d001      	beq.n	8002522 <HAL_GPIO_Init+0xa6>
        {
          temp |= iocurrent;
 800251e:	ea4c 0504 	orr.w	r5, ip, r4
        }
        EXTI->FTSR = temp;
 8002522:	4c4e      	ldr	r4, [pc, #312]	@ (800265c <HAL_GPIO_Init+0x1e0>)
 8002524:	60e5      	str	r5, [r4, #12]

        temp = EXTI->EMR;
 8002526:	6864      	ldr	r4, [r4, #4]
        temp &= ~((uint32_t)iocurrent);
 8002528:	ea02 0504 	and.w	r5, r2, r4
        if((GPIO_Init->Mode & EXTI_EVT) != 0x00U)
 800252c:	684e      	ldr	r6, [r1, #4]
 800252e:	f416 3f00 	tst.w	r6, #131072	@ 0x20000
 8002532:	d001      	beq.n	8002538 <HAL_GPIO_Init+0xbc>
        {
          temp |= iocurrent;
 8002534:	ea4c 0504 	orr.w	r5, ip, r4
        }
        EXTI->EMR = temp;
 8002538:	4c48      	ldr	r4, [pc, #288]	@ (800265c <HAL_GPIO_Init+0x1e0>)
 800253a:	6065      	str	r5, [r4, #4]

        /* Clear EXTI line configuration */
        temp = EXTI->IMR;
 800253c:	6824      	ldr	r4, [r4, #0]
        temp &= ~((uint32_t)iocurrent);
 800253e:	4022      	ands	r2, r4
        if((GPIO_Init->Mode & EXTI_IT) != 0x00U)
 8002540:	684d      	ldr	r5, [r1, #4]
 8002542:	f415 3f80 	tst.w	r5, #65536	@ 0x10000
 8002546:	d001      	beq.n	800254c <HAL_GPIO_Init+0xd0>
        {
          temp |= iocurrent;
 8002548:	ea4c 0204 	orr.w	r2, ip, r4
        }
        EXTI->IMR = temp;
 800254c:	4c43      	ldr	r4, [pc, #268]	@ (800265c <HAL_GPIO_Init+0x1e0>)
 800254e:	6022      	str	r2, [r4, #0]
  for(position = 0U; position < GPIO_NUMBER; position++)
 8002550:	3301      	adds	r3, #1
 8002552:	2b0f      	cmp	r3, #15
 8002554:	d87d      	bhi.n	8002652 <HAL_GPIO_Init+0x1d6>
    ioposition = 0x01U << position;
 8002556:	2201      	movs	r2, #1
 8002558:	409a      	lsls	r2, r3
    iocurrent = (uint32_t)(GPIO_Init->Pin) & ioposition;
 800255a:	680c      	ldr	r4, [r1, #0]
 800255c:	ea04 0c02 	and.w	ip, r4, r2
    if(iocurrent == ioposition)
 8002560:	ea32 0404 	bics.w	r4, r2, r4
 8002564:	d1f4      	bne.n	8002550 <HAL_GPIO_Init+0xd4>
      if(((GPIO_Init->Mode & GPIO_MODE) == MODE_OUTPUT) || \
 8002566:	684c      	ldr	r4, [r1, #4]
 8002568:	f004 0403 	and.w	r4, r4, #3
 800256c:	3c01      	subs	r4, #1
 800256e:	2c01      	cmp	r4, #1
 8002570:	d98b      	bls.n	800248a <HAL_GPIO_Init+0xe>
      if((GPIO_Init->Mode & GPIO_MODE) != MODE_ANALOG)
 8002572:	684a      	ldr	r2, [r1, #4]
 8002574:	f002 0203 	and.w	r2, r2, #3
 8002578:	2a03      	cmp	r2, #3
 800257a:	d009      	beq.n	8002590 <HAL_GPIO_Init+0x114>
        temp = GPIOx->PUPDR;
 800257c:	68c4      	ldr	r4, [r0, #12]
        temp &= ~(GPIO_PUPDR_PUPDR0 << (position * 2U));
 800257e:	005d      	lsls	r5, r3, #1
 8002580:	2203      	movs	r2, #3
 8002582:	40aa      	lsls	r2, r5
 8002584:	ea24 0402 	bic.w	r4, r4, r2
        temp |= ((GPIO_Init->Pull) << (position * 2U));
 8002588:	688a      	ldr	r2, [r1, #8]
 800258a:	40aa      	lsls	r2, r5
 800258c:	4322      	orrs	r2, r4
        GPIOx->PUPDR = temp;
 800258e:	60c2      	str	r2, [r0, #12]
      if((GPIO_Init->Mode & GPIO_MODE) == MODE_AF)
 8002590:	684a      	ldr	r2, [r1, #4]
 8002592:	f002 0203 	and.w	r2, r2, #3
 8002596:	2a02      	cmp	r2, #2
 8002598:	d08e      	beq.n	80024b8 <HAL_GPIO_Init+0x3c>
      temp = GPIOx->MODER;
 800259a:	6804      	ldr	r4, [r0, #0]
      temp &= ~(GPIO_MODER_MODER0 << (position * 2U));
 800259c:	ea4f 0e43 	mov.w	lr, r3, lsl #1
 80025a0:	2203      	movs	r2, #3
 80025a2:	fa02 f20e 	lsl.w	r2, r2, lr
 80025a6:	ea24 0402 	bic.w	r4, r4, r2
      temp |= ((GPIO_Init->Mode & GPIO_MODE) << (position * 2U));
 80025aa:	684a      	ldr	r2, [r1, #4]
 80025ac:	f002 0203 	and.w	r2, r2, #3
 80025b0:	fa02 f20e 	lsl.w	r2, r2, lr
 80025b4:	4322      	orrs	r2, r4
      GPIOx->MODER = temp;
 80025b6:	6002      	str	r2, [r0, #0]
      if((GPIO_Init->Mode & EXTI_MODE) != 0x00U)
 80025b8:	684a      	ldr	r2, [r1, #4]
 80025ba:	f412 3f40 	tst.w	r2, #196608	@ 0x30000
 80025be:	d0c7      	beq.n	8002550 <HAL_GPIO_Init+0xd4>
        __HAL_RCC_SYSCFG_CLK_ENABLE();
 80025c0:	2200      	movs	r2, #0
 80025c2:	9201      	str	r2, [sp, #4]
 80025c4:	4a26      	ldr	r2, [pc, #152]	@ (8002660 <HAL_GPIO_Init+0x1e4>)
 80025c6:	6c54      	ldr	r4, [r2, #68]	@ 0x44
 80025c8:	f444 4480 	orr.w	r4, r4, #16384	@ 0x4000
 80025cc:	6454      	str	r4, [r2, #68]	@ 0x44
 80025ce:	6c52      	ldr	r2, [r2, #68]	@ 0x44
 80025d0:	f402 4280 	and.w	r2, r2, #16384	@ 0x4000
 80025d4:	9201      	str	r2, [sp, #4]
 80025d6:	9a01      	ldr	r2, [sp, #4]
        temp = SYSCFG->EXTICR[position >> 2U];
 80025d8:	089c      	lsrs	r4, r3, #2
 80025da:	1ca5      	adds	r5, r4, #2
 80025dc:	4a1e      	ldr	r2, [pc, #120]	@ (8002658 <HAL_GPIO_Init+0x1dc>)
 80025de:	f852 5025 	ldr.w	r5, [r2, r5, lsl #2]
        temp &= ~(0x0FU << (4U * (position & 0x03U)));
 80025e2:	f003 0e03 	and.w	lr, r3, #3
 80025e6:	ea4f 0e8e 	mov.w	lr, lr, lsl #2
 80025ea:	220f      	movs	r2, #15
 80025ec:	fa02 f20e 	lsl.w	r2, r2, lr
 80025f0:	ea25 0502 	bic.w	r5, r5, r2
        temp |= ((uint32_t)(GPIO_GET_INDEX(GPIOx)) << (4U * (position & 0x03U)));
 80025f4:	4a1b      	ldr	r2, [pc, #108]	@ (8002664 <HAL_GPIO_Init+0x1e8>)
 80025f6:	4290      	cmp	r0, r2
 80025f8:	f43f af74 	beq.w	80024e4 <HAL_GPIO_Init+0x68>
 80025fc:	f502 6280 	add.w	r2, r2, #1024	@ 0x400
 8002600:	4290      	cmp	r0, r2
 8002602:	d01a      	beq.n	800263a <HAL_GPIO_Init+0x1be>
 8002604:	f502 6280 	add.w	r2, r2, #1024	@ 0x400
 8002608:	4290      	cmp	r0, r2
 800260a:	d018      	beq.n	800263e <HAL_GPIO_Init+0x1c2>
 800260c:	f502 6280 	add.w	r2, r2, #1024	@ 0x400
 8002610:	4290      	cmp	r0, r2
 8002612:	d016      	beq.n	8002642 <HAL_GPIO_Init+0x1c6>
 8002614:	f502 6280 	add.w	r2, r2, #1024	@ 0x400
 8002618:	4290      	cmp	r0, r2
 800261a:	d014      	beq.n	8002646 <HAL_GPIO_Init+0x1ca>
 800261c:	f502 6280 	add.w	r2, r2, #1024	@ 0x400
 8002620:	4290      	cmp	r0, r2
 8002622:	d012      	beq.n	800264a <HAL_GPIO_Init+0x1ce>
 8002624:	f502 6280 	add.w	r2, r2, #1024	@ 0x400
 8002628:	4290      	cmp	r0, r2
 800262a:	d010      	beq.n	800264e <HAL_GPIO_Init+0x1d2>
 800262c:	f502 6280 	add.w	r2, r2, #1024	@ 0x400
 8002630:	4290      	cmp	r0, r2
 8002632:	f43f af55 	beq.w	80024e0 <HAL_GPIO_Init+0x64>
 8002636:	2208      	movs	r2, #8
 8002638:	e755      	b.n	80024e6 <HAL_GPIO_Init+0x6a>
 800263a:	2201      	movs	r2, #1
 800263c:	e753      	b.n	80024e6 <HAL_GPIO_Init+0x6a>
 800263e:	2202      	movs	r2, #2
 8002640:	e751      	b.n	80024e6 <HAL_GPIO_Init+0x6a>
 8002642:	2203      	movs	r2, #3
 8002644:	e74f      	b.n	80024e6 <HAL_GPIO_Init+0x6a>
 8002646:	2204      	movs	r2, #4
 8002648:	e74d      	b.n	80024e6 <HAL_GPIO_Init+0x6a>
 800264a:	2205      	movs	r2, #5
 800264c:	e74b      	b.n	80024e6 <HAL_GPIO_Init+0x6a>
 800264e:	2206      	movs	r2, #6
 8002650:	e749      	b.n	80024e6 <HAL_GPIO_Init+0x6a>
      }
    }
  }
}
 8002652:	b002      	add	sp, #8
 8002654:	bd70      	pop	{r4, r5, r6, pc}
 8002656:	4770      	bx	lr
 8002658:	40013800 	.word	0x40013800
 800265c:	40013c00 	.word	0x40013c00
 8002660:	40023800 	.word	0x40023800
 8002664:	40020000 	.word	0x40020000

08002668 <HAL_GPIO_WritePin>:
{
  /* Check the parameters */
  assert_param(IS_GPIO_PIN(GPIO_Pin));
  assert_param(IS_GPIO_PIN_ACTION(PinState));

  if(PinState != GPIO_PIN_RESET)
 8002668:	b10a      	cbz	r2, 800266e <HAL_GPIO_WritePin+0x6>
  {
    GPIOx->BSRR = GPIO_Pin;
 800266a:	6181      	str	r1, [r0, #24]
 800266c:	4770      	bx	lr
  }
  else
  {
    GPIOx->BSRR = (uint32_t)GPIO_Pin << 16U;
 800266e:	0409      	lsls	r1, r1, #16
 8002670:	6181      	str	r1, [r0, #24]
  }
}
 8002672:	4770      	bx	lr

08002674 <HAL_GPIO_TogglePin>:

  /* Check the parameters */
  assert_param(IS_GPIO_PIN(GPIO_Pin));

  /* get current Output Data Register value */
  odr = GPIOx->ODR;
 8002674:	6943      	ldr	r3, [r0, #20]

  /* Set selected pins that were at low level, and reset ones that were high */
  GPIOx->BSRR = ((odr & GPIO_Pin) << GPIO_NUMBER) | (~odr & GPIO_Pin);
 8002676:	ea01 0203 	and.w	r2, r1, r3
 800267a:	ea21 0103 	bic.w	r1, r1, r3
 800267e:	ea41 4102 	orr.w	r1, r1, r2, lsl #16
 8002682:	6181      	str	r1, [r0, #24]
}
 8002684:	4770      	bx	lr
	...

08002688 <HAL_RCC_OscConfig>:
__weak HAL_StatusTypeDef HAL_RCC_OscConfig(RCC_OscInitTypeDef  *RCC_OscInitStruct)
{
  uint32_t tickstart;
  uint32_t pll_config;
  /* Check Null pointer */
  if (RCC_OscInitStruct == NULL)
 8002688:	2800      	cmp	r0, #0
 800268a:	f000 81e0 	beq.w	8002a4e <HAL_RCC_OscConfig+0x3c6>
{
 800268e:	b570      	push	{r4, r5, r6, lr}
 8002690:	b082      	sub	sp, #8
 8002692:	4604      	mov	r4, r0
  }

  /* Check the parameters */
  assert_param(IS_RCC_OSCILLATORTYPE(RCC_OscInitStruct->OscillatorType));
  /*------------------------------- HSE Configuration ------------------------*/
  if (((RCC_OscInitStruct->OscillatorType) & RCC_OSCILLATORTYPE_HSE) == RCC_OSCILLATORTYPE_HSE)
 8002694:	6803      	ldr	r3, [r0, #0]
 8002696:	f013 0f01 	tst.w	r3, #1
 800269a:	d03b      	beq.n	8002714 <HAL_RCC_OscConfig+0x8c>
  {
    /* Check the parameters */
    assert_param(IS_RCC_HSE(RCC_OscInitStruct->HSEState));
    /* When the HSE is used as system clock or clock source for PLL in these cases HSE will not disabled */
    if ((__HAL_RCC_GET_SYSCLK_SOURCE() == RCC_CFGR_SWS_HSE) || \
 800269c:	4b9f      	ldr	r3, [pc, #636]	@ (800291c <HAL_RCC_OscConfig+0x294>)
 800269e:	689b      	ldr	r3, [r3, #8]
 80026a0:	f003 030c 	and.w	r3, r3, #12
 80026a4:	2b04      	cmp	r3, #4
 80026a6:	d02c      	beq.n	8002702 <HAL_RCC_OscConfig+0x7a>
        ((__HAL_RCC_GET_SYSCLK_SOURCE() == RCC_CFGR_SWS_PLL) && ((RCC->PLLCFGR & RCC_PLLCFGR_PLLSRC) == RCC_PLLCFGR_PLLSRC_HSE)))
 80026a8:	4b9c      	ldr	r3, [pc, #624]	@ (800291c <HAL_RCC_OscConfig+0x294>)
 80026aa:	689b      	ldr	r3, [r3, #8]
 80026ac:	f003 030c 	and.w	r3, r3, #12
    if ((__HAL_RCC_GET_SYSCLK_SOURCE() == RCC_CFGR_SWS_HSE) || \
 80026b0:	2b08      	cmp	r3, #8
 80026b2:	d021      	beq.n	80026f8 <HAL_RCC_OscConfig+0x70>
      }
    }
    else
    {
      /* Set the new HSE configuration ---------------------------------------*/
      __HAL_RCC_HSE_CONFIG(RCC_OscInitStruct->HSEState);
 80026b4:	6863      	ldr	r3, [r4, #4]
 80026b6:	f5b3 3f80 	cmp.w	r3, #65536	@ 0x10000
 80026ba:	d04f      	beq.n	800275c <HAL_RCC_OscConfig+0xd4>
 80026bc:	f5b3 2fa0 	cmp.w	r3, #327680	@ 0x50000
 80026c0:	d052      	beq.n	8002768 <HAL_RCC_OscConfig+0xe0>
 80026c2:	4b96      	ldr	r3, [pc, #600]	@ (800291c <HAL_RCC_OscConfig+0x294>)
 80026c4:	681a      	ldr	r2, [r3, #0]
 80026c6:	f422 3280 	bic.w	r2, r2, #65536	@ 0x10000
 80026ca:	601a      	str	r2, [r3, #0]
 80026cc:	681a      	ldr	r2, [r3, #0]
 80026ce:	f422 2280 	bic.w	r2, r2, #262144	@ 0x40000
 80026d2:	601a      	str	r2, [r3, #0]

      /* Check the HSE State */
      if ((RCC_OscInitStruct->HSEState) != RCC_HSE_OFF)
 80026d4:	6863      	ldr	r3, [r4, #4]
 80026d6:	2b00      	cmp	r3, #0
 80026d8:	d050      	beq.n	800277c <HAL_RCC_OscConfig+0xf4>
      {
        /* Get Start Tick */
        tickstart = HAL_GetTick();
 80026da:	f7ff fb67 	bl	8001dac <HAL_GetTick>
 80026de:	4605      	mov	r5, r0

        /* Wait till HSE is ready */
        while (__HAL_RCC_GET_FLAG(RCC_FLAG_HSERDY) == RESET)
 80026e0:	4b8e      	ldr	r3, [pc, #568]	@ (800291c <HAL_RCC_OscConfig+0x294>)
 80026e2:	681b      	ldr	r3, [r3, #0]
 80026e4:	f413 3f00 	tst.w	r3, #131072	@ 0x20000
 80026e8:	d114      	bne.n	8002714 <HAL_RCC_OscConfig+0x8c>
        {
          if ((HAL_GetTick() - tickstart) > HSE_TIMEOUT_VALUE)
 80026ea:	f7ff fb5f 	bl	8001dac <HAL_GetTick>
 80026ee:	1b40      	subs	r0, r0, r5
 80026f0:	2864      	cmp	r0, #100	@ 0x64
 80026f2:	d9f5      	bls.n	80026e0 <HAL_RCC_OscConfig+0x58>
          {
            return HAL_TIMEOUT;
 80026f4:	2003      	movs	r0, #3
 80026f6:	e1b1      	b.n	8002a5c <HAL_RCC_OscConfig+0x3d4>
        ((__HAL_RCC_GET_SYSCLK_SOURCE() == RCC_CFGR_SWS_PLL) && ((RCC->PLLCFGR & RCC_PLLCFGR_PLLSRC) == RCC_PLLCFGR_PLLSRC_HSE)))
 80026f8:	4b88      	ldr	r3, [pc, #544]	@ (800291c <HAL_RCC_OscConfig+0x294>)
 80026fa:	685b      	ldr	r3, [r3, #4]
 80026fc:	f413 0f80 	tst.w	r3, #4194304	@ 0x400000
 8002700:	d0d8      	beq.n	80026b4 <HAL_RCC_OscConfig+0x2c>
      if ((__HAL_RCC_GET_FLAG(RCC_FLAG_HSERDY) != RESET) && (RCC_OscInitStruct->HSEState == RCC_HSE_OFF))
 8002702:	4b86      	ldr	r3, [pc, #536]	@ (800291c <HAL_RCC_OscConfig+0x294>)
 8002704:	681b      	ldr	r3, [r3, #0]
 8002706:	f413 3f00 	tst.w	r3, #131072	@ 0x20000
 800270a:	d003      	beq.n	8002714 <HAL_RCC_OscConfig+0x8c>
 800270c:	6863      	ldr	r3, [r4, #4]
 800270e:	2b00      	cmp	r3, #0
 8002710:	f000 819f 	beq.w	8002a52 <HAL_RCC_OscConfig+0x3ca>
        }
      }
    }
  }
  /*----------------------------- HSI Configuration --------------------------*/
  if (((RCC_OscInitStruct->OscillatorType) & RCC_OSCILLATORTYPE_HSI) == RCC_OSCILLATORTYPE_HSI)
 8002714:	6823      	ldr	r3, [r4, #0]
 8002716:	f013 0f02 	tst.w	r3, #2
 800271a:	d054      	beq.n	80027c6 <HAL_RCC_OscConfig+0x13e>
    /* Check the parameters */
    assert_param(IS_RCC_HSI(RCC_OscInitStruct->HSIState));
    assert_param(IS_RCC_CALIBRATION_VALUE(RCC_OscInitStruct->HSICalibrationValue));

    /* Check if HSI is used as system clock or as PLL source when PLL is selected as system clock */
    if ((__HAL_RCC_GET_SYSCLK_SOURCE() == RCC_CFGR_SWS_HSI) || \
 800271c:	4b7f      	ldr	r3, [pc, #508]	@ (800291c <HAL_RCC_OscConfig+0x294>)
 800271e:	689b      	ldr	r3, [r3, #8]
 8002720:	f013 0f0c 	tst.w	r3, #12
 8002724:	d03e      	beq.n	80027a4 <HAL_RCC_OscConfig+0x11c>
        ((__HAL_RCC_GET_SYSCLK_SOURCE() == RCC_CFGR_SWS_PLL) && ((RCC->PLLCFGR & RCC_PLLCFGR_PLLSRC) == RCC_PLLCFGR_PLLSRC_HSI)))
 8002726:	4b7d      	ldr	r3, [pc, #500]	@ (800291c <HAL_RCC_OscConfig+0x294>)
 8002728:	689b      	ldr	r3, [r3, #8]
 800272a:	f003 030c 	and.w	r3, r3, #12
    if ((__HAL_RCC_GET_SYSCLK_SOURCE() == RCC_CFGR_SWS_HSI) || \
 800272e:	2b08      	cmp	r3, #8
 8002730:	d033      	beq.n	800279a <HAL_RCC_OscConfig+0x112>
      }
    }
    else
    {
      /* Check the HSI State */
      if ((RCC_OscInitStruct->HSIState) != RCC_HSI_OFF)
 8002732:	68e3      	ldr	r3, [r4, #12]
 8002734:	2b00      	cmp	r3, #0
 8002736:	d068      	beq.n	800280a <HAL_RCC_OscConfig+0x182>
      {
        /* Enable the Internal High Speed oscillator (HSI). */
        __HAL_RCC_HSI_ENABLE();
 8002738:	4b79      	ldr	r3, [pc, #484]	@ (8002920 <HAL_RCC_OscConfig+0x298>)
 800273a:	2201      	movs	r2, #1
 800273c:	601a      	str	r2, [r3, #0]

        /* Get Start Tick*/
        tickstart = HAL_GetTick();
 800273e:	f7ff fb35 	bl	8001dac <HAL_GetTick>
 8002742:	4605      	mov	r5, r0

        /* Wait till HSI is ready */
        while (__HAL_RCC_GET_FLAG(RCC_FLAG_HSIRDY) == RESET)
 8002744:	4b75      	ldr	r3, [pc, #468]	@ (800291c <HAL_RCC_OscConfig+0x294>)
 8002746:	681b      	ldr	r3, [r3, #0]
 8002748:	f013 0f02 	tst.w	r3, #2
 800274c:	d154      	bne.n	80027f8 <HAL_RCC_OscConfig+0x170>
        {
          if ((HAL_GetTick() - tickstart) > HSI_TIMEOUT_VALUE)
 800274e:	f7ff fb2d 	bl	8001dac <HAL_GetTick>
 8002752:	1b40      	subs	r0, r0, r5
 8002754:	2802      	cmp	r0, #2
 8002756:	d9f5      	bls.n	8002744 <HAL_RCC_OscConfig+0xbc>
          {
            return HAL_TIMEOUT;
 8002758:	2003      	movs	r0, #3
 800275a:	e17f      	b.n	8002a5c <HAL_RCC_OscConfig+0x3d4>
      __HAL_RCC_HSE_CONFIG(RCC_OscInitStruct->HSEState);
 800275c:	4a6f      	ldr	r2, [pc, #444]	@ (800291c <HAL_RCC_OscConfig+0x294>)
 800275e:	6813      	ldr	r3, [r2, #0]
 8002760:	f443 3380 	orr.w	r3, r3, #65536	@ 0x10000
 8002764:	6013      	str	r3, [r2, #0]
 8002766:	e7b5      	b.n	80026d4 <HAL_RCC_OscConfig+0x4c>
 8002768:	4b6c      	ldr	r3, [pc, #432]	@ (800291c <HAL_RCC_OscConfig+0x294>)
 800276a:	681a      	ldr	r2, [r3, #0]
 800276c:	f442 2280 	orr.w	r2, r2, #262144	@ 0x40000
 8002770:	601a      	str	r2, [r3, #0]
 8002772:	681a      	ldr	r2, [r3, #0]
 8002774:	f442 3280 	orr.w	r2, r2, #65536	@ 0x10000
 8002778:	601a      	str	r2, [r3, #0]
 800277a:	e7ab      	b.n	80026d4 <HAL_RCC_OscConfig+0x4c>
        tickstart = HAL_GetTick();
 800277c:	f7ff fb16 	bl	8001dac <HAL_GetTick>
 8002780:	4605      	mov	r5, r0
        while (__HAL_RCC_GET_FLAG(RCC_FLAG_HSERDY) != RESET)
 8002782:	4b66      	ldr	r3, [pc, #408]	@ (800291c <HAL_RCC_OscConfig+0x294>)
 8002784:	681b      	ldr	r3, [r3, #0]
 8002786:	f413 3f00 	tst.w	r3, #131072	@ 0x20000
 800278a:	d0c3      	beq.n	8002714 <HAL_RCC_OscConfig+0x8c>
          if ((HAL_GetTick() - tickstart) > HSE_TIMEOUT_VALUE)
 800278c:	f7ff fb0e 	bl	8001dac <HAL_GetTick>
 8002790:	1b40      	subs	r0, r0, r5
 8002792:	2864      	cmp	r0, #100	@ 0x64
 8002794:	d9f5      	bls.n	8002782 <HAL_RCC_OscConfig+0xfa>
            return HAL_TIMEOUT;
 8002796:	2003      	movs	r0, #3
 8002798:	e160      	b.n	8002a5c <HAL_RCC_OscConfig+0x3d4>
        ((__HAL_RCC_GET_SYSCLK_SOURCE() == RCC_CFGR_SWS_PLL) && ((RCC->PLLCFGR & RCC_PLLCFGR_PLLSRC) == RCC_PLLCFGR_PLLSRC_HSI)))
 800279a:	4b60      	ldr	r3, [pc, #384]	@ (800291c <HAL_RCC_OscConfig+0x294>)
 800279c:	685b      	ldr	r3, [r3, #4]
 800279e:	f413 0f80 	tst.w	r3, #4194304	@ 0x400000
 80027a2:	d1c6      	bne.n	8002732 <HAL_RCC_OscConfig+0xaa>
      if ((__HAL_RCC_GET_FLAG(RCC_FLAG_HSIRDY) != RESET) && (RCC_OscInitStruct->HSIState != RCC_HSI_ON))
 80027a4:	4b5d      	ldr	r3, [pc, #372]	@ (800291c <HAL_RCC_OscConfig+0x294>)
 80027a6:	681b      	ldr	r3, [r3, #0]
 80027a8:	f013 0f02 	tst.w	r3, #2
 80027ac:	d003      	beq.n	80027b6 <HAL_RCC_OscConfig+0x12e>
 80027ae:	68e3      	ldr	r3, [r4, #12]
 80027b0:	2b01      	cmp	r3, #1
 80027b2:	f040 8150 	bne.w	8002a56 <HAL_RCC_OscConfig+0x3ce>
        __HAL_RCC_HSI_CALIBRATIONVALUE_ADJUST(RCC_OscInitStruct->HSICalibrationValue);
 80027b6:	4a59      	ldr	r2, [pc, #356]	@ (800291c <HAL_RCC_OscConfig+0x294>)
 80027b8:	6813      	ldr	r3, [r2, #0]
 80027ba:	f023 03f8 	bic.w	r3, r3, #248	@ 0xf8
 80027be:	6921      	ldr	r1, [r4, #16]
 80027c0:	ea43 03c1 	orr.w	r3, r3, r1, lsl #3
 80027c4:	6013      	str	r3, [r2, #0]
        }
      }
    }
  }
  /*------------------------------ LSI Configuration -------------------------*/
  if (((RCC_OscInitStruct->OscillatorType) & RCC_OSCILLATORTYPE_LSI) == RCC_OSCILLATORTYPE_LSI)
 80027c6:	6823      	ldr	r3, [r4, #0]
 80027c8:	f013 0f08 	tst.w	r3, #8
 80027cc:	d042      	beq.n	8002854 <HAL_RCC_OscConfig+0x1cc>
  {
    /* Check the parameters */
    assert_param(IS_RCC_LSI(RCC_OscInitStruct->LSIState));

    /* Check the LSI State */
    if ((RCC_OscInitStruct->LSIState) != RCC_LSI_OFF)
 80027ce:	6963      	ldr	r3, [r4, #20]
 80027d0:	b36b      	cbz	r3, 800282e <HAL_RCC_OscConfig+0x1a6>
    {
      /* Enable the Internal Low Speed oscillator (LSI). */
      __HAL_RCC_LSI_ENABLE();
 80027d2:	4b53      	ldr	r3, [pc, #332]	@ (8002920 <HAL_RCC_OscConfig+0x298>)
 80027d4:	2201      	movs	r2, #1
 80027d6:	f8c3 2e80 	str.w	r2, [r3, #3712]	@ 0xe80

      /* Get Start Tick*/
      tickstart = HAL_GetTick();
 80027da:	f7ff fae7 	bl	8001dac <HAL_GetTick>
 80027de:	4605      	mov	r5, r0

      /* Wait till LSI is ready */
      while (__HAL_RCC_GET_FLAG(RCC_FLAG_LSIRDY) == RESET)
 80027e0:	4b4e      	ldr	r3, [pc, #312]	@ (800291c <HAL_RCC_OscConfig+0x294>)
 80027e2:	6f5b      	ldr	r3, [r3, #116]	@ 0x74
 80027e4:	f013 0f02 	tst.w	r3, #2
 80027e8:	d134      	bne.n	8002854 <HAL_RCC_OscConfig+0x1cc>
      {
        if ((HAL_GetTick() - tickstart) > LSI_TIMEOUT_VALUE)
 80027ea:	f7ff fadf 	bl	8001dac <HAL_GetTick>
 80027ee:	1b40      	subs	r0, r0, r5
 80027f0:	2802      	cmp	r0, #2
 80027f2:	d9f5      	bls.n	80027e0 <HAL_RCC_OscConfig+0x158>
        {
          return HAL_TIMEOUT;
 80027f4:	2003      	movs	r0, #3
 80027f6:	e131      	b.n	8002a5c <HAL_RCC_OscConfig+0x3d4>
        __HAL_RCC_HSI_CALIBRATIONVALUE_ADJUST(RCC_OscInitStruct->HSICalibrationValue);
 80027f8:	4a48      	ldr	r2, [pc, #288]	@ (800291c <HAL_RCC_OscConfig+0x294>)
 80027fa:	6813      	ldr	r3, [r2, #0]
 80027fc:	f023 03f8 	bic.w	r3, r3, #248	@ 0xf8
 8002800:	6921      	ldr	r1, [r4, #16]
 8002802:	ea43 03c1 	orr.w	r3, r3, r1, lsl #3
 8002806:	6013      	str	r3, [r2, #0]
 8002808:	e7dd      	b.n	80027c6 <HAL_RCC_OscConfig+0x13e>
        __HAL_RCC_HSI_DISABLE();
 800280a:	4b45      	ldr	r3, [pc, #276]	@ (8002920 <HAL_RCC_OscConfig+0x298>)
 800280c:	2200      	movs	r2, #0
 800280e:	601a      	str	r2, [r3, #0]
        tickstart = HAL_GetTick();
 8002810:	f7ff facc 	bl	8001dac <HAL_GetTick>
 8002814:	4605      	mov	r5, r0
        while (__HAL_RCC_GET_FLAG(RCC_FLAG_HSIRDY) != RESET)
 8002816:	4b41      	ldr	r3, [pc, #260]	@ (800291c <HAL_RCC_OscConfig+0x294>)
 8002818:	681b      	ldr	r3, [r3, #0]
 800281a:	f013 0f02 	tst.w	r3, #2
 800281e:	d0d2      	beq.n	80027c6 <HAL_RCC_OscConfig+0x13e>
          if ((HAL_GetTick() - tickstart) > HSI_TIMEOUT_VALUE)
 8002820:	f7ff fac4 	bl	8001dac <HAL_GetTick>
 8002824:	1b40      	subs	r0, r0, r5
 8002826:	2802      	cmp	r0, #2
 8002828:	d9f5      	bls.n	8002816 <HAL_RCC_OscConfig+0x18e>
            return HAL_TIMEOUT;
 800282a:	2003      	movs	r0, #3
 800282c:	e116      	b.n	8002a5c <HAL_RCC_OscConfig+0x3d4>
      }
    }
    else
    {
      /* Disable the Internal Low Speed oscillator (LSI). */
      __HAL_RCC_LSI_DISABLE();
 800282e:	4b3c      	ldr	r3, [pc, #240]	@ (8002920 <HAL_RCC_OscConfig+0x298>)
 8002830:	2200      	movs	r2, #0
 8002832:	f8c3 2e80 	str.w	r2, [r3, #3712]	@ 0xe80

      /* Get Start Tick */
      tickstart = HAL_GetTick();
 8002836:	f7ff fab9 	bl	8001dac <HAL_GetTick>
 800283a:	4605      	mov	r5, r0

      /* Wait till LSI is ready */
      while (__HAL_RCC_GET_FLAG(RCC_FLAG_LSIRDY) != RESET)
 800283c:	4b37      	ldr	r3, [pc, #220]	@ (800291c <HAL_RCC_OscConfig+0x294>)
 800283e:	6f5b      	ldr	r3, [r3, #116]	@ 0x74
 8002840:	f013 0f02 	tst.w	r3, #2
 8002844:	d006      	beq.n	8002854 <HAL_RCC_OscConfig+0x1cc>
      {
        if ((HAL_GetTick() - tickstart) > LSI_TIMEOUT_VALUE)
 8002846:	f7ff fab1 	bl	8001dac <HAL_GetTick>
 800284a:	1b40      	subs	r0, r0, r5
 800284c:	2802      	cmp	r0, #2
 800284e:	d9f5      	bls.n	800283c <HAL_RCC_OscConfig+0x1b4>
        {
          return HAL_TIMEOUT;
 8002850:	2003      	movs	r0, #3
 8002852:	e103      	b.n	8002a5c <HAL_RCC_OscConfig+0x3d4>
        }
      }
    }
  }
  /*------------------------------ LSE Configuration -------------------------*/
  if (((RCC_OscInitStruct->OscillatorType) & RCC_OSCILLATORTYPE_LSE) == RCC_OSCILLATORTYPE_LSE)
 8002854:	6823      	ldr	r3, [r4, #0]
 8002856:	f013 0f04 	tst.w	r3, #4
 800285a:	d077      	beq.n	800294c <HAL_RCC_OscConfig+0x2c4>
    /* Check the parameters */
    assert_param(IS_RCC_LSE(RCC_OscInitStruct->LSEState));

    /* Update LSE configuration in Backup Domain control register    */
    /* Requires to enable write access to Backup Domain of necessary */
    if (__HAL_RCC_PWR_IS_CLK_DISABLED())
 800285c:	4b2f      	ldr	r3, [pc, #188]	@ (800291c <HAL_RCC_OscConfig+0x294>)
 800285e:	6c1b      	ldr	r3, [r3, #64]	@ 0x40
 8002860:	f013 5f80 	tst.w	r3, #268435456	@ 0x10000000
 8002864:	d133      	bne.n	80028ce <HAL_RCC_OscConfig+0x246>
    {
      __HAL_RCC_PWR_CLK_ENABLE();
 8002866:	2300      	movs	r3, #0
 8002868:	9301      	str	r3, [sp, #4]
 800286a:	4b2c      	ldr	r3, [pc, #176]	@ (800291c <HAL_RCC_OscConfig+0x294>)
 800286c:	6c1a      	ldr	r2, [r3, #64]	@ 0x40
 800286e:	f042 5280 	orr.w	r2, r2, #268435456	@ 0x10000000
 8002872:	641a      	str	r2, [r3, #64]	@ 0x40
 8002874:	6c1b      	ldr	r3, [r3, #64]	@ 0x40
 8002876:	f003 5380 	and.w	r3, r3, #268435456	@ 0x10000000
 800287a:	9301      	str	r3, [sp, #4]
 800287c:	9b01      	ldr	r3, [sp, #4]
      pwrclkchanged = SET;
 800287e:	2501      	movs	r5, #1
    }

    if (HAL_IS_BIT_CLR(PWR->CR, PWR_CR_DBP))
 8002880:	4b28      	ldr	r3, [pc, #160]	@ (8002924 <HAL_RCC_OscConfig+0x29c>)
 8002882:	681b      	ldr	r3, [r3, #0]
 8002884:	f413 7f80 	tst.w	r3, #256	@ 0x100
 8002888:	d023      	beq.n	80028d2 <HAL_RCC_OscConfig+0x24a>
        }
      }
    }

    /* Set the new LSE configuration -----------------------------------------*/
    __HAL_RCC_LSE_CONFIG(RCC_OscInitStruct->LSEState);
 800288a:	68a3      	ldr	r3, [r4, #8]
 800288c:	2b01      	cmp	r3, #1
 800288e:	d034      	beq.n	80028fa <HAL_RCC_OscConfig+0x272>
 8002890:	2b05      	cmp	r3, #5
 8002892:	d038      	beq.n	8002906 <HAL_RCC_OscConfig+0x27e>
 8002894:	4b21      	ldr	r3, [pc, #132]	@ (800291c <HAL_RCC_OscConfig+0x294>)
 8002896:	6f1a      	ldr	r2, [r3, #112]	@ 0x70
 8002898:	f022 0201 	bic.w	r2, r2, #1
 800289c:	671a      	str	r2, [r3, #112]	@ 0x70
 800289e:	6f1a      	ldr	r2, [r3, #112]	@ 0x70
 80028a0:	f022 0204 	bic.w	r2, r2, #4
 80028a4:	671a      	str	r2, [r3, #112]	@ 0x70
    /* Check the LSE State */
    if ((RCC_OscInitStruct->LSEState) != RCC_LSE_OFF)
 80028a6:	68a3      	ldr	r3, [r4, #8]
 80028a8:	2b00      	cmp	r3, #0
 80028aa:	d03d      	beq.n	8002928 <HAL_RCC_OscConfig+0x2a0>
    {
      /* Get Start Tick*/
      tickstart = HAL_GetTick();
 80028ac:	f7ff fa7e 	bl	8001dac <HAL_GetTick>
 80028b0:	4606      	mov	r6, r0

      /* Wait till LSE is ready */
      while (__HAL_RCC_GET_FLAG(RCC_FLAG_LSERDY) == RESET)
 80028b2:	4b1a      	ldr	r3, [pc, #104]	@ (800291c <HAL_RCC_OscConfig+0x294>)
 80028b4:	6f1b      	ldr	r3, [r3, #112]	@ 0x70
 80028b6:	f013 0f02 	tst.w	r3, #2
 80028ba:	d146      	bne.n	800294a <HAL_RCC_OscConfig+0x2c2>
      {
        if ((HAL_GetTick() - tickstart) > RCC_LSE_TIMEOUT_VALUE)
 80028bc:	f7ff fa76 	bl	8001dac <HAL_GetTick>
 80028c0:	1b80      	subs	r0, r0, r6
 80028c2:	f241 3388 	movw	r3, #5000	@ 0x1388
 80028c6:	4298      	cmp	r0, r3
 80028c8:	d9f3      	bls.n	80028b2 <HAL_RCC_OscConfig+0x22a>
        {
          return HAL_TIMEOUT;
 80028ca:	2003      	movs	r0, #3
 80028cc:	e0c6      	b.n	8002a5c <HAL_RCC_OscConfig+0x3d4>
    FlagStatus       pwrclkchanged = RESET;
 80028ce:	2500      	movs	r5, #0
 80028d0:	e7d6      	b.n	8002880 <HAL_RCC_OscConfig+0x1f8>
      SET_BIT(PWR->CR, PWR_CR_DBP);
 80028d2:	4a14      	ldr	r2, [pc, #80]	@ (8002924 <HAL_RCC_OscConfig+0x29c>)
 80028d4:	6813      	ldr	r3, [r2, #0]
 80028d6:	f443 7380 	orr.w	r3, r3, #256	@ 0x100
 80028da:	6013      	str	r3, [r2, #0]
      tickstart = HAL_GetTick();
 80028dc:	f7ff fa66 	bl	8001dac <HAL_GetTick>
 80028e0:	4606      	mov	r6, r0
      while (HAL_IS_BIT_CLR(PWR->CR, PWR_CR_DBP))
 80028e2:	4b10      	ldr	r3, [pc, #64]	@ (8002924 <HAL_RCC_OscConfig+0x29c>)
 80028e4:	681b      	ldr	r3, [r3, #0]
 80028e6:	f413 7f80 	tst.w	r3, #256	@ 0x100
 80028ea:	d1ce      	bne.n	800288a <HAL_RCC_OscConfig+0x202>
        if ((HAL_GetTick() - tickstart) > RCC_DBP_TIMEOUT_VALUE)
 80028ec:	f7ff fa5e 	bl	8001dac <HAL_GetTick>
 80028f0:	1b80      	subs	r0, r0, r6
 80028f2:	2802      	cmp	r0, #2
 80028f4:	d9f5      	bls.n	80028e2 <HAL_RCC_OscConfig+0x25a>
          return HAL_TIMEOUT;
 80028f6:	2003      	movs	r0, #3
 80028f8:	e0b0      	b.n	8002a5c <HAL_RCC_OscConfig+0x3d4>
    __HAL_RCC_LSE_CONFIG(RCC_OscInitStruct->LSEState);
 80028fa:	4a08      	ldr	r2, [pc, #32]	@ (800291c <HAL_RCC_OscConfig+0x294>)
 80028fc:	6f13      	ldr	r3, [r2, #112]	@ 0x70
 80028fe:	f043 0301 	orr.w	r3, r3, #1
 8002902:	6713      	str	r3, [r2, #112]	@ 0x70
 8002904:	e7cf      	b.n	80028a6 <HAL_RCC_OscConfig+0x21e>
 8002906:	4b05      	ldr	r3, [pc, #20]	@ (800291c <HAL_RCC_OscConfig+0x294>)
 8002908:	6f1a      	ldr	r2, [r3, #112]	@ 0x70
 800290a:	f042 0204 	orr.w	r2, r2, #4
 800290e:	671a      	str	r2, [r3, #112]	@ 0x70
 8002910:	6f1a      	ldr	r2, [r3, #112]	@ 0x70
 8002912:	f042 0201 	orr.w	r2, r2, #1
 8002916:	671a      	str	r2, [r3, #112]	@ 0x70
 8002918:	e7c5      	b.n	80028a6 <HAL_RCC_OscConfig+0x21e>
 800291a:	bf00      	nop
 800291c:	40023800 	.word	0x40023800
 8002920:	42470000 	.word	0x42470000
 8002924:	40007000 	.word	0x40007000
      }
    }
    else
    {
      /* Get Start Tick */
      tickstart = HAL_GetTick();
 8002928:	f7ff fa40 	bl	8001dac <HAL_GetTick>
 800292c:	4606      	mov	r6, r0

      /* Wait till LSE is ready */
      while (__HAL_RCC_GET_FLAG(RCC_FLAG_LSERDY) != RESET)
 800292e:	4b52      	ldr	r3, [pc, #328]	@ (8002a78 <HAL_RCC_OscConfig+0x3f0>)
 8002930:	6f1b      	ldr	r3, [r3, #112]	@ 0x70
 8002932:	f013 0f02 	tst.w	r3, #2
 8002936:	d008      	beq.n	800294a <HAL_RCC_OscConfig+0x2c2>
      {
        if ((HAL_GetTick() - tickstart) > RCC_LSE_TIMEOUT_VALUE)
 8002938:	f7ff fa38 	bl	8001dac <HAL_GetTick>
 800293c:	1b80      	subs	r0, r0, r6
 800293e:	f241 3388 	movw	r3, #5000	@ 0x1388
 8002942:	4298      	cmp	r0, r3
 8002944:	d9f3      	bls.n	800292e <HAL_RCC_OscConfig+0x2a6>
        {
          return HAL_TIMEOUT;
 8002946:	2003      	movs	r0, #3
 8002948:	e088      	b.n	8002a5c <HAL_RCC_OscConfig+0x3d4>
        }
      }
    }

    /* Restore clock configuration if changed */
    if (pwrclkchanged == SET)
 800294a:	b9ed      	cbnz	r5, 8002988 <HAL_RCC_OscConfig+0x300>
    }
  }
  /*-------------------------------- PLL Configuration -----------------------*/
  /* Check the parameters */
  assert_param(IS_RCC_PLL(RCC_OscInitStruct->PLL.PLLState));
  if ((RCC_OscInitStruct->PLL.PLLState) != RCC_PLL_NONE)
 800294c:	69a3      	ldr	r3, [r4, #24]
 800294e:	2b00      	cmp	r3, #0
 8002950:	f000 8083 	beq.w	8002a5a <HAL_RCC_OscConfig+0x3d2>
  {
    /* Check if the PLL is used as system clock or not */
    if (__HAL_RCC_GET_SYSCLK_SOURCE() != RCC_CFGR_SWS_PLL)
 8002954:	4a48      	ldr	r2, [pc, #288]	@ (8002a78 <HAL_RCC_OscConfig+0x3f0>)
 8002956:	6892      	ldr	r2, [r2, #8]
 8002958:	f002 020c 	and.w	r2, r2, #12
 800295c:	2a08      	cmp	r2, #8
 800295e:	d051      	beq.n	8002a04 <HAL_RCC_OscConfig+0x37c>
    {
      if ((RCC_OscInitStruct->PLL.PLLState) == RCC_PLL_ON)
 8002960:	2b02      	cmp	r3, #2
 8002962:	d017      	beq.n	8002994 <HAL_RCC_OscConfig+0x30c>
        }
      }
      else
      {
        /* Disable the main PLL. */
        __HAL_RCC_PLL_DISABLE();
 8002964:	4b45      	ldr	r3, [pc, #276]	@ (8002a7c <HAL_RCC_OscConfig+0x3f4>)
 8002966:	2200      	movs	r2, #0
 8002968:	661a      	str	r2, [r3, #96]	@ 0x60

        /* Get Start Tick */
        tickstart = HAL_GetTick();
 800296a:	f7ff fa1f 	bl	8001dac <HAL_GetTick>
 800296e:	4604      	mov	r4, r0

        /* Wait till PLL is disabled */
        while (__HAL_RCC_GET_FLAG(RCC_FLAG_PLLRDY) != RESET)
 8002970:	4b41      	ldr	r3, [pc, #260]	@ (8002a78 <HAL_RCC_OscConfig+0x3f0>)
 8002972:	681b      	ldr	r3, [r3, #0]
 8002974:	f013 7f00 	tst.w	r3, #33554432	@ 0x2000000
 8002978:	d042      	beq.n	8002a00 <HAL_RCC_OscConfig+0x378>
        {
          if ((HAL_GetTick() - tickstart) > PLL_TIMEOUT_VALUE)
 800297a:	f7ff fa17 	bl	8001dac <HAL_GetTick>
 800297e:	1b00      	subs	r0, r0, r4
 8002980:	2802      	cmp	r0, #2
 8002982:	d9f5      	bls.n	8002970 <HAL_RCC_OscConfig+0x2e8>
          {
            return HAL_TIMEOUT;
 8002984:	2003      	movs	r0, #3
 8002986:	e069      	b.n	8002a5c <HAL_RCC_OscConfig+0x3d4>
      __HAL_RCC_PWR_CLK_DISABLE();
 8002988:	4a3b      	ldr	r2, [pc, #236]	@ (8002a78 <HAL_RCC_OscConfig+0x3f0>)
 800298a:	6c13      	ldr	r3, [r2, #64]	@ 0x40
 800298c:	f023 5380 	bic.w	r3, r3, #268435456	@ 0x10000000
 8002990:	6413      	str	r3, [r2, #64]	@ 0x40
 8002992:	e7db      	b.n	800294c <HAL_RCC_OscConfig+0x2c4>
        __HAL_RCC_PLL_DISABLE();
 8002994:	4b39      	ldr	r3, [pc, #228]	@ (8002a7c <HAL_RCC_OscConfig+0x3f4>)
 8002996:	2200      	movs	r2, #0
 8002998:	661a      	str	r2, [r3, #96]	@ 0x60
        tickstart = HAL_GetTick();
 800299a:	f7ff fa07 	bl	8001dac <HAL_GetTick>
 800299e:	4605      	mov	r5, r0
        while (__HAL_RCC_GET_FLAG(RCC_FLAG_PLLRDY) != RESET)
 80029a0:	4b35      	ldr	r3, [pc, #212]	@ (8002a78 <HAL_RCC_OscConfig+0x3f0>)
 80029a2:	681b      	ldr	r3, [r3, #0]
 80029a4:	f013 7f00 	tst.w	r3, #33554432	@ 0x2000000
 80029a8:	d006      	beq.n	80029b8 <HAL_RCC_OscConfig+0x330>
          if ((HAL_GetTick() - tickstart) > PLL_TIMEOUT_VALUE)
 80029aa:	f7ff f9ff 	bl	8001dac <HAL_GetTick>
 80029ae:	1b40      	subs	r0, r0, r5
 80029b0:	2802      	cmp	r0, #2
 80029b2:	d9f5      	bls.n	80029a0 <HAL_RCC_OscConfig+0x318>
            return HAL_TIMEOUT;
 80029b4:	2003      	movs	r0, #3
 80029b6:	e051      	b.n	8002a5c <HAL_RCC_OscConfig+0x3d4>
        WRITE_REG(RCC->PLLCFGR, (RCC_OscInitStruct->PLL.PLLSource                                            | \
 80029b8:	69e3      	ldr	r3, [r4, #28]
 80029ba:	6a22      	ldr	r2, [r4, #32]
 80029bc:	4313      	orrs	r3, r2
 80029be:	6a62      	ldr	r2, [r4, #36]	@ 0x24
 80029c0:	ea43 1382 	orr.w	r3, r3, r2, lsl #6
 80029c4:	6aa2      	ldr	r2, [r4, #40]	@ 0x28
 80029c6:	0852      	lsrs	r2, r2, #1
 80029c8:	3a01      	subs	r2, #1
 80029ca:	ea43 4302 	orr.w	r3, r3, r2, lsl #16
 80029ce:	6ae2      	ldr	r2, [r4, #44]	@ 0x2c
 80029d0:	ea43 6302 	orr.w	r3, r3, r2, lsl #24
 80029d4:	4a28      	ldr	r2, [pc, #160]	@ (8002a78 <HAL_RCC_OscConfig+0x3f0>)
 80029d6:	6053      	str	r3, [r2, #4]
        __HAL_RCC_PLL_ENABLE();
 80029d8:	4b28      	ldr	r3, [pc, #160]	@ (8002a7c <HAL_RCC_OscConfig+0x3f4>)
 80029da:	2201      	movs	r2, #1
 80029dc:	661a      	str	r2, [r3, #96]	@ 0x60
        tickstart = HAL_GetTick();
 80029de:	f7ff f9e5 	bl	8001dac <HAL_GetTick>
 80029e2:	4604      	mov	r4, r0
        while (__HAL_RCC_GET_FLAG(RCC_FLAG_PLLRDY) == RESET)
 80029e4:	4b24      	ldr	r3, [pc, #144]	@ (8002a78 <HAL_RCC_OscConfig+0x3f0>)
 80029e6:	681b      	ldr	r3, [r3, #0]
 80029e8:	f013 7f00 	tst.w	r3, #33554432	@ 0x2000000
 80029ec:	d106      	bne.n	80029fc <HAL_RCC_OscConfig+0x374>
          if ((HAL_GetTick() - tickstart) > PLL_TIMEOUT_VALUE)
 80029ee:	f7ff f9dd 	bl	8001dac <HAL_GetTick>
 80029f2:	1b00      	subs	r0, r0, r4
 80029f4:	2802      	cmp	r0, #2
 80029f6:	d9f5      	bls.n	80029e4 <HAL_RCC_OscConfig+0x35c>
            return HAL_TIMEOUT;
 80029f8:	2003      	movs	r0, #3
 80029fa:	e02f      	b.n	8002a5c <HAL_RCC_OscConfig+0x3d4>
          return HAL_ERROR;
        }
      }
    }
  }
  return HAL_OK;
 80029fc:	2000      	movs	r0, #0
 80029fe:	e02d      	b.n	8002a5c <HAL_RCC_OscConfig+0x3d4>
 8002a00:	2000      	movs	r0, #0
 8002a02:	e02b      	b.n	8002a5c <HAL_RCC_OscConfig+0x3d4>
      if ((RCC_OscInitStruct->PLL.PLLState) == RCC_PLL_OFF)
 8002a04:	2b01      	cmp	r3, #1
 8002a06:	d02b      	beq.n	8002a60 <HAL_RCC_OscConfig+0x3d8>
        pll_config = RCC->PLLCFGR;
 8002a08:	4b1b      	ldr	r3, [pc, #108]	@ (8002a78 <HAL_RCC_OscConfig+0x3f0>)
 8002a0a:	685b      	ldr	r3, [r3, #4]
            (READ_BIT(pll_config, RCC_PLLCFGR_PLLSRC) != RCC_OscInitStruct->PLL.PLLSource) ||
 8002a0c:	f403 0180 	and.w	r1, r3, #4194304	@ 0x400000
 8002a10:	69e2      	ldr	r2, [r4, #28]
        if (((RCC_OscInitStruct->PLL.PLLState) == RCC_PLL_OFF) ||
 8002a12:	4291      	cmp	r1, r2
 8002a14:	d126      	bne.n	8002a64 <HAL_RCC_OscConfig+0x3dc>
            (READ_BIT(pll_config, RCC_PLLCFGR_PLLM) != (RCC_OscInitStruct->PLL.PLLM) << RCC_PLLCFGR_PLLM_Pos) ||
 8002a16:	f003 023f 	and.w	r2, r3, #63	@ 0x3f
 8002a1a:	6a21      	ldr	r1, [r4, #32]
            (READ_BIT(pll_config, RCC_PLLCFGR_PLLSRC) != RCC_OscInitStruct->PLL.PLLSource) ||
 8002a1c:	428a      	cmp	r2, r1
 8002a1e:	d123      	bne.n	8002a68 <HAL_RCC_OscConfig+0x3e0>
            (READ_BIT(pll_config, RCC_PLLCFGR_PLLN) != (RCC_OscInitStruct->PLL.PLLN) << RCC_PLLCFGR_PLLN_Pos) ||
 8002a20:	6a61      	ldr	r1, [r4, #36]	@ 0x24
            (READ_BIT(pll_config, RCC_PLLCFGR_PLLM) != (RCC_OscInitStruct->PLL.PLLM) << RCC_PLLCFGR_PLLM_Pos) ||
 8002a22:	f647 72c0 	movw	r2, #32704	@ 0x7fc0
 8002a26:	401a      	ands	r2, r3
 8002a28:	ebb2 1f81 	cmp.w	r2, r1, lsl #6
 8002a2c:	d11e      	bne.n	8002a6c <HAL_RCC_OscConfig+0x3e4>
            (READ_BIT(pll_config, RCC_PLLCFGR_PLLP) != (((RCC_OscInitStruct->PLL.PLLP >> 1U) - 1U)) << RCC_PLLCFGR_PLLP_Pos) ||
 8002a2e:	f403 3140 	and.w	r1, r3, #196608	@ 0x30000
 8002a32:	6aa2      	ldr	r2, [r4, #40]	@ 0x28
 8002a34:	0852      	lsrs	r2, r2, #1
 8002a36:	3a01      	subs	r2, #1
            (READ_BIT(pll_config, RCC_PLLCFGR_PLLN) != (RCC_OscInitStruct->PLL.PLLN) << RCC_PLLCFGR_PLLN_Pos) ||
 8002a38:	ebb1 4f02 	cmp.w	r1, r2, lsl #16
 8002a3c:	d118      	bne.n	8002a70 <HAL_RCC_OscConfig+0x3e8>
            (READ_BIT(pll_config, RCC_PLLCFGR_PLLQ) != (RCC_OscInitStruct->PLL.PLLQ << RCC_PLLCFGR_PLLQ_Pos)))
 8002a3e:	f003 6370 	and.w	r3, r3, #251658240	@ 0xf000000
 8002a42:	6ae2      	ldr	r2, [r4, #44]	@ 0x2c
            (READ_BIT(pll_config, RCC_PLLCFGR_PLLP) != (((RCC_OscInitStruct->PLL.PLLP >> 1U) - 1U)) << RCC_PLLCFGR_PLLP_Pos) ||
 8002a44:	ebb3 6f02 	cmp.w	r3, r2, lsl #24
 8002a48:	d114      	bne.n	8002a74 <HAL_RCC_OscConfig+0x3ec>
  return HAL_OK;
 8002a4a:	2000      	movs	r0, #0
 8002a4c:	e006      	b.n	8002a5c <HAL_RCC_OscConfig+0x3d4>
    return HAL_ERROR;
 8002a4e:	2001      	movs	r0, #1
}
 8002a50:	4770      	bx	lr
        return HAL_ERROR;
 8002a52:	2001      	movs	r0, #1
 8002a54:	e002      	b.n	8002a5c <HAL_RCC_OscConfig+0x3d4>
        return HAL_ERROR;
 8002a56:	2001      	movs	r0, #1
 8002a58:	e000      	b.n	8002a5c <HAL_RCC_OscConfig+0x3d4>
  return HAL_OK;
 8002a5a:	2000      	movs	r0, #0
}
 8002a5c:	b002      	add	sp, #8
 8002a5e:	bd70      	pop	{r4, r5, r6, pc}
        return HAL_ERROR;
 8002a60:	2001      	movs	r0, #1
 8002a62:	e7fb      	b.n	8002a5c <HAL_RCC_OscConfig+0x3d4>
          return HAL_ERROR;
 8002a64:	2001      	movs	r0, #1
 8002a66:	e7f9      	b.n	8002a5c <HAL_RCC_OscConfig+0x3d4>
 8002a68:	2001      	movs	r0, #1
 8002a6a:	e7f7      	b.n	8002a5c <HAL_RCC_OscConfig+0x3d4>
 8002a6c:	2001      	movs	r0, #1
 8002a6e:	e7f5      	b.n	8002a5c <HAL_RCC_OscConfig+0x3d4>
 8002a70:	2001      	movs	r0, #1
 8002a72:	e7f3      	b.n	8002a5c <HAL_RCC_OscConfig+0x3d4>
 8002a74:	2001      	movs	r0, #1
 8002a76:	e7f1      	b.n	8002a5c <HAL_RCC_OscConfig+0x3d4>
 8002a78:	40023800 	.word	0x40023800
 8002a7c:	42470000 	.word	0x42470000

08002a80 <HAL_RCC_GetSysClockFreq>:
  *
  *
  * @retval SYSCLK frequency
  */
__weak uint32_t HAL_RCC_GetSysClockFreq(void)
{
 8002a80:	b508      	push	{r3, lr}
  uint32_t pllvco = 0U;
  uint32_t pllp = 0U;
  uint32_t sysclockfreq = 0U;

  /* Get SYSCLK source -------------------------------------------------------*/
  switch (RCC->CFGR & RCC_CFGR_SWS)
 8002a82:	4b31      	ldr	r3, [pc, #196]	@ (8002b48 <HAL_RCC_GetSysClockFreq+0xc8>)
 8002a84:	689b      	ldr	r3, [r3, #8]
 8002a86:	f003 030c 	and.w	r3, r3, #12
 8002a8a:	2b08      	cmp	r3, #8
 8002a8c:	d001      	beq.n	8002a92 <HAL_RCC_GetSysClockFreq+0x12>
  {
    case RCC_CFGR_SWS_HSI:  /* HSI used as system clock source */
    {
      sysclockfreq = HSI_VALUE;
 8002a8e:	482f      	ldr	r0, [pc, #188]	@ (8002b4c <HAL_RCC_GetSysClockFreq+0xcc>)
      sysclockfreq = HSI_VALUE;
      break;
    }
  }
  return sysclockfreq;
}
 8002a90:	bd08      	pop	{r3, pc}
      pllm = RCC->PLLCFGR & RCC_PLLCFGR_PLLM;
 8002a92:	4b2d      	ldr	r3, [pc, #180]	@ (8002b48 <HAL_RCC_GetSysClockFreq+0xc8>)
 8002a94:	685a      	ldr	r2, [r3, #4]
 8002a96:	f002 023f 	and.w	r2, r2, #63	@ 0x3f
      if (__HAL_RCC_GET_PLL_OSCSOURCE() != RCC_PLLSOURCE_HSI)
 8002a9a:	685b      	ldr	r3, [r3, #4]
 8002a9c:	f413 0f80 	tst.w	r3, #4194304	@ 0x400000
 8002aa0:	d02c      	beq.n	8002afc <HAL_RCC_GetSysClockFreq+0x7c>
        pllvco = (uint32_t)((((uint64_t) HSE_VALUE * ((uint64_t)((RCC->PLLCFGR & RCC_PLLCFGR_PLLN) >> RCC_PLLCFGR_PLLN_Pos)))) / (uint64_t)pllm);
 8002aa2:	4b29      	ldr	r3, [pc, #164]	@ (8002b48 <HAL_RCC_GetSysClockFreq+0xc8>)
 8002aa4:	6858      	ldr	r0, [r3, #4]
 8002aa6:	f3c0 1088 	ubfx	r0, r0, #6, #9
 8002aaa:	ea4f 1c40 	mov.w	ip, r0, lsl #5
 8002aae:	ebbc 0c00 	subs.w	ip, ip, r0
 8002ab2:	eb6e 0e0e 	sbc.w	lr, lr, lr
 8002ab6:	ea4f 138e 	mov.w	r3, lr, lsl #6
 8002aba:	ea43 639c 	orr.w	r3, r3, ip, lsr #26
 8002abe:	ea4f 118c 	mov.w	r1, ip, lsl #6
 8002ac2:	ebb1 010c 	subs.w	r1, r1, ip
 8002ac6:	eb63 030e 	sbc.w	r3, r3, lr
 8002aca:	00db      	lsls	r3, r3, #3
 8002acc:	ea43 7351 	orr.w	r3, r3, r1, lsr #29
 8002ad0:	00c9      	lsls	r1, r1, #3
 8002ad2:	eb11 0c00 	adds.w	ip, r1, r0
 8002ad6:	f143 0300 	adc.w	r3, r3, #0
 8002ada:	0299      	lsls	r1, r3, #10
 8002adc:	2300      	movs	r3, #0
 8002ade:	ea4f 208c 	mov.w	r0, ip, lsl #10
 8002ae2:	ea41 519c 	orr.w	r1, r1, ip, lsr #22
 8002ae6:	f7fe f8af 	bl	8000c48 <__aeabi_uldivmod>
      pllp = ((((RCC->PLLCFGR & RCC_PLLCFGR_PLLP) >> RCC_PLLCFGR_PLLP_Pos) + 1U) * 2U);
 8002aea:	4b17      	ldr	r3, [pc, #92]	@ (8002b48 <HAL_RCC_GetSysClockFreq+0xc8>)
 8002aec:	685b      	ldr	r3, [r3, #4]
 8002aee:	f3c3 4301 	ubfx	r3, r3, #16, #2
 8002af2:	3301      	adds	r3, #1
 8002af4:	005b      	lsls	r3, r3, #1
      sysclockfreq = pllvco / pllp;
 8002af6:	fbb0 f0f3 	udiv	r0, r0, r3
      break;
 8002afa:	e7c9      	b.n	8002a90 <HAL_RCC_GetSysClockFreq+0x10>
        pllvco = (uint32_t)((((uint64_t) HSI_VALUE * ((uint64_t)((RCC->PLLCFGR & RCC_PLLCFGR_PLLN) >> RCC_PLLCFGR_PLLN_Pos)))) / (uint64_t)pllm);
 8002afc:	4b12      	ldr	r3, [pc, #72]	@ (8002b48 <HAL_RCC_GetSysClockFreq+0xc8>)
 8002afe:	6858      	ldr	r0, [r3, #4]
 8002b00:	f3c0 1088 	ubfx	r0, r0, #6, #9
 8002b04:	ea4f 1c40 	mov.w	ip, r0, lsl #5
 8002b08:	ebbc 0c00 	subs.w	ip, ip, r0
 8002b0c:	eb6e 0e0e 	sbc.w	lr, lr, lr
 8002b10:	ea4f 138e 	mov.w	r3, lr, lsl #6
 8002b14:	ea43 639c 	orr.w	r3, r3, ip, lsr #26
 8002b18:	ea4f 118c 	mov.w	r1, ip, lsl #6
 8002b1c:	ebb1 010c 	subs.w	r1, r1, ip
 8002b20:	eb63 030e 	sbc.w	r3, r3, lr
 8002b24:	00db      	lsls	r3, r3, #3
 8002b26:	ea43 7351 	orr.w	r3, r3, r1, lsr #29
 8002b2a:	00c9      	lsls	r1, r1, #3
 8002b2c:	eb11 0c00 	adds.w	ip, r1, r0
 8002b30:	f143 0300 	adc.w	r3, r3, #0
 8002b34:	0299      	lsls	r1, r3, #10
 8002b36:	2300      	movs	r3, #0
 8002b38:	ea4f 208c 	mov.w	r0, ip, lsl #10
 8002b3c:	ea41 519c 	orr.w	r1, r1, ip, lsr #22
 8002b40:	f7fe f882 	bl	8000c48 <__aeabi_uldivmod>
 8002b44:	e7d1      	b.n	8002aea <HAL_RCC_GetSysClockFreq+0x6a>
 8002b46:	bf00      	nop
 8002b48:	40023800 	.word	0x40023800
 8002b4c:	00f42400 	.word	0x00f42400

08002b50 <HAL_RCC_ClockConfig>:
  if (RCC_ClkInitStruct == NULL)
 8002b50:	2800      	cmp	r0, #0
 8002b52:	f000 809b 	beq.w	8002c8c <HAL_RCC_ClockConfig+0x13c>
{
 8002b56:	b570      	push	{r4, r5, r6, lr}
 8002b58:	460d      	mov	r5, r1
 8002b5a:	4604      	mov	r4, r0
  if (FLatency > __HAL_FLASH_GET_LATENCY())
 8002b5c:	4b4f      	ldr	r3, [pc, #316]	@ (8002c9c <HAL_RCC_ClockConfig+0x14c>)
 8002b5e:	681b      	ldr	r3, [r3, #0]
 8002b60:	f003 0307 	and.w	r3, r3, #7
 8002b64:	428b      	cmp	r3, r1
 8002b66:	d208      	bcs.n	8002b7a <HAL_RCC_ClockConfig+0x2a>
    __HAL_FLASH_SET_LATENCY(FLatency);
 8002b68:	b2cb      	uxtb	r3, r1
 8002b6a:	4a4c      	ldr	r2, [pc, #304]	@ (8002c9c <HAL_RCC_ClockConfig+0x14c>)
 8002b6c:	7013      	strb	r3, [r2, #0]
    if (__HAL_FLASH_GET_LATENCY() != FLatency)
 8002b6e:	6813      	ldr	r3, [r2, #0]
 8002b70:	f003 0307 	and.w	r3, r3, #7
 8002b74:	428b      	cmp	r3, r1
 8002b76:	f040 808b 	bne.w	8002c90 <HAL_RCC_ClockConfig+0x140>
  if (((RCC_ClkInitStruct->ClockType) & RCC_CLOCKTYPE_HCLK) == RCC_CLOCKTYPE_HCLK)
 8002b7a:	6823      	ldr	r3, [r4, #0]
 8002b7c:	f013 0f02 	tst.w	r3, #2
 8002b80:	d017      	beq.n	8002bb2 <HAL_RCC_ClockConfig+0x62>
    if (((RCC_ClkInitStruct->ClockType) & RCC_CLOCKTYPE_PCLK1) == RCC_CLOCKTYPE_PCLK1)
 8002b82:	f013 0f04 	tst.w	r3, #4
 8002b86:	d004      	beq.n	8002b92 <HAL_RCC_ClockConfig+0x42>
      MODIFY_REG(RCC->CFGR, RCC_CFGR_PPRE1, RCC_HCLK_DIV16);
 8002b88:	4a45      	ldr	r2, [pc, #276]	@ (8002ca0 <HAL_RCC_ClockConfig+0x150>)
 8002b8a:	6893      	ldr	r3, [r2, #8]
 8002b8c:	f443 53e0 	orr.w	r3, r3, #7168	@ 0x1c00
 8002b90:	6093      	str	r3, [r2, #8]
    if (((RCC_ClkInitStruct->ClockType) & RCC_CLOCKTYPE_PCLK2) == RCC_CLOCKTYPE_PCLK2)
 8002b92:	6823      	ldr	r3, [r4, #0]
 8002b94:	f013 0f08 	tst.w	r3, #8
 8002b98:	d004      	beq.n	8002ba4 <HAL_RCC_ClockConfig+0x54>
      MODIFY_REG(RCC->CFGR, RCC_CFGR_PPRE2, (RCC_HCLK_DIV16 << 3));
 8002b9a:	4a41      	ldr	r2, [pc, #260]	@ (8002ca0 <HAL_RCC_ClockConfig+0x150>)
 8002b9c:	6893      	ldr	r3, [r2, #8]
 8002b9e:	f443 4360 	orr.w	r3, r3, #57344	@ 0xe000
 8002ba2:	6093      	str	r3, [r2, #8]
    MODIFY_REG(RCC->CFGR, RCC_CFGR_HPRE, RCC_ClkInitStruct->AHBCLKDivider);
 8002ba4:	4a3e      	ldr	r2, [pc, #248]	@ (8002ca0 <HAL_RCC_ClockConfig+0x150>)
 8002ba6:	6893      	ldr	r3, [r2, #8]
 8002ba8:	f023 03f0 	bic.w	r3, r3, #240	@ 0xf0
 8002bac:	68a1      	ldr	r1, [r4, #8]
 8002bae:	430b      	orrs	r3, r1
 8002bb0:	6093      	str	r3, [r2, #8]
  if (((RCC_ClkInitStruct->ClockType) & RCC_CLOCKTYPE_SYSCLK) == RCC_CLOCKTYPE_SYSCLK)
 8002bb2:	6823      	ldr	r3, [r4, #0]
 8002bb4:	f013 0f01 	tst.w	r3, #1
 8002bb8:	d032      	beq.n	8002c20 <HAL_RCC_ClockConfig+0xd0>
    if (RCC_ClkInitStruct->SYSCLKSource == RCC_SYSCLKSOURCE_HSE)
 8002bba:	6863      	ldr	r3, [r4, #4]
 8002bbc:	2b01      	cmp	r3, #1
 8002bbe:	d021      	beq.n	8002c04 <HAL_RCC_ClockConfig+0xb4>
    else if ((RCC_ClkInitStruct->SYSCLKSource == RCC_SYSCLKSOURCE_PLLCLK)   ||
 8002bc0:	1e9a      	subs	r2, r3, #2
 8002bc2:	2a01      	cmp	r2, #1
 8002bc4:	d925      	bls.n	8002c12 <HAL_RCC_ClockConfig+0xc2>
      if (__HAL_RCC_GET_FLAG(RCC_FLAG_HSIRDY) == RESET)
 8002bc6:	4a36      	ldr	r2, [pc, #216]	@ (8002ca0 <HAL_RCC_ClockConfig+0x150>)
 8002bc8:	6812      	ldr	r2, [r2, #0]
 8002bca:	f012 0f02 	tst.w	r2, #2
 8002bce:	d061      	beq.n	8002c94 <HAL_RCC_ClockConfig+0x144>
    __HAL_RCC_SYSCLK_CONFIG(RCC_ClkInitStruct->SYSCLKSource);
 8002bd0:	4933      	ldr	r1, [pc, #204]	@ (8002ca0 <HAL_RCC_ClockConfig+0x150>)
 8002bd2:	688a      	ldr	r2, [r1, #8]
 8002bd4:	f022 0203 	bic.w	r2, r2, #3
 8002bd8:	4313      	orrs	r3, r2
 8002bda:	608b      	str	r3, [r1, #8]
    tickstart = HAL_GetTick();
 8002bdc:	f7ff f8e6 	bl	8001dac <HAL_GetTick>
 8002be0:	4606      	mov	r6, r0
    while (__HAL_RCC_GET_SYSCLK_SOURCE() != (RCC_ClkInitStruct->SYSCLKSource << RCC_CFGR_SWS_Pos))
 8002be2:	4b2f      	ldr	r3, [pc, #188]	@ (8002ca0 <HAL_RCC_ClockConfig+0x150>)
 8002be4:	689b      	ldr	r3, [r3, #8]
 8002be6:	f003 030c 	and.w	r3, r3, #12
 8002bea:	6862      	ldr	r2, [r4, #4]
 8002bec:	ebb3 0f82 	cmp.w	r3, r2, lsl #2
 8002bf0:	d016      	beq.n	8002c20 <HAL_RCC_ClockConfig+0xd0>
      if ((HAL_GetTick() - tickstart) > CLOCKSWITCH_TIMEOUT_VALUE)
 8002bf2:	f7ff f8db 	bl	8001dac <HAL_GetTick>
 8002bf6:	1b80      	subs	r0, r0, r6
 8002bf8:	f241 3388 	movw	r3, #5000	@ 0x1388
 8002bfc:	4298      	cmp	r0, r3
 8002bfe:	d9f0      	bls.n	8002be2 <HAL_RCC_ClockConfig+0x92>
        return HAL_TIMEOUT;
 8002c00:	2003      	movs	r0, #3
 8002c02:	e042      	b.n	8002c8a <HAL_RCC_ClockConfig+0x13a>
      if (__HAL_RCC_GET_FLAG(RCC_FLAG_HSERDY) == RESET)
 8002c04:	4a26      	ldr	r2, [pc, #152]	@ (8002ca0 <HAL_RCC_ClockConfig+0x150>)
 8002c06:	6812      	ldr	r2, [r2, #0]
 8002c08:	f412 3f00 	tst.w	r2, #131072	@ 0x20000
 8002c0c:	d1e0      	bne.n	8002bd0 <HAL_RCC_ClockConfig+0x80>
        return HAL_ERROR;
 8002c0e:	2001      	movs	r0, #1
 8002c10:	e03b      	b.n	8002c8a <HAL_RCC_ClockConfig+0x13a>
      if (__HAL_RCC_GET_FLAG(RCC_FLAG_PLLRDY) == RESET)
 8002c12:	4a23      	ldr	r2, [pc, #140]	@ (8002ca0 <HAL_RCC_ClockConfig+0x150>)
 8002c14:	6812      	ldr	r2, [r2, #0]
 8002c16:	f012 7f00 	tst.w	r2, #33554432	@ 0x2000000
 8002c1a:	d1d9      	bne.n	8002bd0 <HAL_RCC_ClockConfig+0x80>
        return HAL_ERROR;
 8002c1c:	2001      	movs	r0, #1
 8002c1e:	e034      	b.n	8002c8a <HAL_RCC_ClockConfig+0x13a>
  if (FLatency < __HAL_FLASH_GET_LATENCY())
 8002c20:	4b1e      	ldr	r3, [pc, #120]	@ (8002c9c <HAL_RCC_ClockConfig+0x14c>)
 8002c22:	681b      	ldr	r3, [r3, #0]
 8002c24:	f003 0307 	and.w	r3, r3, #7
 8002c28:	42ab      	cmp	r3, r5
 8002c2a:	d907      	bls.n	8002c3c <HAL_RCC_ClockConfig+0xec>
    __HAL_FLASH_SET_LATENCY(FLatency);
 8002c2c:	b2ea      	uxtb	r2, r5
 8002c2e:	4b1b      	ldr	r3, [pc, #108]	@ (8002c9c <HAL_RCC_ClockConfig+0x14c>)
 8002c30:	701a      	strb	r2, [r3, #0]
    if (__HAL_FLASH_GET_LATENCY() != FLatency)
 8002c32:	681b      	ldr	r3, [r3, #0]
 8002c34:	f003 0307 	and.w	r3, r3, #7
 8002c38:	42ab      	cmp	r3, r5
 8002c3a:	d12d      	bne.n	8002c98 <HAL_RCC_ClockConfig+0x148>
  if (((RCC_ClkInitStruct->ClockType) & RCC_CLOCKTYPE_PCLK1) == RCC_CLOCKTYPE_PCLK1)
 8002c3c:	6823      	ldr	r3, [r4, #0]
 8002c3e:	f013 0f04 	tst.w	r3, #4
 8002c42:	d006      	beq.n	8002c52 <HAL_RCC_ClockConfig+0x102>
    MODIFY_REG(RCC->CFGR, RCC_CFGR_PPRE1, RCC_ClkInitStruct->APB1CLKDivider);
 8002c44:	4a16      	ldr	r2, [pc, #88]	@ (8002ca0 <HAL_RCC_ClockConfig+0x150>)
 8002c46:	6893      	ldr	r3, [r2, #8]
 8002c48:	f423 53e0 	bic.w	r3, r3, #7168	@ 0x1c00
 8002c4c:	68e1      	ldr	r1, [r4, #12]
 8002c4e:	430b      	orrs	r3, r1
 8002c50:	6093      	str	r3, [r2, #8]
  if (((RCC_ClkInitStruct->ClockType) & RCC_CLOCKTYPE_PCLK2) == RCC_CLOCKTYPE_PCLK2)
 8002c52:	6823      	ldr	r3, [r4, #0]
 8002c54:	f013 0f08 	tst.w	r3, #8
 8002c58:	d007      	beq.n	8002c6a <HAL_RCC_ClockConfig+0x11a>
    MODIFY_REG(RCC->CFGR, RCC_CFGR_PPRE2, ((RCC_ClkInitStruct->APB2CLKDivider) << 3U));
 8002c5a:	4a11      	ldr	r2, [pc, #68]	@ (8002ca0 <HAL_RCC_ClockConfig+0x150>)
 8002c5c:	6893      	ldr	r3, [r2, #8]
 8002c5e:	f423 4360 	bic.w	r3, r3, #57344	@ 0xe000
 8002c62:	6921      	ldr	r1, [r4, #16]
 8002c64:	ea43 03c1 	orr.w	r3, r3, r1, lsl #3
 8002c68:	6093      	str	r3, [r2, #8]
  SystemCoreClock = HAL_RCC_GetSysClockFreq() >> AHBPrescTable[(RCC->CFGR & RCC_CFGR_HPRE) >> RCC_CFGR_HPRE_Pos];
 8002c6a:	f7ff ff09 	bl	8002a80 <HAL_RCC_GetSysClockFreq>
 8002c6e:	4b0c      	ldr	r3, [pc, #48]	@ (8002ca0 <HAL_RCC_ClockConfig+0x150>)
 8002c70:	689b      	ldr	r3, [r3, #8]
 8002c72:	f3c3 1303 	ubfx	r3, r3, #4, #4
 8002c76:	4a0b      	ldr	r2, [pc, #44]	@ (8002ca4 <HAL_RCC_ClockConfig+0x154>)
 8002c78:	5cd3      	ldrb	r3, [r2, r3]
 8002c7a:	40d8      	lsrs	r0, r3
 8002c7c:	4b0a      	ldr	r3, [pc, #40]	@ (8002ca8 <HAL_RCC_ClockConfig+0x158>)
 8002c7e:	6018      	str	r0, [r3, #0]
  HAL_InitTick(uwTickPrio);
 8002c80:	4b0a      	ldr	r3, [pc, #40]	@ (8002cac <HAL_RCC_ClockConfig+0x15c>)
 8002c82:	6818      	ldr	r0, [r3, #0]
 8002c84:	f7fe ff6a 	bl	8001b5c <HAL_InitTick>
  return HAL_OK;
 8002c88:	2000      	movs	r0, #0
}
 8002c8a:	bd70      	pop	{r4, r5, r6, pc}
    return HAL_ERROR;
 8002c8c:	2001      	movs	r0, #1
}
 8002c8e:	4770      	bx	lr
      return HAL_ERROR;
 8002c90:	2001      	movs	r0, #1
 8002c92:	e7fa      	b.n	8002c8a <HAL_RCC_ClockConfig+0x13a>
        return HAL_ERROR;
 8002c94:	2001      	movs	r0, #1
 8002c96:	e7f8      	b.n	8002c8a <HAL_RCC_ClockConfig+0x13a>
      return HAL_ERROR;
 8002c98:	2001      	movs	r0, #1
 8002c9a:	e7f6      	b.n	8002c8a <HAL_RCC_ClockConfig+0x13a>
 8002c9c:	40023c00 	.word	0x40023c00
 8002ca0:	40023800 	.word	0x40023800
 8002ca4:	08008ec0 	.word	0x08008ec0
 8002ca8:	20000020 	.word	0x20000020
 8002cac:	20000028 	.word	0x20000028

08002cb0 <HAL_RCC_GetHCLKFreq>:
  * @retval HCLK frequency
  */
uint32_t HAL_RCC_GetHCLKFreq(void)
{
  return SystemCoreClock;
}
 8002cb0:	4b01      	ldr	r3, [pc, #4]	@ (8002cb8 <HAL_RCC_GetHCLKFreq+0x8>)
 8002cb2:	6818      	ldr	r0, [r3, #0]
 8002cb4:	4770      	bx	lr
 8002cb6:	bf00      	nop
 8002cb8:	20000020 	.word	0x20000020

08002cbc <HAL_RCC_GetPCLK1Freq>:
  * @note   Each time PCLK1 changes, this function must be called to update the
  *         right PCLK1 value. Otherwise, any configuration based on this function will be incorrect.
  * @retval PCLK1 frequency
  */
uint32_t HAL_RCC_GetPCLK1Freq(void)
{
 8002cbc:	b508      	push	{r3, lr}
  /* Get HCLK source and Compute PCLK1 frequency ---------------------------*/
  return (HAL_RCC_GetHCLKFreq() >> APBPrescTable[(RCC->CFGR & RCC_CFGR_PPRE1) >> RCC_CFGR_PPRE1_Pos]);
 8002cbe:	f7ff fff7 	bl	8002cb0 <HAL_RCC_GetHCLKFreq>
 8002cc2:	4b04      	ldr	r3, [pc, #16]	@ (8002cd4 <HAL_RCC_GetPCLK1Freq+0x18>)
 8002cc4:	689b      	ldr	r3, [r3, #8]
 8002cc6:	f3c3 2382 	ubfx	r3, r3, #10, #3
 8002cca:	4a03      	ldr	r2, [pc, #12]	@ (8002cd8 <HAL_RCC_GetPCLK1Freq+0x1c>)
 8002ccc:	5cd3      	ldrb	r3, [r2, r3]
}
 8002cce:	40d8      	lsrs	r0, r3
 8002cd0:	bd08      	pop	{r3, pc}
 8002cd2:	bf00      	nop
 8002cd4:	40023800 	.word	0x40023800
 8002cd8:	08008eb8 	.word	0x08008eb8

08002cdc <HAL_RCC_GetPCLK2Freq>:
  * @note   Each time PCLK2 changes, this function must be called to update the
  *         right PCLK2 value. Otherwise, any configuration based on this function will be incorrect.
  * @retval PCLK2 frequency
  */
uint32_t HAL_RCC_GetPCLK2Freq(void)
{
 8002cdc:	b508      	push	{r3, lr}
  /* Get HCLK source and Compute PCLK2 frequency ---------------------------*/
  return (HAL_RCC_GetHCLKFreq() >> APBPrescTable[(RCC->CFGR & RCC_CFGR_PPRE2) >> RCC_CFGR_PPRE2_Pos]);
 8002cde:	f7ff ffe7 	bl	8002cb0 <HAL_RCC_GetHCLKFreq>
 8002ce2:	4b04      	ldr	r3, [pc, #16]	@ (8002cf4 <HAL_RCC_GetPCLK2Freq+0x18>)
 8002ce4:	689b      	ldr	r3, [r3, #8]
 8002ce6:	f3c3 3342 	ubfx	r3, r3, #13, #3
 8002cea:	4a03      	ldr	r2, [pc, #12]	@ (8002cf8 <HAL_RCC_GetPCLK2Freq+0x1c>)
 8002cec:	5cd3      	ldrb	r3, [r2, r3]
}
 8002cee:	40d8      	lsrs	r0, r3
 8002cf0:	bd08      	pop	{r3, pc}
 8002cf2:	bf00      	nop
 8002cf4:	40023800 	.word	0x40023800
 8002cf8:	08008eb8 	.word	0x08008eb8

08002cfc <HAL_RCC_GetClockConfig>:
  * @retval None
  */
void HAL_RCC_GetClockConfig(RCC_ClkInitTypeDef  *RCC_ClkInitStruct, uint32_t *pFLatency)
{
  /* Set all possible values for the Clock type parameter --------------------*/
  RCC_ClkInitStruct->ClockType = RCC_CLOCKTYPE_SYSCLK | RCC_CLOCKTYPE_HCLK | RCC_CLOCKTYPE_PCLK1 | RCC_CLOCKTYPE_PCLK2;
 8002cfc:	230f      	movs	r3, #15
 8002cfe:	6003      	str	r3, [r0, #0]

  /* Get the SYSCLK configuration --------------------------------------------*/
  RCC_ClkInitStruct->SYSCLKSource = (uint32_t)(RCC->CFGR & RCC_CFGR_SW);
 8002d00:	4b0b      	ldr	r3, [pc, #44]	@ (8002d30 <HAL_RCC_GetClockConfig+0x34>)
 8002d02:	689a      	ldr	r2, [r3, #8]
 8002d04:	f002 0203 	and.w	r2, r2, #3
 8002d08:	6042      	str	r2, [r0, #4]

  /* Get the HCLK configuration ----------------------------------------------*/
  RCC_ClkInitStruct->AHBCLKDivider = (uint32_t)(RCC->CFGR & RCC_CFGR_HPRE);
 8002d0a:	689a      	ldr	r2, [r3, #8]
 8002d0c:	f002 02f0 	and.w	r2, r2, #240	@ 0xf0
 8002d10:	6082      	str	r2, [r0, #8]

  /* Get the APB1 configuration ----------------------------------------------*/
  RCC_ClkInitStruct->APB1CLKDivider = (uint32_t)(RCC->CFGR & RCC_CFGR_PPRE1);
 8002d12:	689a      	ldr	r2, [r3, #8]
 8002d14:	f402 52e0 	and.w	r2, r2, #7168	@ 0x1c00
 8002d18:	60c2      	str	r2, [r0, #12]

  /* Get the APB2 configuration ----------------------------------------------*/
  RCC_ClkInitStruct->APB2CLKDivider = (uint32_t)((RCC->CFGR & RCC_CFGR_PPRE2) >> 3U);
 8002d1a:	689b      	ldr	r3, [r3, #8]
 8002d1c:	08db      	lsrs	r3, r3, #3
 8002d1e:	f403 53e0 	and.w	r3, r3, #7168	@ 0x1c00
 8002d22:	6103      	str	r3, [r0, #16]

  /* Get the Flash Wait State (Latency) configuration ------------------------*/
  *pFLatency = (uint32_t)(FLASH->ACR & FLASH_ACR_LATENCY);
 8002d24:	4b03      	ldr	r3, [pc, #12]	@ (8002d34 <HAL_RCC_GetClockConfig+0x38>)
 8002d26:	681b      	ldr	r3, [r3, #0]
 8002d28:	f003 0307 	and.w	r3, r3, #7
 8002d2c:	600b      	str	r3, [r1, #0]
}
 8002d2e:	4770      	bx	lr
 8002d30:	40023800 	.word	0x40023800
 8002d34:	40023c00 	.word	0x40023c00

08002d38 <TIM_TI1_ConfigInputStage>:
  * @param  TIM_ICFilter Specifies the Input Capture Filter.
  *          This parameter must be a value between 0x00 and 0x0F.
  * @retval None
  */
static void TIM_TI1_ConfigInputStage(TIM_TypeDef *TIMx, uint32_t TIM_ICPolarity, uint32_t TIM_ICFilter)
{
 8002d38:	b410      	push	{r4}
  uint32_t tmpccmr1;
  uint32_t tmpccer;

  /* Disable the Channel 1: Reset the CC1E Bit */
  tmpccer = TIMx->CCER;
 8002d3a:	6a03      	ldr	r3, [r0, #32]
  TIMx->CCER &= ~TIM_CCER_CC1E;
 8002d3c:	6a04      	ldr	r4, [r0, #32]
 8002d3e:	f024 0401 	bic.w	r4, r4, #1
 8002d42:	6204      	str	r4, [r0, #32]
  tmpccmr1 = TIMx->CCMR1;
 8002d44:	6984      	ldr	r4, [r0, #24]

  /* Set the filter */
  tmpccmr1 &= ~TIM_CCMR1_IC1F;
 8002d46:	f024 0cf0 	bic.w	ip, r4, #240	@ 0xf0
  tmpccmr1 |= (TIM_ICFilter << 4U);
 8002d4a:	ea4c 1202 	orr.w	r2, ip, r2, lsl #4

  /* Select the Polarity and set the CC1E Bit */
  tmpccer &= ~(TIM_CCER_CC1P | TIM_CCER_CC1NP);
 8002d4e:	f023 030a 	bic.w	r3, r3, #10
  tmpccer |= TIM_ICPolarity;
 8002d52:	430b      	orrs	r3, r1

  /* Write to TIMx CCMR1 and CCER registers */
  TIMx->CCMR1 = tmpccmr1;
 8002d54:	6182      	str	r2, [r0, #24]
  TIMx->CCER = tmpccer;
 8002d56:	6203      	str	r3, [r0, #32]
}
 8002d58:	f85d 4b04 	ldr.w	r4, [sp], #4
 8002d5c:	4770      	bx	lr

08002d5e <TIM_TI2_ConfigInputStage>:
  * @param  TIM_ICFilter Specifies the Input Capture Filter.
  *          This parameter must be a value between 0x00 and 0x0F.
  * @retval None
  */
static void TIM_TI2_ConfigInputStage(TIM_TypeDef *TIMx, uint32_t TIM_ICPolarity, uint32_t TIM_ICFilter)
{
 8002d5e:	b410      	push	{r4}
  uint32_t tmpccmr1;
  uint32_t tmpccer;

  /* Disable the Channel 2: Reset the CC2E Bit */
  tmpccer = TIMx->CCER;
 8002d60:	6a03      	ldr	r3, [r0, #32]
  TIMx->CCER &= ~TIM_CCER_CC2E;
 8002d62:	6a04      	ldr	r4, [r0, #32]
 8002d64:	f024 0410 	bic.w	r4, r4, #16
 8002d68:	6204      	str	r4, [r0, #32]
  tmpccmr1 = TIMx->CCMR1;
 8002d6a:	6984      	ldr	r4, [r0, #24]

  /* Set the filter */
  tmpccmr1 &= ~TIM_CCMR1_IC2F;
 8002d6c:	f424 4c70 	bic.w	ip, r4, #61440	@ 0xf000
  tmpccmr1 |= (TIM_ICFilter << 12U);
 8002d70:	ea4c 3202 	orr.w	r2, ip, r2, lsl #12

  /* Select the Polarity and set the CC2E Bit */
  tmpccer &= ~(TIM_CCER_CC2P | TIM_CCER_CC2NP);
 8002d74:	f023 03a0 	bic.w	r3, r3, #160	@ 0xa0
  tmpccer |= (TIM_ICPolarity << 4U);
 8002d78:	ea43 1301 	orr.w	r3, r3, r1, lsl #4

  /* Write to TIMx CCMR1 and CCER registers */
  TIMx->CCMR1 = tmpccmr1 ;
 8002d7c:	6182      	str	r2, [r0, #24]
  TIMx->CCER = tmpccer;
 8002d7e:	6203      	str	r3, [r0, #32]
}
 8002d80:	f85d 4b04 	ldr.w	r4, [sp], #4
 8002d84:	4770      	bx	lr

08002d86 <TIM_ITRx_SetConfig>:
static void TIM_ITRx_SetConfig(TIM_TypeDef *TIMx, uint32_t InputTriggerSource)
{
  uint32_t tmpsmcr;

  /* Get the TIMx SMCR register value */
  tmpsmcr = TIMx->SMCR;
 8002d86:	6883      	ldr	r3, [r0, #8]
  /* Reset the TS Bits */
  tmpsmcr &= ~TIM_SMCR_TS;
 8002d88:	f023 0370 	bic.w	r3, r3, #112	@ 0x70
  /* Set the Input Trigger source and the slave mode*/
  tmpsmcr |= (InputTriggerSource | TIM_SLAVEMODE_EXTERNAL1);
 8002d8c:	430b      	orrs	r3, r1
 8002d8e:	f043 0307 	orr.w	r3, r3, #7
  /* Write to TIMx SMCR */
  TIMx->SMCR = tmpsmcr;
 8002d92:	6083      	str	r3, [r0, #8]
}
 8002d94:	4770      	bx	lr
	...

08002d98 <HAL_TIM_Base_Start_IT>:
  if (htim->State != HAL_TIM_STATE_READY)
 8002d98:	f890 303d 	ldrb.w	r3, [r0, #61]	@ 0x3d
 8002d9c:	b2db      	uxtb	r3, r3
 8002d9e:	2b01      	cmp	r3, #1
 8002da0:	d137      	bne.n	8002e12 <HAL_TIM_Base_Start_IT+0x7a>
  htim->State = HAL_TIM_STATE_BUSY;
 8002da2:	2302      	movs	r3, #2
 8002da4:	f880 303d 	strb.w	r3, [r0, #61]	@ 0x3d
  __HAL_TIM_ENABLE_IT(htim, TIM_IT_UPDATE);
 8002da8:	6802      	ldr	r2, [r0, #0]
 8002daa:	68d3      	ldr	r3, [r2, #12]
 8002dac:	f043 0301 	orr.w	r3, r3, #1
 8002db0:	60d3      	str	r3, [r2, #12]
  if (IS_TIM_SLAVE_INSTANCE(htim->Instance))
 8002db2:	6803      	ldr	r3, [r0, #0]
 8002db4:	4a19      	ldr	r2, [pc, #100]	@ (8002e1c <HAL_TIM_Base_Start_IT+0x84>)
 8002db6:	4293      	cmp	r3, r2
 8002db8:	d020      	beq.n	8002dfc <HAL_TIM_Base_Start_IT+0x64>
 8002dba:	f1b3 4f80 	cmp.w	r3, #1073741824	@ 0x40000000
 8002dbe:	d01d      	beq.n	8002dfc <HAL_TIM_Base_Start_IT+0x64>
 8002dc0:	f5a2 427c 	sub.w	r2, r2, #64512	@ 0xfc00
 8002dc4:	4293      	cmp	r3, r2
 8002dc6:	d019      	beq.n	8002dfc <HAL_TIM_Base_Start_IT+0x64>
 8002dc8:	f502 6280 	add.w	r2, r2, #1024	@ 0x400
 8002dcc:	4293      	cmp	r3, r2
 8002dce:	d015      	beq.n	8002dfc <HAL_TIM_Base_Start_IT+0x64>
 8002dd0:	f502 6280 	add.w	r2, r2, #1024	@ 0x400
 8002dd4:	4293      	cmp	r3, r2
 8002dd6:	d011      	beq.n	8002dfc <HAL_TIM_Base_Start_IT+0x64>
 8002dd8:	f502 4278 	add.w	r2, r2, #63488	@ 0xf800
 8002ddc:	4293      	cmp	r3, r2
 8002dde:	d00d      	beq.n	8002dfc <HAL_TIM_Base_Start_IT+0x64>
 8002de0:	f502 5270 	add.w	r2, r2, #15360	@ 0x3c00
 8002de4:	4293      	cmp	r3, r2
 8002de6:	d009      	beq.n	8002dfc <HAL_TIM_Base_Start_IT+0x64>
 8002de8:	f5a2 3294 	sub.w	r2, r2, #75776	@ 0x12800
 8002dec:	4293      	cmp	r3, r2
 8002dee:	d005      	beq.n	8002dfc <HAL_TIM_Base_Start_IT+0x64>
    __HAL_TIM_ENABLE(htim);
 8002df0:	681a      	ldr	r2, [r3, #0]
 8002df2:	f042 0201 	orr.w	r2, r2, #1
 8002df6:	601a      	str	r2, [r3, #0]
  return HAL_OK;
 8002df8:	2000      	movs	r0, #0
 8002dfa:	4770      	bx	lr
    tmpsmcr = htim->Instance->SMCR & TIM_SMCR_SMS;
 8002dfc:	689a      	ldr	r2, [r3, #8]
 8002dfe:	f002 0207 	and.w	r2, r2, #7
    if (!IS_TIM_SLAVEMODE_TRIGGER_ENABLED(tmpsmcr))
 8002e02:	2a06      	cmp	r2, #6
 8002e04:	d007      	beq.n	8002e16 <HAL_TIM_Base_Start_IT+0x7e>
      __HAL_TIM_ENABLE(htim);
 8002e06:	681a      	ldr	r2, [r3, #0]
 8002e08:	f042 0201 	orr.w	r2, r2, #1
 8002e0c:	601a      	str	r2, [r3, #0]
  return HAL_OK;
 8002e0e:	2000      	movs	r0, #0
 8002e10:	4770      	bx	lr
    return HAL_ERROR;
 8002e12:	2001      	movs	r0, #1
 8002e14:	4770      	bx	lr
  return HAL_OK;
 8002e16:	2000      	movs	r0, #0
}
 8002e18:	4770      	bx	lr
 8002e1a:	bf00      	nop
 8002e1c:	40010000 	.word	0x40010000

08002e20 <HAL_TIM_OC_DelayElapsedCallback>:
}
 8002e20:	4770      	bx	lr

08002e22 <HAL_TIM_IC_CaptureCallback>:
}
 8002e22:	4770      	bx	lr

08002e24 <HAL_TIM_PWM_PulseFinishedCallback>:
}
 8002e24:	4770      	bx	lr

08002e26 <HAL_TIM_TriggerCallback>:
}
 8002e26:	4770      	bx	lr

08002e28 <HAL_TIM_IRQHandler>:
{
 8002e28:	b570      	push	{r4, r5, r6, lr}
 8002e2a:	4604      	mov	r4, r0
  uint32_t itsource = htim->Instance->DIER;
 8002e2c:	6803      	ldr	r3, [r0, #0]
 8002e2e:	68de      	ldr	r6, [r3, #12]
  uint32_t itflag   = htim->Instance->SR;
 8002e30:	691d      	ldr	r5, [r3, #16]
  if ((itflag & (TIM_FLAG_CC1)) == (TIM_FLAG_CC1))
 8002e32:	f015 0f02 	tst.w	r5, #2
 8002e36:	d010      	beq.n	8002e5a <HAL_TIM_IRQHandler+0x32>
    if ((itsource & (TIM_IT_CC1)) == (TIM_IT_CC1))
 8002e38:	f016 0f02 	tst.w	r6, #2
 8002e3c:	d00d      	beq.n	8002e5a <HAL_TIM_IRQHandler+0x32>
        __HAL_TIM_CLEAR_FLAG(htim, TIM_FLAG_CC1);
 8002e3e:	f06f 0202 	mvn.w	r2, #2
 8002e42:	611a      	str	r2, [r3, #16]
        htim->Channel = HAL_TIM_ACTIVE_CHANNEL_1;
 8002e44:	2301      	movs	r3, #1
 8002e46:	7703      	strb	r3, [r0, #28]
        if ((htim->Instance->CCMR1 & TIM_CCMR1_CC1S) != 0x00U)
 8002e48:	6803      	ldr	r3, [r0, #0]
 8002e4a:	699b      	ldr	r3, [r3, #24]
 8002e4c:	f013 0f03 	tst.w	r3, #3
 8002e50:	d05e      	beq.n	8002f10 <HAL_TIM_IRQHandler+0xe8>
          HAL_TIM_IC_CaptureCallback(htim);
 8002e52:	f7ff ffe6 	bl	8002e22 <HAL_TIM_IC_CaptureCallback>
        htim->Channel = HAL_TIM_ACTIVE_CHANNEL_CLEARED;
 8002e56:	2300      	movs	r3, #0
 8002e58:	7723      	strb	r3, [r4, #28]
  if ((itflag & (TIM_FLAG_CC2)) == (TIM_FLAG_CC2))
 8002e5a:	f015 0f04 	tst.w	r5, #4
 8002e5e:	d012      	beq.n	8002e86 <HAL_TIM_IRQHandler+0x5e>
    if ((itsource & (TIM_IT_CC2)) == (TIM_IT_CC2))
 8002e60:	f016 0f04 	tst.w	r6, #4
 8002e64:	d00f      	beq.n	8002e86 <HAL_TIM_IRQHandler+0x5e>
      __HAL_TIM_CLEAR_FLAG(htim, TIM_FLAG_CC2);
 8002e66:	6823      	ldr	r3, [r4, #0]
 8002e68:	f06f 0204 	mvn.w	r2, #4
 8002e6c:	611a      	str	r2, [r3, #16]
      htim->Channel = HAL_TIM_ACTIVE_CHANNEL_2;
 8002e6e:	2302      	movs	r3, #2
 8002e70:	7723      	strb	r3, [r4, #28]
      if ((htim->Instance->CCMR1 & TIM_CCMR1_CC2S) != 0x00U)
 8002e72:	6823      	ldr	r3, [r4, #0]
 8002e74:	699b      	ldr	r3, [r3, #24]
 8002e76:	f413 7f40 	tst.w	r3, #768	@ 0x300
 8002e7a:	d04f      	beq.n	8002f1c <HAL_TIM_IRQHandler+0xf4>
        HAL_TIM_IC_CaptureCallback(htim);
 8002e7c:	4620      	mov	r0, r4
 8002e7e:	f7ff ffd0 	bl	8002e22 <HAL_TIM_IC_CaptureCallback>
      htim->Channel = HAL_TIM_ACTIVE_CHANNEL_CLEARED;
 8002e82:	2300      	movs	r3, #0
 8002e84:	7723      	strb	r3, [r4, #28]
  if ((itflag & (TIM_FLAG_CC3)) == (TIM_FLAG_CC3))
 8002e86:	f015 0f08 	tst.w	r5, #8
 8002e8a:	d012      	beq.n	8002eb2 <HAL_TIM_IRQHandler+0x8a>
    if ((itsource & (TIM_IT_CC3)) == (TIM_IT_CC3))
 8002e8c:	f016 0f08 	tst.w	r6, #8
 8002e90:	d00f      	beq.n	8002eb2 <HAL_TIM_IRQHandler+0x8a>
      __HAL_TIM_CLEAR_FLAG(htim, TIM_FLAG_CC3);
 8002e92:	6823      	ldr	r3, [r4, #0]
 8002e94:	f06f 0208 	mvn.w	r2, #8
 8002e98:	611a      	str	r2, [r3, #16]
      htim->Channel = HAL_TIM_ACTIVE_CHANNEL_3;
 8002e9a:	2304      	movs	r3, #4
 8002e9c:	7723      	strb	r3, [r4, #28]
      if ((htim->Instance->CCMR2 & TIM_CCMR2_CC3S) != 0x00U)
 8002e9e:	6823      	ldr	r3, [r4, #0]
 8002ea0:	69db      	ldr	r3, [r3, #28]
 8002ea2:	f013 0f03 	tst.w	r3, #3
 8002ea6:	d040      	beq.n	8002f2a <HAL_TIM_IRQHandler+0x102>
        HAL_TIM_IC_CaptureCallback(htim);
 8002ea8:	4620      	mov	r0, r4
 8002eaa:	f7ff ffba 	bl	8002e22 <HAL_TIM_IC_CaptureCallback>
      htim->Channel = HAL_TIM_ACTIVE_CHANNEL_CLEARED;
 8002eae:	2300      	movs	r3, #0
 8002eb0:	7723      	strb	r3, [r4, #28]
  if ((itflag & (TIM_FLAG_CC4)) == (TIM_FLAG_CC4))
 8002eb2:	f015 0f10 	tst.w	r5, #16
 8002eb6:	d012      	beq.n	8002ede <HAL_TIM_IRQHandler+0xb6>
    if ((itsource & (TIM_IT_CC4)) == (TIM_IT_CC4))
 8002eb8:	f016 0f10 	tst.w	r6, #16
 8002ebc:	d00f      	beq.n	8002ede <HAL_TIM_IRQHandler+0xb6>
      __HAL_TIM_CLEAR_FLAG(htim, TIM_FLAG_CC4);
 8002ebe:	6823      	ldr	r3, [r4, #0]
 8002ec0:	f06f 0210 	mvn.w	r2, #16
 8002ec4:	611a      	str	r2, [r3, #16]
      htim->Channel = HAL_TIM_ACTIVE_CHANNEL_4;
 8002ec6:	2308      	movs	r3, #8
 8002ec8:	7723      	strb	r3, [r4, #28]
      if ((htim->Instance->CCMR2 & TIM_CCMR2_CC4S) != 0x00U)
 8002eca:	6823      	ldr	r3, [r4, #0]
 8002ecc:	69db      	ldr	r3, [r3, #28]
 8002ece:	f413 7f40 	tst.w	r3, #768	@ 0x300
 8002ed2:	d031      	beq.n	8002f38 <HAL_TIM_IRQHandler+0x110>
        HAL_TIM_IC_CaptureCallback(htim);
 8002ed4:	4620      	mov	r0, r4
 8002ed6:	f7ff ffa4 	bl	8002e22 <HAL_TIM_IC_CaptureCallback>
      htim->Channel = HAL_TIM_ACTIVE_CHANNEL_CLEARED;
 8002eda:	2300      	movs	r3, #0
 8002edc:	7723      	strb	r3, [r4, #28]
  if ((itflag & (TIM_FLAG_UPDATE)) == (TIM_FLAG_UPDATE))
 8002ede:	f015 0f01 	tst.w	r5, #1
 8002ee2:	d002      	beq.n	8002eea <HAL_TIM_IRQHandler+0xc2>
    if ((itsource & (TIM_IT_UPDATE)) == (TIM_IT_UPDATE))
 8002ee4:	f016 0f01 	tst.w	r6, #1
 8002ee8:	d12d      	bne.n	8002f46 <HAL_TIM_IRQHandler+0x11e>
  if ((itflag & (TIM_FLAG_BREAK)) == (TIM_FLAG_BREAK))
 8002eea:	f015 0f80 	tst.w	r5, #128	@ 0x80
 8002eee:	d002      	beq.n	8002ef6 <HAL_TIM_IRQHandler+0xce>
    if ((itsource & (TIM_IT_BREAK)) == (TIM_IT_BREAK))
 8002ef0:	f016 0f80 	tst.w	r6, #128	@ 0x80
 8002ef4:	d12f      	bne.n	8002f56 <HAL_TIM_IRQHandler+0x12e>
  if ((itflag & (TIM_FLAG_TRIGGER)) == (TIM_FLAG_TRIGGER))
 8002ef6:	f015 0f40 	tst.w	r5, #64	@ 0x40
 8002efa:	d002      	beq.n	8002f02 <HAL_TIM_IRQHandler+0xda>
    if ((itsource & (TIM_IT_TRIGGER)) == (TIM_IT_TRIGGER))
 8002efc:	f016 0f40 	tst.w	r6, #64	@ 0x40
 8002f00:	d131      	bne.n	8002f66 <HAL_TIM_IRQHandler+0x13e>
  if ((itflag & (TIM_FLAG_COM)) == (TIM_FLAG_COM))
 8002f02:	f015 0f20 	tst.w	r5, #32
 8002f06:	d002      	beq.n	8002f0e <HAL_TIM_IRQHandler+0xe6>
    if ((itsource & (TIM_IT_COM)) == (TIM_IT_COM))
 8002f08:	f016 0f20 	tst.w	r6, #32
 8002f0c:	d133      	bne.n	8002f76 <HAL_TIM_IRQHandler+0x14e>
}
 8002f0e:	bd70      	pop	{r4, r5, r6, pc}
          HAL_TIM_OC_DelayElapsedCallback(htim);
 8002f10:	f7ff ff86 	bl	8002e20 <HAL_TIM_OC_DelayElapsedCallback>
          HAL_TIM_PWM_PulseFinishedCallback(htim);
 8002f14:	4620      	mov	r0, r4
 8002f16:	f7ff ff85 	bl	8002e24 <HAL_TIM_PWM_PulseFinishedCallback>
 8002f1a:	e79c      	b.n	8002e56 <HAL_TIM_IRQHandler+0x2e>
        HAL_TIM_OC_DelayElapsedCallback(htim);
 8002f1c:	4620      	mov	r0, r4
 8002f1e:	f7ff ff7f 	bl	8002e20 <HAL_TIM_OC_DelayElapsedCallback>
        HAL_TIM_PWM_PulseFinishedCallback(htim);
 8002f22:	4620      	mov	r0, r4
 8002f24:	f7ff ff7e 	bl	8002e24 <HAL_TIM_PWM_PulseFinishedCallback>
 8002f28:	e7ab      	b.n	8002e82 <HAL_TIM_IRQHandler+0x5a>
        HAL_TIM_OC_DelayElapsedCallback(htim);
 8002f2a:	4620      	mov	r0, r4
 8002f2c:	f7ff ff78 	bl	8002e20 <HAL_TIM_OC_DelayElapsedCallback>
        HAL_TIM_PWM_PulseFinishedCallback(htim);
 8002f30:	4620      	mov	r0, r4
 8002f32:	f7ff ff77 	bl	8002e24 <HAL_TIM_PWM_PulseFinishedCallback>
 8002f36:	e7ba      	b.n	8002eae <HAL_TIM_IRQHandler+0x86>
        HAL_TIM_OC_DelayElapsedCallback(htim);
 8002f38:	4620      	mov	r0, r4
 8002f3a:	f7ff ff71 	bl	8002e20 <HAL_TIM_OC_DelayElapsedCallback>
        HAL_TIM_PWM_PulseFinishedCallback(htim);
 8002f3e:	4620      	mov	r0, r4
 8002f40:	f7ff ff70 	bl	8002e24 <HAL_TIM_PWM_PulseFinishedCallback>
 8002f44:	e7c9      	b.n	8002eda <HAL_TIM_IRQHandler+0xb2>
      __HAL_TIM_CLEAR_FLAG(htim, TIM_FLAG_UPDATE);
 8002f46:	6823      	ldr	r3, [r4, #0]
 8002f48:	f06f 0201 	mvn.w	r2, #1
 8002f4c:	611a      	str	r2, [r3, #16]
      HAL_TIM_PeriodElapsedCallback(htim);
 8002f4e:	4620      	mov	r0, r4
 8002f50:	f7fe fac4 	bl	80014dc <HAL_TIM_PeriodElapsedCallback>
 8002f54:	e7c9      	b.n	8002eea <HAL_TIM_IRQHandler+0xc2>
      __HAL_TIM_CLEAR_FLAG(htim, TIM_FLAG_BREAK);
 8002f56:	6823      	ldr	r3, [r4, #0]
 8002f58:	f06f 0280 	mvn.w	r2, #128	@ 0x80
 8002f5c:	611a      	str	r2, [r3, #16]
      HAL_TIMEx_BreakCallback(htim);
 8002f5e:	4620      	mov	r0, r4
 8002f60:	f000 f97d 	bl	800325e <HAL_TIMEx_BreakCallback>
 8002f64:	e7c7      	b.n	8002ef6 <HAL_TIM_IRQHandler+0xce>
      __HAL_TIM_CLEAR_FLAG(htim, TIM_FLAG_TRIGGER);
 8002f66:	6823      	ldr	r3, [r4, #0]
 8002f68:	f06f 0240 	mvn.w	r2, #64	@ 0x40
 8002f6c:	611a      	str	r2, [r3, #16]
      HAL_TIM_TriggerCallback(htim);
 8002f6e:	4620      	mov	r0, r4
 8002f70:	f7ff ff59 	bl	8002e26 <HAL_TIM_TriggerCallback>
 8002f74:	e7c5      	b.n	8002f02 <HAL_TIM_IRQHandler+0xda>
      __HAL_TIM_CLEAR_FLAG(htim, TIM_FLAG_COM);
 8002f76:	6823      	ldr	r3, [r4, #0]
 8002f78:	f06f 0220 	mvn.w	r2, #32
 8002f7c:	611a      	str	r2, [r3, #16]
      HAL_TIMEx_CommutCallback(htim);
 8002f7e:	4620      	mov	r0, r4
 8002f80:	f000 f96c 	bl	800325c <HAL_TIMEx_CommutCallback>
}
 8002f84:	e7c3      	b.n	8002f0e <HAL_TIM_IRQHandler+0xe6>
	...

08002f88 <TIM_Base_SetConfig>:
  tmpcr1 = TIMx->CR1;
 8002f88:	6803      	ldr	r3, [r0, #0]
  if (IS_TIM_COUNTER_MODE_SELECT_INSTANCE(TIMx))
 8002f8a:	4a34      	ldr	r2, [pc, #208]	@ (800305c <TIM_Base_SetConfig+0xd4>)
 8002f8c:	4290      	cmp	r0, r2
 8002f8e:	d012      	beq.n	8002fb6 <TIM_Base_SetConfig+0x2e>
 8002f90:	f1b0 4f80 	cmp.w	r0, #1073741824	@ 0x40000000
 8002f94:	d00f      	beq.n	8002fb6 <TIM_Base_SetConfig+0x2e>
 8002f96:	f5a2 427c 	sub.w	r2, r2, #64512	@ 0xfc00
 8002f9a:	4290      	cmp	r0, r2
 8002f9c:	d00b      	beq.n	8002fb6 <TIM_Base_SetConfig+0x2e>
 8002f9e:	f502 6280 	add.w	r2, r2, #1024	@ 0x400
 8002fa2:	4290      	cmp	r0, r2
 8002fa4:	d007      	beq.n	8002fb6 <TIM_Base_SetConfig+0x2e>
 8002fa6:	f502 6280 	add.w	r2, r2, #1024	@ 0x400
 8002faa:	4290      	cmp	r0, r2
 8002fac:	d003      	beq.n	8002fb6 <TIM_Base_SetConfig+0x2e>
 8002fae:	f502 4278 	add.w	r2, r2, #63488	@ 0xf800
 8002fb2:	4290      	cmp	r0, r2
 8002fb4:	d103      	bne.n	8002fbe <TIM_Base_SetConfig+0x36>
    tmpcr1 &= ~(TIM_CR1_DIR | TIM_CR1_CMS);
 8002fb6:	f023 0370 	bic.w	r3, r3, #112	@ 0x70
    tmpcr1 |= Structure->CounterMode;
 8002fba:	684a      	ldr	r2, [r1, #4]
 8002fbc:	4313      	orrs	r3, r2
  if (IS_TIM_CLOCK_DIVISION_INSTANCE(TIMx))
 8002fbe:	4a27      	ldr	r2, [pc, #156]	@ (800305c <TIM_Base_SetConfig+0xd4>)
 8002fc0:	4290      	cmp	r0, r2
 8002fc2:	d02a      	beq.n	800301a <TIM_Base_SetConfig+0x92>
 8002fc4:	f1b0 4f80 	cmp.w	r0, #1073741824	@ 0x40000000
 8002fc8:	d027      	beq.n	800301a <TIM_Base_SetConfig+0x92>
 8002fca:	f5a2 427c 	sub.w	r2, r2, #64512	@ 0xfc00
 8002fce:	4290      	cmp	r0, r2
 8002fd0:	d023      	beq.n	800301a <TIM_Base_SetConfig+0x92>
 8002fd2:	f502 6280 	add.w	r2, r2, #1024	@ 0x400
 8002fd6:	4290      	cmp	r0, r2
 8002fd8:	d01f      	beq.n	800301a <TIM_Base_SetConfig+0x92>
 8002fda:	f502 6280 	add.w	r2, r2, #1024	@ 0x400
 8002fde:	4290      	cmp	r0, r2
 8002fe0:	d01b      	beq.n	800301a <TIM_Base_SetConfig+0x92>
 8002fe2:	f502 4278 	add.w	r2, r2, #63488	@ 0xf800
 8002fe6:	4290      	cmp	r0, r2
 8002fe8:	d017      	beq.n	800301a <TIM_Base_SetConfig+0x92>
 8002fea:	f502 5270 	add.w	r2, r2, #15360	@ 0x3c00
 8002fee:	4290      	cmp	r0, r2
 8002ff0:	d013      	beq.n	800301a <TIM_Base_SetConfig+0x92>
 8002ff2:	f502 6280 	add.w	r2, r2, #1024	@ 0x400
 8002ff6:	4290      	cmp	r0, r2
 8002ff8:	d00f      	beq.n	800301a <TIM_Base_SetConfig+0x92>
 8002ffa:	f502 6280 	add.w	r2, r2, #1024	@ 0x400
 8002ffe:	4290      	cmp	r0, r2
 8003000:	d00b      	beq.n	800301a <TIM_Base_SetConfig+0x92>
 8003002:	f5a2 3298 	sub.w	r2, r2, #77824	@ 0x13000
 8003006:	4290      	cmp	r0, r2
 8003008:	d007      	beq.n	800301a <TIM_Base_SetConfig+0x92>
 800300a:	f502 6280 	add.w	r2, r2, #1024	@ 0x400
 800300e:	4290      	cmp	r0, r2
 8003010:	d003      	beq.n	800301a <TIM_Base_SetConfig+0x92>
 8003012:	f502 6280 	add.w	r2, r2, #1024	@ 0x400
 8003016:	4290      	cmp	r0, r2
 8003018:	d103      	bne.n	8003022 <TIM_Base_SetConfig+0x9a>
    tmpcr1 &= ~TIM_CR1_CKD;
 800301a:	f423 7340 	bic.w	r3, r3, #768	@ 0x300
    tmpcr1 |= (uint32_t)Structure->ClockDivision;
 800301e:	68ca      	ldr	r2, [r1, #12]
 8003020:	4313      	orrs	r3, r2
  MODIFY_REG(tmpcr1, TIM_CR1_ARPE, Structure->AutoReloadPreload);
 8003022:	f023 0380 	bic.w	r3, r3, #128	@ 0x80
 8003026:	694a      	ldr	r2, [r1, #20]
 8003028:	4313      	orrs	r3, r2
  TIMx->CR1 = tmpcr1;
 800302a:	6003      	str	r3, [r0, #0]
  TIMx->ARR = (uint32_t)Structure->Period ;
 800302c:	688b      	ldr	r3, [r1, #8]
 800302e:	62c3      	str	r3, [r0, #44]	@ 0x2c
  TIMx->PSC = Structure->Prescaler;
 8003030:	680b      	ldr	r3, [r1, #0]
 8003032:	6283      	str	r3, [r0, #40]	@ 0x28
  if (IS_TIM_REPETITION_COUNTER_INSTANCE(TIMx))
 8003034:	4b09      	ldr	r3, [pc, #36]	@ (800305c <TIM_Base_SetConfig+0xd4>)
 8003036:	4298      	cmp	r0, r3
 8003038:	d003      	beq.n	8003042 <TIM_Base_SetConfig+0xba>
 800303a:	f503 6380 	add.w	r3, r3, #1024	@ 0x400
 800303e:	4298      	cmp	r0, r3
 8003040:	d101      	bne.n	8003046 <TIM_Base_SetConfig+0xbe>
    TIMx->RCR = Structure->RepetitionCounter;
 8003042:	690b      	ldr	r3, [r1, #16]
 8003044:	6303      	str	r3, [r0, #48]	@ 0x30
  TIMx->EGR = TIM_EGR_UG;
 8003046:	2301      	movs	r3, #1
 8003048:	6143      	str	r3, [r0, #20]
  if (HAL_IS_BIT_SET(TIMx->SR, TIM_FLAG_UPDATE))
 800304a:	6903      	ldr	r3, [r0, #16]
 800304c:	f013 0f01 	tst.w	r3, #1
 8003050:	d003      	beq.n	800305a <TIM_Base_SetConfig+0xd2>
    CLEAR_BIT(TIMx->SR, TIM_FLAG_UPDATE);
 8003052:	6903      	ldr	r3, [r0, #16]
 8003054:	f023 0301 	bic.w	r3, r3, #1
 8003058:	6103      	str	r3, [r0, #16]
}
 800305a:	4770      	bx	lr
 800305c:	40010000 	.word	0x40010000

08003060 <HAL_TIM_Base_Init>:
  if (htim == NULL)
 8003060:	b340      	cbz	r0, 80030b4 <HAL_TIM_Base_Init+0x54>
{
 8003062:	b510      	push	{r4, lr}
 8003064:	4604      	mov	r4, r0
  if (htim->State == HAL_TIM_STATE_RESET)
 8003066:	f890 303d 	ldrb.w	r3, [r0, #61]	@ 0x3d
 800306a:	b1f3      	cbz	r3, 80030aa <HAL_TIM_Base_Init+0x4a>
  htim->State = HAL_TIM_STATE_BUSY;
 800306c:	2302      	movs	r3, #2
 800306e:	f884 303d 	strb.w	r3, [r4, #61]	@ 0x3d
  TIM_Base_SetConfig(htim->Instance, &htim->Init);
 8003072:	4621      	mov	r1, r4
 8003074:	f851 0b04 	ldr.w	r0, [r1], #4
 8003078:	f7ff ff86 	bl	8002f88 <TIM_Base_SetConfig>
  htim->DMABurstState = HAL_DMA_BURST_STATE_READY;
 800307c:	2301      	movs	r3, #1
 800307e:	f884 3046 	strb.w	r3, [r4, #70]	@ 0x46
  TIM_CHANNEL_STATE_SET_ALL(htim, HAL_TIM_CHANNEL_STATE_READY);
 8003082:	f884 303e 	strb.w	r3, [r4, #62]	@ 0x3e
 8003086:	f884 303f 	strb.w	r3, [r4, #63]	@ 0x3f
 800308a:	f884 3040 	strb.w	r3, [r4, #64]	@ 0x40
 800308e:	f884 3041 	strb.w	r3, [r4, #65]	@ 0x41
  TIM_CHANNEL_N_STATE_SET_ALL(htim, HAL_TIM_CHANNEL_STATE_READY);
 8003092:	f884 3042 	strb.w	r3, [r4, #66]	@ 0x42
 8003096:	f884 3043 	strb.w	r3, [r4, #67]	@ 0x43
 800309a:	f884 3044 	strb.w	r3, [r4, #68]	@ 0x44
 800309e:	f884 3045 	strb.w	r3, [r4, #69]	@ 0x45
  htim->State = HAL_TIM_STATE_READY;
 80030a2:	f884 303d 	strb.w	r3, [r4, #61]	@ 0x3d
  return HAL_OK;
 80030a6:	2000      	movs	r0, #0
}
 80030a8:	bd10      	pop	{r4, pc}
    htim->Lock = HAL_UNLOCKED;
 80030aa:	f880 303c 	strb.w	r3, [r0, #60]	@ 0x3c
    HAL_TIM_Base_MspInit(htim);
 80030ae:	f7fe fcd5 	bl	8001a5c <HAL_TIM_Base_MspInit>
 80030b2:	e7db      	b.n	800306c <HAL_TIM_Base_Init+0xc>
    return HAL_ERROR;
 80030b4:	2001      	movs	r0, #1
}
 80030b6:	4770      	bx	lr

080030b8 <TIM_ETR_SetConfig>:
  *          This parameter must be a value between 0x00 and 0x0F
  * @retval None
  */
void TIM_ETR_SetConfig(TIM_TypeDef *TIMx, uint32_t TIM_ExtTRGPrescaler,
                       uint32_t TIM_ExtTRGPolarity, uint32_t ExtTRGFilter)
{
 80030b8:	b410      	push	{r4}
  uint32_t tmpsmcr;

  tmpsmcr = TIMx->SMCR;
 80030ba:	6884      	ldr	r4, [r0, #8]

  /* Reset the ETR Bits */
  tmpsmcr &= ~(TIM_SMCR_ETF | TIM_SMCR_ETPS | TIM_SMCR_ECE | TIM_SMCR_ETP);
 80030bc:	f424 4c7f 	bic.w	ip, r4, #65280	@ 0xff00

  /* Set the Prescaler, the Filter value and the Polarity */
  tmpsmcr |= (uint32_t)(TIM_ExtTRGPrescaler | (TIM_ExtTRGPolarity | (ExtTRGFilter << 8U)));
 80030c0:	ea42 2203 	orr.w	r2, r2, r3, lsl #8
 80030c4:	430a      	orrs	r2, r1
 80030c6:	ea42 020c 	orr.w	r2, r2, ip

  /* Write to TIMx SMCR */
  TIMx->SMCR = tmpsmcr;
 80030ca:	6082      	str	r2, [r0, #8]
}
 80030cc:	f85d 4b04 	ldr.w	r4, [sp], #4
 80030d0:	4770      	bx	lr

080030d2 <HAL_TIM_ConfigClockSource>:
  __HAL_LOCK(htim);
 80030d2:	f890 303c 	ldrb.w	r3, [r0, #60]	@ 0x3c
 80030d6:	2b01      	cmp	r3, #1
 80030d8:	d078      	beq.n	80031cc <HAL_TIM_ConfigClockSource+0xfa>
{
 80030da:	b510      	push	{r4, lr}
 80030dc:	4604      	mov	r4, r0
  __HAL_LOCK(htim);
 80030de:	2301      	movs	r3, #1
 80030e0:	f880 303c 	strb.w	r3, [r0, #60]	@ 0x3c
  htim->State = HAL_TIM_STATE_BUSY;
 80030e4:	2302      	movs	r3, #2
 80030e6:	f880 303d 	strb.w	r3, [r0, #61]	@ 0x3d
  tmpsmcr = htim->Instance->SMCR;
 80030ea:	6802      	ldr	r2, [r0, #0]
 80030ec:	6893      	ldr	r3, [r2, #8]
  tmpsmcr &= ~(TIM_SMCR_ETF | TIM_SMCR_ETPS | TIM_SMCR_ECE | TIM_SMCR_ETP);
 80030ee:	f423 437f 	bic.w	r3, r3, #65280	@ 0xff00
 80030f2:	f023 0377 	bic.w	r3, r3, #119	@ 0x77
  htim->Instance->SMCR = tmpsmcr;
 80030f6:	6093      	str	r3, [r2, #8]
  switch (sClockSourceConfig->ClockSource)
 80030f8:	680b      	ldr	r3, [r1, #0]
 80030fa:	2b60      	cmp	r3, #96	@ 0x60
 80030fc:	d04c      	beq.n	8003198 <HAL_TIM_ConfigClockSource+0xc6>
 80030fe:	d829      	bhi.n	8003154 <HAL_TIM_ConfigClockSource+0x82>
 8003100:	2b40      	cmp	r3, #64	@ 0x40
 8003102:	d054      	beq.n	80031ae <HAL_TIM_ConfigClockSource+0xdc>
 8003104:	d90c      	bls.n	8003120 <HAL_TIM_ConfigClockSource+0x4e>
 8003106:	2b50      	cmp	r3, #80	@ 0x50
 8003108:	d122      	bne.n	8003150 <HAL_TIM_ConfigClockSource+0x7e>
      TIM_TI1_ConfigInputStage(htim->Instance,
 800310a:	68ca      	ldr	r2, [r1, #12]
 800310c:	6849      	ldr	r1, [r1, #4]
 800310e:	6800      	ldr	r0, [r0, #0]
 8003110:	f7ff fe12 	bl	8002d38 <TIM_TI1_ConfigInputStage>
      TIM_ITRx_SetConfig(htim->Instance, TIM_CLOCKSOURCE_TI1);
 8003114:	2150      	movs	r1, #80	@ 0x50
 8003116:	6820      	ldr	r0, [r4, #0]
 8003118:	f7ff fe35 	bl	8002d86 <TIM_ITRx_SetConfig>
  HAL_StatusTypeDef status = HAL_OK;
 800311c:	2000      	movs	r0, #0
      break;
 800311e:	e005      	b.n	800312c <HAL_TIM_ConfigClockSource+0x5a>
  switch (sClockSourceConfig->ClockSource)
 8003120:	2b20      	cmp	r3, #32
 8003122:	d00d      	beq.n	8003140 <HAL_TIM_ConfigClockSource+0x6e>
 8003124:	d909      	bls.n	800313a <HAL_TIM_ConfigClockSource+0x68>
 8003126:	2b30      	cmp	r3, #48	@ 0x30
 8003128:	d00a      	beq.n	8003140 <HAL_TIM_ConfigClockSource+0x6e>
      status = HAL_ERROR;
 800312a:	2001      	movs	r0, #1
  htim->State = HAL_TIM_STATE_READY;
 800312c:	2301      	movs	r3, #1
 800312e:	f884 303d 	strb.w	r3, [r4, #61]	@ 0x3d
  __HAL_UNLOCK(htim);
 8003132:	2300      	movs	r3, #0
 8003134:	f884 303c 	strb.w	r3, [r4, #60]	@ 0x3c
}
 8003138:	bd10      	pop	{r4, pc}
  switch (sClockSourceConfig->ClockSource)
 800313a:	b10b      	cbz	r3, 8003140 <HAL_TIM_ConfigClockSource+0x6e>
 800313c:	2b10      	cmp	r3, #16
 800313e:	d105      	bne.n	800314c <HAL_TIM_ConfigClockSource+0x7a>
      TIM_ITRx_SetConfig(htim->Instance, sClockSourceConfig->ClockSource);
 8003140:	4619      	mov	r1, r3
 8003142:	6820      	ldr	r0, [r4, #0]
 8003144:	f7ff fe1f 	bl	8002d86 <TIM_ITRx_SetConfig>
  HAL_StatusTypeDef status = HAL_OK;
 8003148:	2000      	movs	r0, #0
      break;
 800314a:	e7ef      	b.n	800312c <HAL_TIM_ConfigClockSource+0x5a>
      status = HAL_ERROR;
 800314c:	2001      	movs	r0, #1
 800314e:	e7ed      	b.n	800312c <HAL_TIM_ConfigClockSource+0x5a>
 8003150:	2001      	movs	r0, #1
 8003152:	e7eb      	b.n	800312c <HAL_TIM_ConfigClockSource+0x5a>
  switch (sClockSourceConfig->ClockSource)
 8003154:	f5b3 5f80 	cmp.w	r3, #4096	@ 0x1000
 8003158:	d034      	beq.n	80031c4 <HAL_TIM_ConfigClockSource+0xf2>
 800315a:	f5b3 5f00 	cmp.w	r3, #8192	@ 0x2000
 800315e:	d10c      	bne.n	800317a <HAL_TIM_ConfigClockSource+0xa8>
      TIM_ETR_SetConfig(htim->Instance,
 8003160:	68cb      	ldr	r3, [r1, #12]
 8003162:	684a      	ldr	r2, [r1, #4]
 8003164:	6889      	ldr	r1, [r1, #8]
 8003166:	6800      	ldr	r0, [r0, #0]
 8003168:	f7ff ffa6 	bl	80030b8 <TIM_ETR_SetConfig>
      htim->Instance->SMCR |= TIM_SMCR_ECE;
 800316c:	6822      	ldr	r2, [r4, #0]
 800316e:	6893      	ldr	r3, [r2, #8]
 8003170:	f443 4380 	orr.w	r3, r3, #16384	@ 0x4000
 8003174:	6093      	str	r3, [r2, #8]
  HAL_StatusTypeDef status = HAL_OK;
 8003176:	2000      	movs	r0, #0
      break;
 8003178:	e7d8      	b.n	800312c <HAL_TIM_ConfigClockSource+0x5a>
  switch (sClockSourceConfig->ClockSource)
 800317a:	2b70      	cmp	r3, #112	@ 0x70
 800317c:	d124      	bne.n	80031c8 <HAL_TIM_ConfigClockSource+0xf6>
      TIM_ETR_SetConfig(htim->Instance,
 800317e:	68cb      	ldr	r3, [r1, #12]
 8003180:	684a      	ldr	r2, [r1, #4]
 8003182:	6889      	ldr	r1, [r1, #8]
 8003184:	6800      	ldr	r0, [r0, #0]
 8003186:	f7ff ff97 	bl	80030b8 <TIM_ETR_SetConfig>
      tmpsmcr = htim->Instance->SMCR;
 800318a:	6822      	ldr	r2, [r4, #0]
 800318c:	6893      	ldr	r3, [r2, #8]
      tmpsmcr |= (TIM_SLAVEMODE_EXTERNAL1 | TIM_CLOCKSOURCE_ETRMODE1);
 800318e:	f043 0377 	orr.w	r3, r3, #119	@ 0x77
      htim->Instance->SMCR = tmpsmcr;
 8003192:	6093      	str	r3, [r2, #8]
  HAL_StatusTypeDef status = HAL_OK;
 8003194:	2000      	movs	r0, #0
      break;
 8003196:	e7c9      	b.n	800312c <HAL_TIM_ConfigClockSource+0x5a>
      TIM_TI2_ConfigInputStage(htim->Instance,
 8003198:	68ca      	ldr	r2, [r1, #12]
 800319a:	6849      	ldr	r1, [r1, #4]
 800319c:	6800      	ldr	r0, [r0, #0]
 800319e:	f7ff fdde 	bl	8002d5e <TIM_TI2_ConfigInputStage>
      TIM_ITRx_SetConfig(htim->Instance, TIM_CLOCKSOURCE_TI2);
 80031a2:	2160      	movs	r1, #96	@ 0x60
 80031a4:	6820      	ldr	r0, [r4, #0]
 80031a6:	f7ff fdee 	bl	8002d86 <TIM_ITRx_SetConfig>
  HAL_StatusTypeDef status = HAL_OK;
 80031aa:	2000      	movs	r0, #0
      break;
 80031ac:	e7be      	b.n	800312c <HAL_TIM_ConfigClockSource+0x5a>
      TIM_TI1_ConfigInputStage(htim->Instance,
 80031ae:	68ca      	ldr	r2, [r1, #12]
 80031b0:	6849      	ldr	r1, [r1, #4]
 80031b2:	6800      	ldr	r0, [r0, #0]
 80031b4:	f7ff fdc0 	bl	8002d38 <TIM_TI1_ConfigInputStage>
      TIM_ITRx_SetConfig(htim->Instance, TIM_CLOCKSOURCE_TI1ED);
 80031b8:	2140      	movs	r1, #64	@ 0x40
 80031ba:	6820      	ldr	r0, [r4, #0]
 80031bc:	f7ff fde3 	bl	8002d86 <TIM_ITRx_SetConfig>
  HAL_StatusTypeDef status = HAL_OK;
 80031c0:	2000      	movs	r0, #0
      break;
 80031c2:	e7b3      	b.n	800312c <HAL_TIM_ConfigClockSource+0x5a>
  switch (sClockSourceConfig->ClockSource)
 80031c4:	2000      	movs	r0, #0
 80031c6:	e7b1      	b.n	800312c <HAL_TIM_ConfigClockSource+0x5a>
      status = HAL_ERROR;
 80031c8:	2001      	movs	r0, #1
 80031ca:	e7af      	b.n	800312c <HAL_TIM_ConfigClockSource+0x5a>
  __HAL_LOCK(htim);
 80031cc:	2002      	movs	r0, #2
}
 80031ce:	4770      	bx	lr

080031d0 <HAL_TIMEx_MasterConfigSynchronization>:
  assert_param(IS_TIM_MASTER_INSTANCE(htim->Instance));
  assert_param(IS_TIM_TRGO_SOURCE(sMasterConfig->MasterOutputTrigger));
  assert_param(IS_TIM_MSM_STATE(sMasterConfig->MasterSlaveMode));

  /* Check input state */
  __HAL_LOCK(htim);
 80031d0:	f890 203c 	ldrb.w	r2, [r0, #60]	@ 0x3c
 80031d4:	2a01      	cmp	r2, #1
 80031d6:	d03d      	beq.n	8003254 <HAL_TIMEx_MasterConfigSynchronization+0x84>
{
 80031d8:	b410      	push	{r4}
 80031da:	4603      	mov	r3, r0
  __HAL_LOCK(htim);
 80031dc:	2201      	movs	r2, #1
 80031de:	f880 203c 	strb.w	r2, [r0, #60]	@ 0x3c

  /* Change the handler state */
  htim->State = HAL_TIM_STATE_BUSY;
 80031e2:	2202      	movs	r2, #2
 80031e4:	f880 203d 	strb.w	r2, [r0, #61]	@ 0x3d

  /* Get the TIMx CR2 register value */
  tmpcr2 = htim->Instance->CR2;
 80031e8:	6802      	ldr	r2, [r0, #0]
 80031ea:	6850      	ldr	r0, [r2, #4]

  /* Get the TIMx SMCR register value */
  tmpsmcr = htim->Instance->SMCR;
 80031ec:	6894      	ldr	r4, [r2, #8]

  /* Reset the MMS Bits */
  tmpcr2 &= ~TIM_CR2_MMS;
 80031ee:	f020 0c70 	bic.w	ip, r0, #112	@ 0x70
  /* Select the TRGO source */
  tmpcr2 |=  sMasterConfig->MasterOutputTrigger;
 80031f2:	6808      	ldr	r0, [r1, #0]
 80031f4:	ea40 000c 	orr.w	r0, r0, ip

  /* Update TIMx CR2 */
  htim->Instance->CR2 = tmpcr2;
 80031f8:	6050      	str	r0, [r2, #4]

  if (IS_TIM_SLAVE_INSTANCE(htim->Instance))
 80031fa:	681a      	ldr	r2, [r3, #0]
 80031fc:	4816      	ldr	r0, [pc, #88]	@ (8003258 <HAL_TIMEx_MasterConfigSynchronization+0x88>)
 80031fe:	4282      	cmp	r2, r0
 8003200:	d01a      	beq.n	8003238 <HAL_TIMEx_MasterConfigSynchronization+0x68>
 8003202:	f1b2 4f80 	cmp.w	r2, #1073741824	@ 0x40000000
 8003206:	d017      	beq.n	8003238 <HAL_TIMEx_MasterConfigSynchronization+0x68>
 8003208:	f5a0 407c 	sub.w	r0, r0, #64512	@ 0xfc00
 800320c:	4282      	cmp	r2, r0
 800320e:	d013      	beq.n	8003238 <HAL_TIMEx_MasterConfigSynchronization+0x68>
 8003210:	f500 6080 	add.w	r0, r0, #1024	@ 0x400
 8003214:	4282      	cmp	r2, r0
 8003216:	d00f      	beq.n	8003238 <HAL_TIMEx_MasterConfigSynchronization+0x68>
 8003218:	f500 6080 	add.w	r0, r0, #1024	@ 0x400
 800321c:	4282      	cmp	r2, r0
 800321e:	d00b      	beq.n	8003238 <HAL_TIMEx_MasterConfigSynchronization+0x68>
 8003220:	f500 4078 	add.w	r0, r0, #63488	@ 0xf800
 8003224:	4282      	cmp	r2, r0
 8003226:	d007      	beq.n	8003238 <HAL_TIMEx_MasterConfigSynchronization+0x68>
 8003228:	f500 5070 	add.w	r0, r0, #15360	@ 0x3c00
 800322c:	4282      	cmp	r2, r0
 800322e:	d003      	beq.n	8003238 <HAL_TIMEx_MasterConfigSynchronization+0x68>
 8003230:	f5a0 3094 	sub.w	r0, r0, #75776	@ 0x12800
 8003234:	4282      	cmp	r2, r0
 8003236:	d104      	bne.n	8003242 <HAL_TIMEx_MasterConfigSynchronization+0x72>
  {
    /* Reset the MSM Bit */
    tmpsmcr &= ~TIM_SMCR_MSM;
 8003238:	f024 0480 	bic.w	r4, r4, #128	@ 0x80
    /* Set master mode */
    tmpsmcr |= sMasterConfig->MasterSlaveMode;
 800323c:	6849      	ldr	r1, [r1, #4]
 800323e:	4321      	orrs	r1, r4

    /* Update TIMx SMCR */
    htim->Instance->SMCR = tmpsmcr;
 8003240:	6091      	str	r1, [r2, #8]
  }

  /* Change the htim state */
  htim->State = HAL_TIM_STATE_READY;
 8003242:	2201      	movs	r2, #1
 8003244:	f883 203d 	strb.w	r2, [r3, #61]	@ 0x3d

  __HAL_UNLOCK(htim);
 8003248:	2000      	movs	r0, #0
 800324a:	f883 003c 	strb.w	r0, [r3, #60]	@ 0x3c

  return HAL_OK;
}
 800324e:	f85d 4b04 	ldr.w	r4, [sp], #4
 8003252:	4770      	bx	lr
  __HAL_LOCK(htim);
 8003254:	2002      	movs	r0, #2
}
 8003256:	4770      	bx	lr
 8003258:	40010000 	.word	0x40010000

0800325c <HAL_TIMEx_CommutCallback>:
  UNUSED(htim);

  /* NOTE : This function should not be modified, when the callback is needed,
            the HAL_TIMEx_CommutCallback could be implemented in the user file
   */
}
 800325c:	4770      	bx	lr

0800325e <HAL_TIMEx_BreakCallback>:
  UNUSED(htim);

  /* NOTE : This function should not be modified, when the callback is needed,
            the HAL_TIMEx_BreakCallback could be implemented in the user file
   */
}
 800325e:	4770      	bx	lr

08003260 <UART_EndRxTransfer>:
  * @retval None
  */
static void UART_EndRxTransfer(UART_HandleTypeDef *huart)
{
  /* Disable RXNE, PE and ERR (Frame error, noise error, overrun error) interrupts */
  ATOMIC_CLEAR_BIT(huart->Instance->CR1, (USART_CR1_RXNEIE | USART_CR1_PEIE));
 8003260:	6802      	ldr	r2, [r0, #0]
   __ASM volatile ("ldrex %0, %1" : "=r" (result) : "Q" (*addr) );
 8003262:	f102 030c 	add.w	r3, r2, #12
 8003266:	e853 3f00 	ldrex	r3, [r3]
 800326a:	f423 7390 	bic.w	r3, r3, #288	@ 0x120
   __ASM volatile ("strex %0, %2, %1" : "=&r" (result), "=Q" (*addr) : "r" (value) );
 800326e:	320c      	adds	r2, #12
 8003270:	e842 3100 	strex	r1, r3, [r2]
 8003274:	2900      	cmp	r1, #0
 8003276:	d1f3      	bne.n	8003260 <UART_EndRxTransfer>
  ATOMIC_CLEAR_BIT(huart->Instance->CR3, USART_CR3_EIE);
 8003278:	6802      	ldr	r2, [r0, #0]
   __ASM volatile ("ldrex %0, %1" : "=r" (result) : "Q" (*addr) );
 800327a:	f102 0314 	add.w	r3, r2, #20
 800327e:	e853 3f00 	ldrex	r3, [r3]
 8003282:	f023 0301 	bic.w	r3, r3, #1
   __ASM volatile ("strex %0, %2, %1" : "=&r" (result), "=Q" (*addr) : "r" (value) );
 8003286:	3214      	adds	r2, #20
 8003288:	e842 3100 	strex	r1, r3, [r2]
 800328c:	2900      	cmp	r1, #0
 800328e:	d1f3      	bne.n	8003278 <UART_EndRxTransfer+0x18>

  /* In case of reception waiting for IDLE event, disable also the IDLE IE interrupt source */
  if (huart->ReceptionType == HAL_UART_RECEPTION_TOIDLE)
 8003290:	6b03      	ldr	r3, [r0, #48]	@ 0x30
 8003292:	2b01      	cmp	r3, #1
 8003294:	d005      	beq.n	80032a2 <UART_EndRxTransfer+0x42>
  {
    ATOMIC_CLEAR_BIT(huart->Instance->CR1, USART_CR1_IDLEIE);
  }

  /* At end of Rx process, restore huart->RxState to Ready */
  huart->RxState = HAL_UART_STATE_READY;
 8003296:	2320      	movs	r3, #32
 8003298:	f880 3042 	strb.w	r3, [r0, #66]	@ 0x42
  huart->ReceptionType = HAL_UART_RECEPTION_STANDARD;
 800329c:	2300      	movs	r3, #0
 800329e:	6303      	str	r3, [r0, #48]	@ 0x30
}
 80032a0:	4770      	bx	lr
    ATOMIC_CLEAR_BIT(huart->Instance->CR1, USART_CR1_IDLEIE);
 80032a2:	6802      	ldr	r2, [r0, #0]
   __ASM volatile ("ldrex %0, %1" : "=r" (result) : "Q" (*addr) );
 80032a4:	f102 030c 	add.w	r3, r2, #12
 80032a8:	e853 3f00 	ldrex	r3, [r3]
 80032ac:	f023 0310 	bic.w	r3, r3, #16
   __ASM volatile ("strex %0, %2, %1" : "=&r" (result), "=Q" (*addr) : "r" (value) );
 80032b0:	320c      	adds	r2, #12
 80032b2:	e842 3100 	strex	r1, r3, [r2]
 80032b6:	2900      	cmp	r1, #0
 80032b8:	d1f3      	bne.n	80032a2 <UART_EndRxTransfer+0x42>
 80032ba:	e7ec      	b.n	8003296 <UART_EndRxTransfer+0x36>

080032bc <UART_SetConfig>:
  * @param  huart  Pointer to a UART_HandleTypeDef structure that contains
  *                the configuration information for the specified UART module.
  * @retval None
  */
static void UART_SetConfig(UART_HandleTypeDef *huart)
{
 80032bc:	b510      	push	{r4, lr}
 80032be:	4604      	mov	r4, r0
  assert_param(IS_UART_MODE(huart->Init.Mode));

  /*-------------------------- USART CR2 Configuration -----------------------*/
  /* Configure the UART Stop Bits: Set STOP[13:12] bits
     according to huart->Init.StopBits value */
  MODIFY_REG(huart->Instance->CR2, USART_CR2_STOP, huart->Init.StopBits);
 80032c0:	6802      	ldr	r2, [r0, #0]
 80032c2:	6913      	ldr	r3, [r2, #16]
 80032c4:	f423 5340 	bic.w	r3, r3, #12288	@ 0x3000
 80032c8:	68c1      	ldr	r1, [r0, #12]
 80032ca:	430b      	orrs	r3, r1
 80032cc:	6113      	str	r3, [r2, #16]
     Set the M bits according to huart->Init.WordLength value
     Set PCE and PS bits according to huart->Init.Parity value
     Set TE and RE bits according to huart->Init.Mode value
     Set OVER8 bit according to huart->Init.OverSampling value */

  tmpreg = (uint32_t)huart->Init.WordLength | huart->Init.Parity | huart->Init.Mode | huart->Init.OverSampling;
 80032ce:	6883      	ldr	r3, [r0, #8]
 80032d0:	6902      	ldr	r2, [r0, #16]
 80032d2:	431a      	orrs	r2, r3
 80032d4:	6943      	ldr	r3, [r0, #20]
 80032d6:	431a      	orrs	r2, r3
 80032d8:	69c3      	ldr	r3, [r0, #28]
 80032da:	431a      	orrs	r2, r3
  MODIFY_REG(huart->Instance->CR1,
 80032dc:	6801      	ldr	r1, [r0, #0]
 80032de:	68cb      	ldr	r3, [r1, #12]
 80032e0:	f423 4316 	bic.w	r3, r3, #38400	@ 0x9600
 80032e4:	f023 030c 	bic.w	r3, r3, #12
 80032e8:	4313      	orrs	r3, r2
 80032ea:	60cb      	str	r3, [r1, #12]
             (uint32_t)(USART_CR1_M | USART_CR1_PCE | USART_CR1_PS | USART_CR1_TE | USART_CR1_RE | USART_CR1_OVER8),
             tmpreg);

  /*-------------------------- USART CR3 Configuration -----------------------*/
  /* Configure the UART HFC: Set CTSE and RTSE bits according to huart->Init.HwFlowCtl value */
  MODIFY_REG(huart->Instance->CR3, (USART_CR3_RTSE | USART_CR3_CTSE), huart->Init.HwFlowCtl);
 80032ec:	6802      	ldr	r2, [r0, #0]
 80032ee:	6953      	ldr	r3, [r2, #20]
 80032f0:	f423 7340 	bic.w	r3, r3, #768	@ 0x300
 80032f4:	6981      	ldr	r1, [r0, #24]
 80032f6:	430b      	orrs	r3, r1
 80032f8:	6153      	str	r3, [r2, #20]
    if ((huart->Instance == USART1) || (huart->Instance == USART6) || (huart->Instance == UART9) || (huart->Instance == UART10))
    {
      pclk = HAL_RCC_GetPCLK2Freq();
    }
#elif defined(USART6)
    if ((huart->Instance == USART1) || (huart->Instance == USART6))
 80032fa:	6803      	ldr	r3, [r0, #0]
 80032fc:	4a31      	ldr	r2, [pc, #196]	@ (80033c4 <UART_SetConfig+0x108>)
 80032fe:	4293      	cmp	r3, r2
 8003300:	d006      	beq.n	8003310 <UART_SetConfig+0x54>
 8003302:	f502 6280 	add.w	r2, r2, #1024	@ 0x400
 8003306:	4293      	cmp	r3, r2
 8003308:	d002      	beq.n	8003310 <UART_SetConfig+0x54>
      pclk = HAL_RCC_GetPCLK2Freq();
    }
#endif /* USART6 */
    else
    {
      pclk = HAL_RCC_GetPCLK1Freq();
 800330a:	f7ff fcd7 	bl	8002cbc <HAL_RCC_GetPCLK1Freq>
 800330e:	e001      	b.n	8003314 <UART_SetConfig+0x58>
      pclk = HAL_RCC_GetPCLK2Freq();
 8003310:	f7ff fce4 	bl	8002cdc <HAL_RCC_GetPCLK2Freq>
    }
  /*-------------------------- USART BRR Configuration ---------------------*/
  if (huart->Init.OverSampling == UART_OVERSAMPLING_8)
 8003314:	69e3      	ldr	r3, [r4, #28]
 8003316:	f5b3 4f00 	cmp.w	r3, #32768	@ 0x8000
 800331a:	d029      	beq.n	8003370 <UART_SetConfig+0xb4>
  {
    huart->Instance->BRR = UART_BRR_SAMPLING8(pclk, huart->Init.BaudRate);
  }
  else
  {
    huart->Instance->BRR = UART_BRR_SAMPLING16(pclk, huart->Init.BaudRate);
 800331c:	2100      	movs	r1, #0
 800331e:	1803      	adds	r3, r0, r0
 8003320:	4149      	adcs	r1, r1
 8003322:	181b      	adds	r3, r3, r0
 8003324:	f141 0100 	adc.w	r1, r1, #0
 8003328:	00c9      	lsls	r1, r1, #3
 800332a:	ea41 7153 	orr.w	r1, r1, r3, lsr #29
 800332e:	00db      	lsls	r3, r3, #3
 8003330:	1818      	adds	r0, r3, r0
 8003332:	6863      	ldr	r3, [r4, #4]
 8003334:	ea4f 0283 	mov.w	r2, r3, lsl #2
 8003338:	ea4f 7393 	mov.w	r3, r3, lsr #30
 800333c:	f141 0100 	adc.w	r1, r1, #0
 8003340:	f7fd fc82 	bl	8000c48 <__aeabi_uldivmod>
 8003344:	4a20      	ldr	r2, [pc, #128]	@ (80033c8 <UART_SetConfig+0x10c>)
 8003346:	fba2 3100 	umull	r3, r1, r2, r0
 800334a:	0949      	lsrs	r1, r1, #5
 800334c:	2364      	movs	r3, #100	@ 0x64
 800334e:	fb03 0311 	mls	r3, r3, r1, r0
 8003352:	011b      	lsls	r3, r3, #4
 8003354:	3332      	adds	r3, #50	@ 0x32
 8003356:	fba2 2303 	umull	r2, r3, r2, r3
 800335a:	095b      	lsrs	r3, r3, #5
 800335c:	f003 02f0 	and.w	r2, r3, #240	@ 0xf0
 8003360:	eb02 1201 	add.w	r2, r2, r1, lsl #4
 8003364:	f003 030f 	and.w	r3, r3, #15
 8003368:	6821      	ldr	r1, [r4, #0]
 800336a:	4413      	add	r3, r2
 800336c:	608b      	str	r3, [r1, #8]
  }
}
 800336e:	bd10      	pop	{r4, pc}
    huart->Instance->BRR = UART_BRR_SAMPLING8(pclk, huart->Init.BaudRate);
 8003370:	2300      	movs	r3, #0
 8003372:	1802      	adds	r2, r0, r0
 8003374:	eb43 0103 	adc.w	r1, r3, r3
 8003378:	1812      	adds	r2, r2, r0
 800337a:	f141 0100 	adc.w	r1, r1, #0
 800337e:	00c9      	lsls	r1, r1, #3
 8003380:	ea41 7152 	orr.w	r1, r1, r2, lsr #29
 8003384:	00d2      	lsls	r2, r2, #3
 8003386:	1810      	adds	r0, r2, r0
 8003388:	f141 0100 	adc.w	r1, r1, #0
 800338c:	6862      	ldr	r2, [r4, #4]
 800338e:	1892      	adds	r2, r2, r2
 8003390:	415b      	adcs	r3, r3
 8003392:	f7fd fc59 	bl	8000c48 <__aeabi_uldivmod>
 8003396:	4a0c      	ldr	r2, [pc, #48]	@ (80033c8 <UART_SetConfig+0x10c>)
 8003398:	fba2 3100 	umull	r3, r1, r2, r0
 800339c:	0949      	lsrs	r1, r1, #5
 800339e:	2364      	movs	r3, #100	@ 0x64
 80033a0:	fb03 0311 	mls	r3, r3, r1, r0
 80033a4:	00db      	lsls	r3, r3, #3
 80033a6:	3332      	adds	r3, #50	@ 0x32
 80033a8:	fba2 2303 	umull	r2, r3, r2, r3
 80033ac:	095b      	lsrs	r3, r3, #5
 80033ae:	005a      	lsls	r2, r3, #1
 80033b0:	f402 72f8 	and.w	r2, r2, #496	@ 0x1f0
 80033b4:	eb02 1201 	add.w	r2, r2, r1, lsl #4
 80033b8:	f003 0307 	and.w	r3, r3, #7
 80033bc:	6821      	ldr	r1, [r4, #0]
 80033be:	4413      	add	r3, r2
 80033c0:	608b      	str	r3, [r1, #8]
 80033c2:	e7d4      	b.n	800336e <UART_SetConfig+0xb2>
 80033c4:	40011000 	.word	0x40011000
 80033c8:	51eb851f 	.word	0x51eb851f

080033cc <UART_WaitOnFlagUntilTimeout>:
{
 80033cc:	e92d 43f0 	stmdb	sp!, {r4, r5, r6, r7, r8, r9, lr}
 80033d0:	b083      	sub	sp, #12
 80033d2:	4605      	mov	r5, r0
 80033d4:	460e      	mov	r6, r1
 80033d6:	4617      	mov	r7, r2
 80033d8:	4699      	mov	r9, r3
 80033da:	f8dd 8028 	ldr.w	r8, [sp, #40]	@ 0x28
  while ((__HAL_UART_GET_FLAG(huart, Flag) ? SET : RESET) == Status)
 80033de:	682b      	ldr	r3, [r5, #0]
 80033e0:	681c      	ldr	r4, [r3, #0]
 80033e2:	ea36 0404 	bics.w	r4, r6, r4
 80033e6:	bf0c      	ite	eq
 80033e8:	2401      	moveq	r4, #1
 80033ea:	2400      	movne	r4, #0
 80033ec:	42bc      	cmp	r4, r7
 80033ee:	d128      	bne.n	8003442 <UART_WaitOnFlagUntilTimeout+0x76>
    if (Timeout != HAL_MAX_DELAY)
 80033f0:	f1b8 3fff 	cmp.w	r8, #4294967295	@ 0xffffffff
 80033f4:	d0f3      	beq.n	80033de <UART_WaitOnFlagUntilTimeout+0x12>
      if (((HAL_GetTick() - Tickstart) > Timeout) || (Timeout == 0U))
 80033f6:	f7fe fcd9 	bl	8001dac <HAL_GetTick>
 80033fa:	eba0 0009 	sub.w	r0, r0, r9
 80033fe:	4540      	cmp	r0, r8
 8003400:	d823      	bhi.n	800344a <UART_WaitOnFlagUntilTimeout+0x7e>
 8003402:	f1b8 0f00 	cmp.w	r8, #0
 8003406:	d022      	beq.n	800344e <UART_WaitOnFlagUntilTimeout+0x82>
      if ((READ_BIT(huart->Instance->CR1, USART_CR1_RE) != 0U) && (Flag != UART_FLAG_TXE) && (Flag != UART_FLAG_TC))
 8003408:	682b      	ldr	r3, [r5, #0]
 800340a:	68da      	ldr	r2, [r3, #12]
 800340c:	f012 0f04 	tst.w	r2, #4
 8003410:	d0e5      	beq.n	80033de <UART_WaitOnFlagUntilTimeout+0x12>
 8003412:	2e80      	cmp	r6, #128	@ 0x80
 8003414:	d0e3      	beq.n	80033de <UART_WaitOnFlagUntilTimeout+0x12>
 8003416:	2e40      	cmp	r6, #64	@ 0x40
 8003418:	d0e1      	beq.n	80033de <UART_WaitOnFlagUntilTimeout+0x12>
        if (__HAL_UART_GET_FLAG(huart, UART_FLAG_ORE) == SET)
 800341a:	681a      	ldr	r2, [r3, #0]
 800341c:	f012 0f08 	tst.w	r2, #8
 8003420:	d0dd      	beq.n	80033de <UART_WaitOnFlagUntilTimeout+0x12>
          __HAL_UART_CLEAR_OREFLAG(huart);
 8003422:	2400      	movs	r4, #0
 8003424:	9401      	str	r4, [sp, #4]
 8003426:	681a      	ldr	r2, [r3, #0]
 8003428:	9201      	str	r2, [sp, #4]
 800342a:	685b      	ldr	r3, [r3, #4]
 800342c:	9301      	str	r3, [sp, #4]
 800342e:	9b01      	ldr	r3, [sp, #4]
          UART_EndRxTransfer(huart);
 8003430:	4628      	mov	r0, r5
 8003432:	f7ff ff15 	bl	8003260 <UART_EndRxTransfer>
          huart->ErrorCode = HAL_UART_ERROR_ORE;
 8003436:	2308      	movs	r3, #8
 8003438:	646b      	str	r3, [r5, #68]	@ 0x44
          __HAL_UNLOCK(huart);
 800343a:	f885 4040 	strb.w	r4, [r5, #64]	@ 0x40
          return HAL_ERROR;
 800343e:	2001      	movs	r0, #1
 8003440:	e000      	b.n	8003444 <UART_WaitOnFlagUntilTimeout+0x78>
  return HAL_OK;
 8003442:	2000      	movs	r0, #0
}
 8003444:	b003      	add	sp, #12
 8003446:	e8bd 83f0 	ldmia.w	sp!, {r4, r5, r6, r7, r8, r9, pc}
        return HAL_TIMEOUT;
 800344a:	2003      	movs	r0, #3
 800344c:	e7fa      	b.n	8003444 <UART_WaitOnFlagUntilTimeout+0x78>
 800344e:	2003      	movs	r0, #3
 8003450:	e7f8      	b.n	8003444 <UART_WaitOnFlagUntilTimeout+0x78>

08003452 <HAL_UART_Init>:
  if (huart == NULL)
 8003452:	b360      	cbz	r0, 80034ae <HAL_UART_Init+0x5c>
{
 8003454:	b510      	push	{r4, lr}
 8003456:	4604      	mov	r4, r0
  if (huart->gState == HAL_UART_STATE_RESET)
 8003458:	f890 3041 	ldrb.w	r3, [r0, #65]	@ 0x41
 800345c:	b313      	cbz	r3, 80034a4 <HAL_UART_Init+0x52>
  huart->gState = HAL_UART_STATE_BUSY;
 800345e:	2324      	movs	r3, #36	@ 0x24
 8003460:	f884 3041 	strb.w	r3, [r4, #65]	@ 0x41
  __HAL_UART_DISABLE(huart);
 8003464:	6822      	ldr	r2, [r4, #0]
 8003466:	68d3      	ldr	r3, [r2, #12]
 8003468:	f423 5300 	bic.w	r3, r3, #8192	@ 0x2000
 800346c:	60d3      	str	r3, [r2, #12]
  UART_SetConfig(huart);
 800346e:	4620      	mov	r0, r4
 8003470:	f7ff ff24 	bl	80032bc <UART_SetConfig>
  CLEAR_BIT(huart->Instance->CR2, (USART_CR2_LINEN | USART_CR2_CLKEN));
 8003474:	6822      	ldr	r2, [r4, #0]
 8003476:	6913      	ldr	r3, [r2, #16]
 8003478:	f423 4390 	bic.w	r3, r3, #18432	@ 0x4800
 800347c:	6113      	str	r3, [r2, #16]
  CLEAR_BIT(huart->Instance->CR3, (USART_CR3_SCEN | USART_CR3_HDSEL | USART_CR3_IREN));
 800347e:	6822      	ldr	r2, [r4, #0]
 8003480:	6953      	ldr	r3, [r2, #20]
 8003482:	f023 032a 	bic.w	r3, r3, #42	@ 0x2a
 8003486:	6153      	str	r3, [r2, #20]
  __HAL_UART_ENABLE(huart);
 8003488:	6822      	ldr	r2, [r4, #0]
 800348a:	68d3      	ldr	r3, [r2, #12]
 800348c:	f443 5300 	orr.w	r3, r3, #8192	@ 0x2000
 8003490:	60d3      	str	r3, [r2, #12]
  huart->ErrorCode = HAL_UART_ERROR_NONE;
 8003492:	2000      	movs	r0, #0
 8003494:	6460      	str	r0, [r4, #68]	@ 0x44
  huart->gState = HAL_UART_STATE_READY;
 8003496:	2320      	movs	r3, #32
 8003498:	f884 3041 	strb.w	r3, [r4, #65]	@ 0x41
  huart->RxState = HAL_UART_STATE_READY;
 800349c:	f884 3042 	strb.w	r3, [r4, #66]	@ 0x42
  huart->RxEventType = HAL_UART_RXEVENT_TC;
 80034a0:	6360      	str	r0, [r4, #52]	@ 0x34
}
 80034a2:	bd10      	pop	{r4, pc}
    huart->Lock = HAL_UNLOCKED;
 80034a4:	f880 3040 	strb.w	r3, [r0, #64]	@ 0x40
    HAL_UART_MspInit(huart);
 80034a8:	f7fe fb1e 	bl	8001ae8 <HAL_UART_MspInit>
 80034ac:	e7d7      	b.n	800345e <HAL_UART_Init+0xc>
    return HAL_ERROR;
 80034ae:	2001      	movs	r0, #1
}
 80034b0:	4770      	bx	lr

080034b2 <HAL_UART_Transmit>:
{
 80034b2:	e92d 41f0 	stmdb	sp!, {r4, r5, r6, r7, r8, lr}
 80034b6:	b082      	sub	sp, #8
 80034b8:	461e      	mov	r6, r3
  if (huart->gState == HAL_UART_STATE_READY)
 80034ba:	f890 3041 	ldrb.w	r3, [r0, #65]	@ 0x41
 80034be:	b2db      	uxtb	r3, r3
 80034c0:	2b20      	cmp	r3, #32
 80034c2:	d156      	bne.n	8003572 <HAL_UART_Transmit+0xc0>
 80034c4:	4604      	mov	r4, r0
 80034c6:	460d      	mov	r5, r1
 80034c8:	4690      	mov	r8, r2
    if ((pData == NULL) || (Size == 0U))
 80034ca:	2900      	cmp	r1, #0
 80034cc:	d055      	beq.n	800357a <HAL_UART_Transmit+0xc8>
 80034ce:	b90a      	cbnz	r2, 80034d4 <HAL_UART_Transmit+0x22>
      return  HAL_ERROR;
 80034d0:	2001      	movs	r0, #1
 80034d2:	e04f      	b.n	8003574 <HAL_UART_Transmit+0xc2>
    huart->ErrorCode = HAL_UART_ERROR_NONE;
 80034d4:	2300      	movs	r3, #0
 80034d6:	6443      	str	r3, [r0, #68]	@ 0x44
    huart->gState = HAL_UART_STATE_BUSY_TX;
 80034d8:	2321      	movs	r3, #33	@ 0x21
 80034da:	f880 3041 	strb.w	r3, [r0, #65]	@ 0x41
    tickstart = HAL_GetTick();
 80034de:	f7fe fc65 	bl	8001dac <HAL_GetTick>
 80034e2:	4607      	mov	r7, r0
    huart->TxXferSize = Size;
 80034e4:	f8a4 8024 	strh.w	r8, [r4, #36]	@ 0x24
    huart->TxXferCount = Size;
 80034e8:	f8a4 8026 	strh.w	r8, [r4, #38]	@ 0x26
    if ((huart->Init.WordLength == UART_WORDLENGTH_9B) && (huart->Init.Parity == UART_PARITY_NONE))
 80034ec:	68a3      	ldr	r3, [r4, #8]
 80034ee:	f5b3 5f80 	cmp.w	r3, #4096	@ 0x1000
 80034f2:	d002      	beq.n	80034fa <HAL_UART_Transmit+0x48>
      pdata16bits = NULL;
 80034f4:	f04f 0800 	mov.w	r8, #0
 80034f8:	e014      	b.n	8003524 <HAL_UART_Transmit+0x72>
    if ((huart->Init.WordLength == UART_WORDLENGTH_9B) && (huart->Init.Parity == UART_PARITY_NONE))
 80034fa:	6923      	ldr	r3, [r4, #16]
 80034fc:	b32b      	cbz	r3, 800354a <HAL_UART_Transmit+0x98>
      pdata16bits = NULL;
 80034fe:	f04f 0800 	mov.w	r8, #0
 8003502:	e00f      	b.n	8003524 <HAL_UART_Transmit+0x72>
        huart->gState = HAL_UART_STATE_READY;
 8003504:	2320      	movs	r3, #32
 8003506:	f884 3041 	strb.w	r3, [r4, #65]	@ 0x41
        return HAL_TIMEOUT;
 800350a:	2003      	movs	r0, #3
 800350c:	e032      	b.n	8003574 <HAL_UART_Transmit+0xc2>
        huart->Instance->DR = (uint16_t)(*pdata16bits & 0x01FFU);
 800350e:	f838 3b02 	ldrh.w	r3, [r8], #2
 8003512:	6822      	ldr	r2, [r4, #0]
 8003514:	f3c3 0308 	ubfx	r3, r3, #0, #9
 8003518:	6053      	str	r3, [r2, #4]
      huart->TxXferCount--;
 800351a:	8ce2      	ldrh	r2, [r4, #38]	@ 0x26
 800351c:	b292      	uxth	r2, r2
 800351e:	3a01      	subs	r2, #1
 8003520:	b292      	uxth	r2, r2
 8003522:	84e2      	strh	r2, [r4, #38]	@ 0x26
    while (huart->TxXferCount > 0U)
 8003524:	8ce3      	ldrh	r3, [r4, #38]	@ 0x26
 8003526:	b29b      	uxth	r3, r3
 8003528:	b193      	cbz	r3, 8003550 <HAL_UART_Transmit+0x9e>
      if (UART_WaitOnFlagUntilTimeout(huart, UART_FLAG_TXE, RESET, tickstart, Timeout) != HAL_OK)
 800352a:	9600      	str	r6, [sp, #0]
 800352c:	463b      	mov	r3, r7
 800352e:	2200      	movs	r2, #0
 8003530:	2180      	movs	r1, #128	@ 0x80
 8003532:	4620      	mov	r0, r4
 8003534:	f7ff ff4a 	bl	80033cc <UART_WaitOnFlagUntilTimeout>
 8003538:	2800      	cmp	r0, #0
 800353a:	d1e3      	bne.n	8003504 <HAL_UART_Transmit+0x52>
      if (pdata8bits == NULL)
 800353c:	2d00      	cmp	r5, #0
 800353e:	d0e6      	beq.n	800350e <HAL_UART_Transmit+0x5c>
        huart->Instance->DR = (uint8_t)(*pdata8bits & 0xFFU);
 8003540:	f815 2b01 	ldrb.w	r2, [r5], #1
 8003544:	6823      	ldr	r3, [r4, #0]
 8003546:	605a      	str	r2, [r3, #4]
        pdata8bits++;
 8003548:	e7e7      	b.n	800351a <HAL_UART_Transmit+0x68>
      pdata16bits = (const uint16_t *) pData;
 800354a:	46a8      	mov	r8, r5
      pdata8bits  = NULL;
 800354c:	2500      	movs	r5, #0
 800354e:	e7e9      	b.n	8003524 <HAL_UART_Transmit+0x72>
    if (UART_WaitOnFlagUntilTimeout(huart, UART_FLAG_TC, RESET, tickstart, Timeout) != HAL_OK)
 8003550:	9600      	str	r6, [sp, #0]
 8003552:	463b      	mov	r3, r7
 8003554:	2200      	movs	r2, #0
 8003556:	2140      	movs	r1, #64	@ 0x40
 8003558:	4620      	mov	r0, r4
 800355a:	f7ff ff37 	bl	80033cc <UART_WaitOnFlagUntilTimeout>
 800355e:	b918      	cbnz	r0, 8003568 <HAL_UART_Transmit+0xb6>
    huart->gState = HAL_UART_STATE_READY;
 8003560:	2320      	movs	r3, #32
 8003562:	f884 3041 	strb.w	r3, [r4, #65]	@ 0x41
    return HAL_OK;
 8003566:	e005      	b.n	8003574 <HAL_UART_Transmit+0xc2>
      huart->gState = HAL_UART_STATE_READY;
 8003568:	2320      	movs	r3, #32
 800356a:	f884 3041 	strb.w	r3, [r4, #65]	@ 0x41
      return HAL_TIMEOUT;
 800356e:	2003      	movs	r0, #3
 8003570:	e000      	b.n	8003574 <HAL_UART_Transmit+0xc2>
    return HAL_BUSY;
 8003572:	2002      	movs	r0, #2
}
 8003574:	b002      	add	sp, #8
 8003576:	e8bd 81f0 	ldmia.w	sp!, {r4, r5, r6, r7, r8, pc}
      return  HAL_ERROR;
 800357a:	2001      	movs	r0, #1
 800357c:	e7fa      	b.n	8003574 <HAL_UART_Transmit+0xc2>

0800357e <SysTick_Handler>:

/*
  SysTick handler implementation that also clears overflow flag.
*/
#if (USE_CUSTOM_SYSTICK_HANDLER_IMPLEMENTATION == 0)
void SysTick_Handler (void) {
 800357e:	b508      	push	{r3, lr}
  /* Clear overflow flag */
  SysTick->CTRL;
 8003580:	f04f 23e0 	mov.w	r3, #3758153728	@ 0xe000e000
 8003584:	691b      	ldr	r3, [r3, #16]

  if (xTaskGetSchedulerState() != taskSCHEDULER_NOT_STARTED) {
 8003586:	f001 ff17 	bl	80053b8 <xTaskGetSchedulerState>
 800358a:	2801      	cmp	r0, #1
 800358c:	d100      	bne.n	8003590 <SysTick_Handler+0x12>
    /* Call tick handler */
    xPortSysTickHandler();
  }
}
 800358e:	bd08      	pop	{r3, pc}
    xPortSysTickHandler();
 8003590:	f002 fb18 	bl	8005bc4 <xPortSysTickHandler>
}
 8003594:	e7fb      	b.n	800358e <SysTick_Handler+0x10>
	...

08003598 <osKernelInitialize>:
 */
__STATIC_FORCEINLINE uint32_t __get_IPSR(void)
{
  uint32_t result;

  __ASM volatile ("MRS %0, ipsr" : "=r" (result) );
 8003598:	f3ef 8305 	mrs	r3, IPSR
/*---------------------------------------------------------------------------*/

osStatus_t osKernelInitialize (void) {
  osStatus_t stat;

  if (IS_IRQ()) {
 800359c:	b92b      	cbnz	r3, 80035aa <osKernelInitialize+0x12>
    stat = osErrorISR;
  }
  else {
    if (KernelState == osKernelInactive) {
 800359e:	4b06      	ldr	r3, [pc, #24]	@ (80035b8 <osKernelInitialize+0x20>)
 80035a0:	6818      	ldr	r0, [r3, #0]
 80035a2:	b928      	cbnz	r0, 80035b0 <osKernelInitialize+0x18>
        EvrFreeRTOSSetup(0U);
      #endif
      #if defined(USE_FreeRTOS_HEAP_5) && (HEAP_5_REGION_SETUP == 1)
        vPortDefineHeapRegions (configHEAP_5_REGIONS);
      #endif
      KernelState = osKernelReady;
 80035a4:	2201      	movs	r2, #1
 80035a6:	601a      	str	r2, [r3, #0]
      stat = osOK;
 80035a8:	4770      	bx	lr
    stat = osErrorISR;
 80035aa:	f06f 0005 	mvn.w	r0, #5
 80035ae:	4770      	bx	lr
    } else {
      stat = osError;
 80035b0:	f04f 30ff 	mov.w	r0, #4294967295	@ 0xffffffff
    }
  }

  return (stat);
}
 80035b4:	4770      	bx	lr
 80035b6:	bf00      	nop
 80035b8:	20000e08 	.word	0x20000e08

080035bc <osKernelStart>:
 80035bc:	f3ef 8305 	mrs	r3, IPSR
}

osStatus_t osKernelStart (void) {
  osStatus_t stat;

  if (IS_IRQ()) {
 80035c0:	b973      	cbnz	r3, 80035e0 <osKernelStart+0x24>
    stat = osErrorISR;
  }
  else {
    if (KernelState == osKernelReady) {
 80035c2:	4b0a      	ldr	r3, [pc, #40]	@ (80035ec <osKernelStart+0x30>)
 80035c4:	681b      	ldr	r3, [r3, #0]
 80035c6:	2b01      	cmp	r3, #1
 80035c8:	d10d      	bne.n	80035e6 <osKernelStart+0x2a>
osStatus_t osKernelStart (void) {
 80035ca:	b510      	push	{r4, lr}
    SCB->SHP[(((uint32_t)IRQn) & 0xFUL)-4UL] = (uint8_t)((priority << (8U - __NVIC_PRIO_BITS)) & (uint32_t)0xFFUL);
 80035cc:	2400      	movs	r4, #0
 80035ce:	4b08      	ldr	r3, [pc, #32]	@ (80035f0 <osKernelStart+0x34>)
 80035d0:	77dc      	strb	r4, [r3, #31]
      /* Ensure SVC priority is at the reset value */
      SVC_Setup();
      /* Change state to enable IRQ masking check */
      KernelState = osKernelRunning;
 80035d2:	4b06      	ldr	r3, [pc, #24]	@ (80035ec <osKernelStart+0x30>)
 80035d4:	2202      	movs	r2, #2
 80035d6:	601a      	str	r2, [r3, #0]
      /* Start the kernel scheduler */
      vTaskStartScheduler();
 80035d8:	f001 fb4e 	bl	8004c78 <vTaskStartScheduler>
      stat = osOK;
 80035dc:	4620      	mov	r0, r4
      stat = osError;
    }
  }

  return (stat);
}
 80035de:	bd10      	pop	{r4, pc}
    stat = osErrorISR;
 80035e0:	f06f 0005 	mvn.w	r0, #5
 80035e4:	4770      	bx	lr
      stat = osError;
 80035e6:	f04f 30ff 	mov.w	r0, #4294967295	@ 0xffffffff
}
 80035ea:	4770      	bx	lr
 80035ec:	20000e08 	.word	0x20000e08
 80035f0:	e000ed00 	.word	0xe000ed00

080035f4 <osKernelGetTickCount>:
  }

  return (lock);
}

uint32_t osKernelGetTickCount (void) {
 80035f4:	b508      	push	{r3, lr}
 80035f6:	f3ef 8305 	mrs	r3, IPSR
  TickType_t ticks;

  if (IS_IRQ()) {
 80035fa:	b113      	cbz	r3, 8003602 <osKernelGetTickCount+0xe>
    ticks = xTaskGetTickCountFromISR();
 80035fc:	f001 fba2 	bl	8004d44 <xTaskGetTickCountFromISR>
  } else {
    ticks = xTaskGetTickCount();
  }

  return (ticks);
}
 8003600:	bd08      	pop	{r3, pc}
    ticks = xTaskGetTickCount();
 8003602:	f001 fb99 	bl	8004d38 <xTaskGetTickCount>
  return (ticks);
 8003606:	e7fb      	b.n	8003600 <osKernelGetTickCount+0xc>

08003608 <osThreadNew>:
  return (configCPU_CLOCK_HZ);
}

/*---------------------------------------------------------------------------*/

osThreadId_t osThreadNew (osThreadFunc_t func, void *argument, const osThreadAttr_t *attr) {
 8003608:	b5f0      	push	{r4, r5, r6, r7, lr}
 800360a:	b087      	sub	sp, #28
  uint32_t stack;
  TaskHandle_t hTask;
  UBaseType_t prio;
  int32_t mem;

  hTask = NULL;
 800360c:	2400      	movs	r4, #0
 800360e:	9405      	str	r4, [sp, #20]
 8003610:	f3ef 8405 	mrs	r4, IPSR

  if (!IS_IRQ() && (func != NULL)) {
 8003614:	bb74      	cbnz	r4, 8003674 <osThreadNew+0x6c>
 8003616:	b368      	cbz	r0, 8003674 <osThreadNew+0x6c>
    prio  = (UBaseType_t)osPriorityNormal;

    name = NULL;
    mem  = -1;

    if (attr != NULL) {
 8003618:	b322      	cbz	r2, 8003664 <osThreadNew+0x5c>
      if (attr->name != NULL) {
 800361a:	6815      	ldr	r5, [r2, #0]
        name = attr->name;
      }
      if (attr->priority != osPriorityNone) {
 800361c:	6993      	ldr	r3, [r2, #24]
 800361e:	b903      	cbnz	r3, 8003622 <osThreadNew+0x1a>
    prio  = (UBaseType_t)osPriorityNormal;
 8003620:	2318      	movs	r3, #24
        prio = (UBaseType_t)attr->priority;
      }

      if ((prio < osPriorityIdle) || (prio > osPriorityISR) || ((attr->attr_bits & osThreadJoinable) == osThreadJoinable)) {
 8003622:	1e5c      	subs	r4, r3, #1
 8003624:	2c37      	cmp	r4, #55	@ 0x37
 8003626:	d849      	bhi.n	80036bc <osThreadNew+0xb4>
 8003628:	6854      	ldr	r4, [r2, #4]
 800362a:	f014 0f01 	tst.w	r4, #1
 800362e:	d147      	bne.n	80036c0 <osThreadNew+0xb8>
        return (NULL);
      }

      if (attr->stack_size > 0U) {
 8003630:	6956      	ldr	r6, [r2, #20]
 8003632:	b16e      	cbz	r6, 8003650 <osThreadNew+0x48>
        /* In FreeRTOS stack is not in bytes, but in sizeof(StackType_t) which is 4 on ARM ports.       */
        /* Stack size should be therefore 4 byte aligned in order to avoid division caused side effects */
        stack = attr->stack_size / sizeof(StackType_t);
 8003634:	ea4f 0c96 	mov.w	ip, r6, lsr #2
      }

      if ((attr->cb_mem    != NULL) && (attr->cb_size    >= sizeof(StaticTask_t)) &&
 8003638:	6894      	ldr	r4, [r2, #8]
 800363a:	b12c      	cbz	r4, 8003648 <osThreadNew+0x40>
 800363c:	68d7      	ldr	r7, [r2, #12]
 800363e:	2fab      	cmp	r7, #171	@ 0xab
 8003640:	d902      	bls.n	8003648 <osThreadNew+0x40>
 8003642:	6917      	ldr	r7, [r2, #16]
 8003644:	b107      	cbz	r7, 8003648 <osThreadNew+0x40>
          (attr->stack_mem != NULL) && (attr->stack_size >  0U)) {
 8003646:	b9c6      	cbnz	r6, 800367a <osThreadNew+0x72>
        mem = 1;
      }
      else {
        if ((attr->cb_mem == NULL) && (attr->cb_size == 0U) && (attr->stack_mem == NULL)) {
 8003648:	b12c      	cbz	r4, 8003656 <osThreadNew+0x4e>
    mem  = -1;
 800364a:	f04f 34ff 	mov.w	r4, #4294967295	@ 0xffffffff
 800364e:	e00e      	b.n	800366e <osThreadNew+0x66>
    stack = configMINIMAL_STACK_SIZE;
 8003650:	f04f 0c80 	mov.w	ip, #128	@ 0x80
 8003654:	e7f0      	b.n	8003638 <osThreadNew+0x30>
        if ((attr->cb_mem == NULL) && (attr->cb_size == 0U) && (attr->stack_mem == NULL)) {
 8003656:	68d4      	ldr	r4, [r2, #12]
 8003658:	b98c      	cbnz	r4, 800367e <osThreadNew+0x76>
 800365a:	6914      	ldr	r4, [r2, #16]
 800365c:	b194      	cbz	r4, 8003684 <osThreadNew+0x7c>
    mem  = -1;
 800365e:	f04f 34ff 	mov.w	r4, #4294967295	@ 0xffffffff
 8003662:	e004      	b.n	800366e <osThreadNew+0x66>
    name = NULL;
 8003664:	4615      	mov	r5, r2
          mem = 0;
        }
      }
    }
    else {
      mem = 0;
 8003666:	2400      	movs	r4, #0
    prio  = (UBaseType_t)osPriorityNormal;
 8003668:	2318      	movs	r3, #24
    stack = configMINIMAL_STACK_SIZE;
 800366a:	f04f 0c80 	mov.w	ip, #128	@ 0x80
    }

    if (mem == 1) {
 800366e:	2c01      	cmp	r4, #1
 8003670:	d00a      	beq.n	8003688 <osThreadNew+0x80>
        hTask = xTaskCreateStatic ((TaskFunction_t)func, name, stack, argument, prio, (StackType_t  *)attr->stack_mem,
                                                                                      (StaticTask_t *)attr->cb_mem);
      #endif
    }
    else {
      if (mem == 0) {
 8003672:	b1ac      	cbz	r4, 80036a0 <osThreadNew+0x98>
        #endif
      }
    }
  }

  return ((osThreadId_t)hTask);
 8003674:	9805      	ldr	r0, [sp, #20]
}
 8003676:	b007      	add	sp, #28
 8003678:	bdf0      	pop	{r4, r5, r6, r7, pc}
        mem = 1;
 800367a:	2401      	movs	r4, #1
 800367c:	e7f7      	b.n	800366e <osThreadNew+0x66>
    mem  = -1;
 800367e:	f04f 34ff 	mov.w	r4, #4294967295	@ 0xffffffff
 8003682:	e7f4      	b.n	800366e <osThreadNew+0x66>
          mem = 0;
 8003684:	2400      	movs	r4, #0
 8003686:	e7f2      	b.n	800366e <osThreadNew+0x66>
        hTask = xTaskCreateStatic ((TaskFunction_t)func, name, stack, argument, prio, (StackType_t  *)attr->stack_mem,
 8003688:	6914      	ldr	r4, [r2, #16]
                                                                                      (StaticTask_t *)attr->cb_mem);
 800368a:	6892      	ldr	r2, [r2, #8]
        hTask = xTaskCreateStatic ((TaskFunction_t)func, name, stack, argument, prio, (StackType_t  *)attr->stack_mem,
 800368c:	9202      	str	r2, [sp, #8]
 800368e:	9401      	str	r4, [sp, #4]
 8003690:	9300      	str	r3, [sp, #0]
 8003692:	460b      	mov	r3, r1
 8003694:	4662      	mov	r2, ip
 8003696:	4629      	mov	r1, r5
 8003698:	f001 fa38 	bl	8004b0c <xTaskCreateStatic>
 800369c:	9005      	str	r0, [sp, #20]
 800369e:	e7e9      	b.n	8003674 <osThreadNew+0x6c>
          if (xTaskCreate ((TaskFunction_t)func, name, (uint16_t)stack, argument, prio, &hTask) != pdPASS) {
 80036a0:	aa05      	add	r2, sp, #20
 80036a2:	9201      	str	r2, [sp, #4]
 80036a4:	9300      	str	r3, [sp, #0]
 80036a6:	460b      	mov	r3, r1
 80036a8:	fa1f f28c 	uxth.w	r2, ip
 80036ac:	4629      	mov	r1, r5
 80036ae:	f001 fa68 	bl	8004b82 <xTaskCreate>
 80036b2:	2801      	cmp	r0, #1
 80036b4:	d0de      	beq.n	8003674 <osThreadNew+0x6c>
            hTask = NULL;
 80036b6:	2300      	movs	r3, #0
 80036b8:	9305      	str	r3, [sp, #20]
 80036ba:	e7db      	b.n	8003674 <osThreadNew+0x6c>
        return (NULL);
 80036bc:	2000      	movs	r0, #0
 80036be:	e7da      	b.n	8003676 <osThreadNew+0x6e>
 80036c0:	2000      	movs	r0, #0
 80036c2:	e7d8      	b.n	8003676 <osThreadNew+0x6e>

080036c4 <osThreadYield>:
 80036c4:	f3ef 8305 	mrs	r3, IPSR
}

osStatus_t osThreadYield (void) {
  osStatus_t stat;

  if (IS_IRQ()) {
 80036c8:	b95b      	cbnz	r3, 80036e2 <osThreadYield+0x1e>
    stat = osErrorISR;
  } else {
    stat = osOK;
    taskYIELD();
 80036ca:	f04f 23e0 	mov.w	r3, #3758153728	@ 0xe000e000
 80036ce:	f04f 5280 	mov.w	r2, #268435456	@ 0x10000000
 80036d2:	f8c3 2d04 	str.w	r2, [r3, #3332]	@ 0xd04
 80036d6:	f3bf 8f4f 	dsb	sy
 80036da:	f3bf 8f6f 	isb	sy
    stat = osOK;
 80036de:	2000      	movs	r0, #0
 80036e0:	4770      	bx	lr
    stat = osErrorISR;
 80036e2:	f06f 0005 	mvn.w	r0, #5
  }

  return (stat);
}
 80036e6:	4770      	bx	lr

080036e8 <osDelay>:
  /* Return flags before clearing */
  return (rflags);
}
#endif /* (configUSE_OS2_THREAD_FLAGS == 1) */

osStatus_t osDelay (uint32_t ticks) {
 80036e8:	b508      	push	{r3, lr}
 80036ea:	f3ef 8305 	mrs	r3, IPSR
  osStatus_t stat;

  if (IS_IRQ()) {
 80036ee:	b933      	cbnz	r3, 80036fe <osDelay+0x16>
    stat = osErrorISR;
  }
  else {
    stat = osOK;

    if (ticks != 0U) {
 80036f0:	b908      	cbnz	r0, 80036f6 <osDelay+0xe>
    stat = osOK;
 80036f2:	2000      	movs	r0, #0
      vTaskDelay(ticks);
    }
  }

  return (stat);
}
 80036f4:	bd08      	pop	{r3, pc}
      vTaskDelay(ticks);
 80036f6:	f001 fc3b 	bl	8004f70 <vTaskDelay>
    stat = osOK;
 80036fa:	2000      	movs	r0, #0
 80036fc:	e7fa      	b.n	80036f4 <osDelay+0xc>
    stat = osErrorISR;
 80036fe:	f06f 0005 	mvn.w	r0, #5
 8003702:	e7f7      	b.n	80036f4 <osDelay+0xc>

08003704 <osMutexNew>:
}

/*---------------------------------------------------------------------------*/
#if (configUSE_OS2_MUTEX == 1)

osMutexId_t osMutexNew (const osMutexAttr_t *attr) {
 8003704:	b570      	push	{r4, r5, r6, lr}
 8003706:	f3ef 8305 	mrs	r3, IPSR
  const char *name;
  #endif

  hMutex = NULL;

  if (!IS_IRQ()) {
 800370a:	2b00      	cmp	r3, #0
 800370c:	d13c      	bne.n	8003788 <osMutexNew+0x84>
 800370e:	4604      	mov	r4, r0
    if (attr != NULL) {
 8003710:	b100      	cbz	r0, 8003714 <osMutexNew+0x10>
      type = attr->attr_bits;
 8003712:	6843      	ldr	r3, [r0, #4]
    } else {
      type = 0U;
    }

    if ((type & osMutexRecursive) == osMutexRecursive) {
 8003714:	f013 0601 	ands.w	r6, r3, #1
 8003718:	d000      	beq.n	800371c <osMutexNew+0x18>
      rmtx = 1U;
 800371a:	2601      	movs	r6, #1
    } else {
      rmtx = 0U;
    }

    if ((type & osMutexRobust) != osMutexRobust) {
 800371c:	f013 0f08 	tst.w	r3, #8
 8003720:	d135      	bne.n	800378e <osMutexNew+0x8a>
      mem = -1;

      if (attr != NULL) {
 8003722:	b344      	cbz	r4, 8003776 <osMutexNew+0x72>
        if ((attr->cb_mem != NULL) && (attr->cb_size >= sizeof(StaticSemaphore_t))) {
 8003724:	68a1      	ldr	r1, [r4, #8]
 8003726:	b111      	cbz	r1, 800372e <osMutexNew+0x2a>
 8003728:	68e3      	ldr	r3, [r4, #12]
 800372a:	2b4f      	cmp	r3, #79	@ 0x4f
 800372c:	d818      	bhi.n	8003760 <osMutexNew+0x5c>
          mem = 1;
        }
        else {
          if ((attr->cb_mem == NULL) && (attr->cb_size == 0U)) {
 800372e:	b191      	cbz	r1, 8003756 <osMutexNew+0x52>
      mem = -1;
 8003730:	f04f 33ff 	mov.w	r3, #4294967295	@ 0xffffffff
            hMutex = xSemaphoreCreateMutexStatic (attr->cb_mem);
          }
        #endif
      }
      else {
        if (mem == 0) {
 8003734:	bb6b      	cbnz	r3, 8003792 <osMutexNew+0x8e>
          #if (configSUPPORT_DYNAMIC_ALLOCATION == 1)
            if (rmtx != 0U) {
 8003736:	b316      	cbz	r6, 800377e <osMutexNew+0x7a>
              #if (configUSE_RECURSIVE_MUTEXES == 1)
              hMutex = xSemaphoreCreateRecursiveMutex ();
 8003738:	2004      	movs	r0, #4
 800373a:	f000 fce4 	bl	8004106 <xQueueCreateMutex>
 800373e:	4605      	mov	r5, r0
          #endif
        }
      }

      #if (configQUEUE_REGISTRY_SIZE > 0)
      if (hMutex != NULL) {
 8003740:	b31d      	cbz	r5, 800378a <osMutexNew+0x86>
        if (attr != NULL) {
 8003742:	b104      	cbz	r4, 8003746 <osMutexNew+0x42>
          name = attr->name;
 8003744:	6824      	ldr	r4, [r4, #0]
        } else {
          name = NULL;
        }
        vQueueAddToRegistry (hMutex, name);
 8003746:	4621      	mov	r1, r4
 8003748:	4628      	mov	r0, r5
 800374a:	f000 ffcf 	bl	80046ec <vQueueAddToRegistry>
      }
      #endif

      if ((hMutex != NULL) && (rmtx != 0U)) {
 800374e:	b1e6      	cbz	r6, 800378a <osMutexNew+0x86>
        hMutex = (SemaphoreHandle_t)((uint32_t)hMutex | 1U);
 8003750:	f045 0501 	orr.w	r5, r5, #1
 8003754:	e019      	b.n	800378a <osMutexNew+0x86>
          if ((attr->cb_mem == NULL) && (attr->cb_size == 0U)) {
 8003756:	68e3      	ldr	r3, [r4, #12]
 8003758:	b17b      	cbz	r3, 800377a <osMutexNew+0x76>
      mem = -1;
 800375a:	f04f 33ff 	mov.w	r3, #4294967295	@ 0xffffffff
 800375e:	e7e9      	b.n	8003734 <osMutexNew+0x30>
          if (rmtx != 0U) {
 8003760:	b126      	cbz	r6, 800376c <osMutexNew+0x68>
            hMutex = xSemaphoreCreateRecursiveMutexStatic (attr->cb_mem);
 8003762:	2004      	movs	r0, #4
 8003764:	f000 fcda 	bl	800411c <xQueueCreateMutexStatic>
 8003768:	4605      	mov	r5, r0
 800376a:	e7e9      	b.n	8003740 <osMutexNew+0x3c>
            hMutex = xSemaphoreCreateMutexStatic (attr->cb_mem);
 800376c:	2001      	movs	r0, #1
 800376e:	f000 fcd5 	bl	800411c <xQueueCreateMutexStatic>
 8003772:	4605      	mov	r5, r0
 8003774:	e7e4      	b.n	8003740 <osMutexNew+0x3c>
        mem = 0;
 8003776:	2300      	movs	r3, #0
 8003778:	e7dc      	b.n	8003734 <osMutexNew+0x30>
            mem = 0;
 800377a:	2300      	movs	r3, #0
 800377c:	e7da      	b.n	8003734 <osMutexNew+0x30>
              hMutex = xSemaphoreCreateMutex ();
 800377e:	2001      	movs	r0, #1
 8003780:	f000 fcc1 	bl	8004106 <xQueueCreateMutex>
 8003784:	4605      	mov	r5, r0
 8003786:	e7db      	b.n	8003740 <osMutexNew+0x3c>
  hMutex = NULL;
 8003788:	2500      	movs	r5, #0
      }
    }
  }

  return ((osMutexId_t)hMutex);
}
 800378a:	4628      	mov	r0, r5
 800378c:	bd70      	pop	{r4, r5, r6, pc}
  hMutex = NULL;
 800378e:	2500      	movs	r5, #0
 8003790:	e7fb      	b.n	800378a <osMutexNew+0x86>
 8003792:	2500      	movs	r5, #0
  return ((osMutexId_t)hMutex);
 8003794:	e7f9      	b.n	800378a <osMutexNew+0x86>

08003796 <osMutexAcquire>:
 8003796:	f3ef 8205 	mrs	r2, IPSR

  rmtx = (uint32_t)mutex_id & 1U;

  stat = osOK;

  if (IS_IRQ()) {
 800379a:	b9da      	cbnz	r2, 80037d4 <osMutexAcquire+0x3e>
osStatus_t osMutexAcquire (osMutexId_t mutex_id, uint32_t timeout) {
 800379c:	b510      	push	{r4, lr}
 800379e:	4603      	mov	r3, r0
 80037a0:	460c      	mov	r4, r1
 80037a2:	f020 0001 	bic.w	r0, r0, #1
 80037a6:	f003 0101 	and.w	r1, r3, #1
    stat = osErrorISR;
  }
  else if (hMutex == NULL) {
 80037aa:	2b01      	cmp	r3, #1
 80037ac:	d915      	bls.n	80037da <osMutexAcquire+0x44>
    stat = osErrorParameter;
  }
  else {
    if (rmtx != 0U) {
 80037ae:	b141      	cbz	r1, 80037c2 <osMutexAcquire+0x2c>
      #if (configUSE_RECURSIVE_MUTEXES == 1)
      if (xSemaphoreTakeRecursive (hMutex, timeout) != pdPASS) {
 80037b0:	4621      	mov	r1, r4
 80037b2:	f000 ff24 	bl	80045fe <xQueueTakeMutexRecursive>
 80037b6:	2801      	cmp	r0, #1
 80037b8:	d012      	beq.n	80037e0 <osMutexAcquire+0x4a>
        if (timeout != 0U) {
 80037ba:	b19c      	cbz	r4, 80037e4 <osMutexAcquire+0x4e>
          stat = osErrorTimeout;
 80037bc:	f06f 0001 	mvn.w	r0, #1
 80037c0:	e00f      	b.n	80037e2 <osMutexAcquire+0x4c>
        }
      }
      #endif
    }
    else {
      if (xSemaphoreTake (hMutex, timeout) != pdPASS) {
 80037c2:	4621      	mov	r1, r4
 80037c4:	f000 fe48 	bl	8004458 <xQueueSemaphoreTake>
 80037c8:	2801      	cmp	r0, #1
 80037ca:	d00e      	beq.n	80037ea <osMutexAcquire+0x54>
        if (timeout != 0U) {
 80037cc:	b17c      	cbz	r4, 80037ee <osMutexAcquire+0x58>
          stat = osErrorTimeout;
 80037ce:	f06f 0001 	mvn.w	r0, #1
 80037d2:	e006      	b.n	80037e2 <osMutexAcquire+0x4c>
    stat = osErrorISR;
 80037d4:	f06f 0005 	mvn.w	r0, #5
      }
    }
  }

  return (stat);
}
 80037d8:	4770      	bx	lr
    stat = osErrorParameter;
 80037da:	f06f 0003 	mvn.w	r0, #3
 80037de:	e000      	b.n	80037e2 <osMutexAcquire+0x4c>
  stat = osOK;
 80037e0:	2000      	movs	r0, #0
}
 80037e2:	bd10      	pop	{r4, pc}
          stat = osErrorResource;
 80037e4:	f06f 0002 	mvn.w	r0, #2
 80037e8:	e7fb      	b.n	80037e2 <osMutexAcquire+0x4c>
  stat = osOK;
 80037ea:	2000      	movs	r0, #0
 80037ec:	e7f9      	b.n	80037e2 <osMutexAcquire+0x4c>
          stat = osErrorResource;
 80037ee:	f06f 0002 	mvn.w	r0, #2
  return (stat);
 80037f2:	e7f6      	b.n	80037e2 <osMutexAcquire+0x4c>

080037f4 <osMutexRelease>:
 80037f4:	f3ef 8205 	mrs	r2, IPSR

  rmtx = (uint32_t)mutex_id & 1U;

  stat = osOK;

  if (IS_IRQ()) {
 80037f8:	b9ba      	cbnz	r2, 800382a <osMutexRelease+0x36>
osStatus_t osMutexRelease (osMutexId_t mutex_id) {
 80037fa:	b508      	push	{r3, lr}
 80037fc:	4603      	mov	r3, r0
 80037fe:	f020 0001 	bic.w	r0, r0, #1
 8003802:	f003 0101 	and.w	r1, r3, #1
    stat = osErrorISR;
  }
  else if (hMutex == NULL) {
 8003806:	2b01      	cmp	r3, #1
 8003808:	d912      	bls.n	8003830 <osMutexRelease+0x3c>
    stat = osErrorParameter;
  }
  else {
    if (rmtx != 0U) {
 800380a:	b129      	cbz	r1, 8003818 <osMutexRelease+0x24>
      #if (configUSE_RECURSIVE_MUTEXES == 1)
      if (xSemaphoreGiveRecursive (hMutex) != pdPASS) {
 800380c:	f000 fc95 	bl	800413a <xQueueGiveMutexRecursive>
 8003810:	2801      	cmp	r0, #1
 8003812:	d110      	bne.n	8003836 <osMutexRelease+0x42>
  stat = osOK;
 8003814:	2000      	movs	r0, #0
      }
    }
  }

  return (stat);
}
 8003816:	bd08      	pop	{r3, pc}
      if (xSemaphoreGive (hMutex) != pdPASS) {
 8003818:	2300      	movs	r3, #0
 800381a:	461a      	mov	r2, r3
 800381c:	4619      	mov	r1, r3
 800381e:	f000 fba2 	bl	8003f66 <xQueueGenericSend>
 8003822:	2801      	cmp	r0, #1
 8003824:	d10a      	bne.n	800383c <osMutexRelease+0x48>
  stat = osOK;
 8003826:	2000      	movs	r0, #0
 8003828:	e7f5      	b.n	8003816 <osMutexRelease+0x22>
    stat = osErrorISR;
 800382a:	f06f 0005 	mvn.w	r0, #5
}
 800382e:	4770      	bx	lr
    stat = osErrorParameter;
 8003830:	f06f 0003 	mvn.w	r0, #3
 8003834:	e7ef      	b.n	8003816 <osMutexRelease+0x22>
        stat = osErrorResource;
 8003836:	f06f 0002 	mvn.w	r0, #2
 800383a:	e7ec      	b.n	8003816 <osMutexRelease+0x22>
        stat = osErrorResource;
 800383c:	f06f 0002 	mvn.w	r0, #2
  return (stat);
 8003840:	e7e9      	b.n	8003816 <osMutexRelease+0x22>

08003842 <osSemaphoreNew>:
}
#endif /* (configUSE_OS2_MUTEX == 1) */

/*---------------------------------------------------------------------------*/

osSemaphoreId_t osSemaphoreNew (uint32_t max_count, uint32_t initial_count, const osSemaphoreAttr_t *attr) {
 8003842:	b570      	push	{r4, r5, r6, lr}
 8003844:	b082      	sub	sp, #8
 8003846:	f3ef 8305 	mrs	r3, IPSR
  const char *name;
  #endif

  hSemaphore = NULL;

  if (!IS_IRQ() && (max_count > 0U) && (initial_count <= max_count)) {
 800384a:	2b00      	cmp	r3, #0
 800384c:	d148      	bne.n	80038e0 <osSemaphoreNew+0x9e>
 800384e:	460e      	mov	r6, r1
 8003850:	4614      	mov	r4, r2
 8003852:	2800      	cmp	r0, #0
 8003854:	d048      	beq.n	80038e8 <osSemaphoreNew+0xa6>
 8003856:	4288      	cmp	r0, r1
 8003858:	d348      	bcc.n	80038ec <osSemaphoreNew+0xaa>
    mem = -1;

    if (attr != NULL) {
 800385a:	b14a      	cbz	r2, 8003870 <osSemaphoreNew+0x2e>
      if ((attr->cb_mem != NULL) && (attr->cb_size >= sizeof(StaticSemaphore_t))) {
 800385c:	6895      	ldr	r5, [r2, #8]
 800385e:	b115      	cbz	r5, 8003866 <osSemaphoreNew+0x24>
 8003860:	68d3      	ldr	r3, [r2, #12]
 8003862:	2b4f      	cmp	r3, #79	@ 0x4f
 8003864:	d814      	bhi.n	8003890 <osSemaphoreNew+0x4e>
        mem = 1;
      }
      else {
        if ((attr->cb_mem == NULL) && (attr->cb_size == 0U)) {
 8003866:	2d00      	cmp	r5, #0
 8003868:	d142      	bne.n	80038f0 <osSemaphoreNew+0xae>
 800386a:	68e3      	ldr	r3, [r4, #12]
 800386c:	b10b      	cbz	r3, 8003872 <osSemaphoreNew+0x30>
 800386e:	e038      	b.n	80038e2 <osSemaphoreNew+0xa0>
          mem = 0;
        }
      }
    }
    else {
      mem = 0;
 8003870:	2300      	movs	r3, #0
    }

    if (mem != -1) {
      if (max_count == 1U) {
 8003872:	2801      	cmp	r0, #1
 8003874:	d00e      	beq.n	8003894 <osSemaphoreNew+0x52>
            hSemaphore = NULL;
          }
        }
      }
      else {
        if (mem == 1) {
 8003876:	bb6b      	cbnz	r3, 80038d4 <osSemaphoreNew+0x92>
            hSemaphore = xSemaphoreCreateCountingStatic (max_count, initial_count, (StaticSemaphore_t *)attr->cb_mem);
          #endif
        }
        else {
          #if (configSUPPORT_DYNAMIC_ALLOCATION == 1)
            hSemaphore = xSemaphoreCreateCounting (max_count, initial_count);
 8003878:	4631      	mov	r1, r6
 800387a:	f000 fb56 	bl	8003f2a <xQueueCreateCountingSemaphore>
 800387e:	4605      	mov	r5, r0
          #endif
        }
      }
      
      #if (configQUEUE_REGISTRY_SIZE > 0)
      if (hSemaphore != NULL) {
 8003880:	b37d      	cbz	r5, 80038e2 <osSemaphoreNew+0xa0>
        if (attr != NULL) {
 8003882:	b104      	cbz	r4, 8003886 <osSemaphoreNew+0x44>
          name = attr->name;
 8003884:	6824      	ldr	r4, [r4, #0]
        } else {
          name = NULL;
        }
        vQueueAddToRegistry (hSemaphore, name);
 8003886:	4621      	mov	r1, r4
 8003888:	4628      	mov	r0, r5
 800388a:	f000 ff2f 	bl	80046ec <vQueueAddToRegistry>
 800388e:	e028      	b.n	80038e2 <osSemaphoreNew+0xa0>
        mem = 1;
 8003890:	2301      	movs	r3, #1
 8003892:	e7ee      	b.n	8003872 <osSemaphoreNew+0x30>
        if (mem == 1) {
 8003894:	b9ab      	cbnz	r3, 80038c2 <osSemaphoreNew+0x80>
            hSemaphore = xSemaphoreCreateBinary();
 8003896:	2203      	movs	r2, #3
 8003898:	2100      	movs	r1, #0
 800389a:	2001      	movs	r0, #1
 800389c:	f000 fafe 	bl	8003e9c <xQueueGenericCreate>
 80038a0:	4605      	mov	r5, r0
        if ((hSemaphore != NULL) && (initial_count != 0U)) {
 80038a2:	b1f5      	cbz	r5, 80038e2 <osSemaphoreNew+0xa0>
 80038a4:	2e00      	cmp	r6, #0
 80038a6:	d0eb      	beq.n	8003880 <osSemaphoreNew+0x3e>
          if (xSemaphoreGive (hSemaphore) != pdPASS) {
 80038a8:	2300      	movs	r3, #0
 80038aa:	461a      	mov	r2, r3
 80038ac:	4619      	mov	r1, r3
 80038ae:	4628      	mov	r0, r5
 80038b0:	f000 fb59 	bl	8003f66 <xQueueGenericSend>
 80038b4:	2801      	cmp	r0, #1
 80038b6:	d0e3      	beq.n	8003880 <osSemaphoreNew+0x3e>
            vSemaphoreDelete (hSemaphore);
 80038b8:	4628      	mov	r0, r5
 80038ba:	f000 ff41 	bl	8004740 <vQueueDelete>
            hSemaphore = NULL;
 80038be:	2500      	movs	r5, #0
 80038c0:	e00f      	b.n	80038e2 <osSemaphoreNew+0xa0>
            hSemaphore = xSemaphoreCreateBinaryStatic ((StaticSemaphore_t *)attr->cb_mem);
 80038c2:	68a3      	ldr	r3, [r4, #8]
 80038c4:	2203      	movs	r2, #3
 80038c6:	9200      	str	r2, [sp, #0]
 80038c8:	2200      	movs	r2, #0
 80038ca:	4611      	mov	r1, r2
 80038cc:	f000 fa9c 	bl	8003e08 <xQueueGenericCreateStatic>
 80038d0:	4605      	mov	r5, r0
 80038d2:	e7e6      	b.n	80038a2 <osSemaphoreNew+0x60>
            hSemaphore = xSemaphoreCreateCountingStatic (max_count, initial_count, (StaticSemaphore_t *)attr->cb_mem);
 80038d4:	68a2      	ldr	r2, [r4, #8]
 80038d6:	4631      	mov	r1, r6
 80038d8:	f000 fb04 	bl	8003ee4 <xQueueCreateCountingSemaphoreStatic>
 80038dc:	4605      	mov	r5, r0
 80038de:	e7cf      	b.n	8003880 <osSemaphoreNew+0x3e>
  hSemaphore = NULL;
 80038e0:	2500      	movs	r5, #0
      #endif
    }
  }

  return ((osSemaphoreId_t)hSemaphore);
}
 80038e2:	4628      	mov	r0, r5
 80038e4:	b002      	add	sp, #8
 80038e6:	bd70      	pop	{r4, r5, r6, pc}
  hSemaphore = NULL;
 80038e8:	2500      	movs	r5, #0
 80038ea:	e7fa      	b.n	80038e2 <osSemaphoreNew+0xa0>
 80038ec:	2500      	movs	r5, #0
 80038ee:	e7f8      	b.n	80038e2 <osSemaphoreNew+0xa0>
 80038f0:	2500      	movs	r5, #0
  return ((osSemaphoreId_t)hSemaphore);
 80038f2:	e7f6      	b.n	80038e2 <osSemaphoreNew+0xa0>

080038f4 <osSemaphoreAcquire>:
  osStatus_t stat;
  BaseType_t yield;

  stat = osOK;

  if (hSemaphore == NULL) {
 80038f4:	b320      	cbz	r0, 8003940 <osSemaphoreAcquire+0x4c>
osStatus_t osSemaphoreAcquire (osSemaphoreId_t semaphore_id, uint32_t timeout) {
 80038f6:	b510      	push	{r4, lr}
 80038f8:	b082      	sub	sp, #8
 80038fa:	460c      	mov	r4, r1
 80038fc:	f3ef 8305 	mrs	r3, IPSR
    stat = osErrorParameter;
  }
  else if (IS_IRQ()) {
 8003900:	b1b3      	cbz	r3, 8003930 <osSemaphoreAcquire+0x3c>
    if (timeout != 0U) {
 8003902:	bb01      	cbnz	r1, 8003946 <osSemaphoreAcquire+0x52>
      stat = osErrorParameter;
    }
    else {
      yield = pdFALSE;
 8003904:	2100      	movs	r1, #0
 8003906:	9101      	str	r1, [sp, #4]

      if (xSemaphoreTakeFromISR (hSemaphore, &yield) != pdPASS) {
 8003908:	aa01      	add	r2, sp, #4
 800390a:	f000 fe98 	bl	800463e <xQueueReceiveFromISR>
 800390e:	2801      	cmp	r0, #1
 8003910:	d11c      	bne.n	800394c <osSemaphoreAcquire+0x58>
        stat = osErrorResource;
      } else {
        portYIELD_FROM_ISR (yield);
 8003912:	9801      	ldr	r0, [sp, #4]
 8003914:	b150      	cbz	r0, 800392c <osSemaphoreAcquire+0x38>
 8003916:	f04f 23e0 	mov.w	r3, #3758153728	@ 0xe000e000
 800391a:	f04f 5280 	mov.w	r2, #268435456	@ 0x10000000
 800391e:	f8c3 2d04 	str.w	r2, [r3, #3332]	@ 0xd04
 8003922:	f3bf 8f4f 	dsb	sy
 8003926:	f3bf 8f6f 	isb	sy
  stat = osOK;
 800392a:	2000      	movs	r0, #0
      }
    }
  }

  return (stat);
}
 800392c:	b002      	add	sp, #8
 800392e:	bd10      	pop	{r4, pc}
    if (xSemaphoreTake (hSemaphore, (TickType_t)timeout) != pdPASS) {
 8003930:	f000 fd92 	bl	8004458 <xQueueSemaphoreTake>
 8003934:	2801      	cmp	r0, #1
 8003936:	d00c      	beq.n	8003952 <osSemaphoreAcquire+0x5e>
      if (timeout != 0U) {
 8003938:	b16c      	cbz	r4, 8003956 <osSemaphoreAcquire+0x62>
        stat = osErrorTimeout;
 800393a:	f06f 0001 	mvn.w	r0, #1
 800393e:	e7f5      	b.n	800392c <osSemaphoreAcquire+0x38>
    stat = osErrorParameter;
 8003940:	f06f 0003 	mvn.w	r0, #3
}
 8003944:	4770      	bx	lr
      stat = osErrorParameter;
 8003946:	f06f 0003 	mvn.w	r0, #3
 800394a:	e7ef      	b.n	800392c <osSemaphoreAcquire+0x38>
        stat = osErrorResource;
 800394c:	f06f 0002 	mvn.w	r0, #2
 8003950:	e7ec      	b.n	800392c <osSemaphoreAcquire+0x38>
  stat = osOK;
 8003952:	2000      	movs	r0, #0
 8003954:	e7ea      	b.n	800392c <osSemaphoreAcquire+0x38>
        stat = osErrorResource;
 8003956:	f06f 0002 	mvn.w	r0, #2
  return (stat);
 800395a:	e7e7      	b.n	800392c <osSemaphoreAcquire+0x38>

0800395c <osSemaphoreRelease>:
  osStatus_t stat;
  BaseType_t yield;

  stat = osOK;

  if (hSemaphore == NULL) {
 800395c:	b320      	cbz	r0, 80039a8 <osSemaphoreRelease+0x4c>
osStatus_t osSemaphoreRelease (osSemaphoreId_t semaphore_id) {
 800395e:	b500      	push	{lr}
 8003960:	b083      	sub	sp, #12
 8003962:	f3ef 8305 	mrs	r3, IPSR
    stat = osErrorParameter;
  }
  else if (IS_IRQ()) {
 8003966:	b1a3      	cbz	r3, 8003992 <osSemaphoreRelease+0x36>
    yield = pdFALSE;
 8003968:	2300      	movs	r3, #0
 800396a:	9301      	str	r3, [sp, #4]

    if (xSemaphoreGiveFromISR (hSemaphore, &yield) != pdTRUE) {
 800396c:	a901      	add	r1, sp, #4
 800396e:	f000 fc6b 	bl	8004248 <xQueueGiveFromISR>
 8003972:	2801      	cmp	r0, #1
 8003974:	d11b      	bne.n	80039ae <osSemaphoreRelease+0x52>
      stat = osErrorResource;
    } else {
      portYIELD_FROM_ISR (yield);
 8003976:	9801      	ldr	r0, [sp, #4]
 8003978:	b198      	cbz	r0, 80039a2 <osSemaphoreRelease+0x46>
 800397a:	f04f 23e0 	mov.w	r3, #3758153728	@ 0xe000e000
 800397e:	f04f 5280 	mov.w	r2, #268435456	@ 0x10000000
 8003982:	f8c3 2d04 	str.w	r2, [r3, #3332]	@ 0xd04
 8003986:	f3bf 8f4f 	dsb	sy
 800398a:	f3bf 8f6f 	isb	sy
  stat = osOK;
 800398e:	2000      	movs	r0, #0
 8003990:	e007      	b.n	80039a2 <osSemaphoreRelease+0x46>
    }
  }
  else {
    if (xSemaphoreGive (hSemaphore) != pdPASS) {
 8003992:	2300      	movs	r3, #0
 8003994:	461a      	mov	r2, r3
 8003996:	4619      	mov	r1, r3
 8003998:	f000 fae5 	bl	8003f66 <xQueueGenericSend>
 800399c:	2801      	cmp	r0, #1
 800399e:	d109      	bne.n	80039b4 <osSemaphoreRelease+0x58>
  stat = osOK;
 80039a0:	2000      	movs	r0, #0
      stat = osErrorResource;
    }
  }

  return (stat);
}
 80039a2:	b003      	add	sp, #12
 80039a4:	f85d fb04 	ldr.w	pc, [sp], #4
    stat = osErrorParameter;
 80039a8:	f06f 0003 	mvn.w	r0, #3
}
 80039ac:	4770      	bx	lr
      stat = osErrorResource;
 80039ae:	f06f 0002 	mvn.w	r0, #2
 80039b2:	e7f6      	b.n	80039a2 <osSemaphoreRelease+0x46>
      stat = osErrorResource;
 80039b4:	f06f 0002 	mvn.w	r0, #2
  return (stat);
 80039b8:	e7f3      	b.n	80039a2 <osSemaphoreRelease+0x46>

080039ba <osMessageQueueNew>:
  return (stat);
}

/*---------------------------------------------------------------------------*/

osMessageQueueId_t osMessageQueueNew (uint32_t msg_count, uint32_t msg_size, const osMessageQueueAttr_t *attr) {
 80039ba:	b570      	push	{r4, r5, r6, lr}
 80039bc:	b082      	sub	sp, #8
 80039be:	f3ef 8305 	mrs	r3, IPSR
  const char *name;
  #endif

  hQueue = NULL;

  if (!IS_IRQ() && (msg_count > 0U) && (msg_size > 0U)) {
 80039c2:	2b00      	cmp	r3, #0
 80039c4:	d13a      	bne.n	8003a3c <osMessageQueueNew+0x82>
 80039c6:	4614      	mov	r4, r2
 80039c8:	2800      	cmp	r0, #0
 80039ca:	d03b      	beq.n	8003a44 <osMessageQueueNew+0x8a>
 80039cc:	2900      	cmp	r1, #0
 80039ce:	d03b      	beq.n	8003a48 <osMessageQueueNew+0x8e>
    mem = -1;

    if (attr != NULL) {
 80039d0:	b36a      	cbz	r2, 8003a2e <osMessageQueueNew+0x74>
      if ((attr->cb_mem != NULL) && (attr->cb_size >= sizeof(StaticQueue_t)) &&
 80039d2:	6893      	ldr	r3, [r2, #8]
 80039d4:	b14b      	cbz	r3, 80039ea <osMessageQueueNew+0x30>
 80039d6:	68d2      	ldr	r2, [r2, #12]
 80039d8:	2a4f      	cmp	r2, #79	@ 0x4f
 80039da:	d906      	bls.n	80039ea <osMessageQueueNew+0x30>
          (attr->mq_mem != NULL) && (attr->mq_size >= (msg_count * msg_size))) {
 80039dc:	6922      	ldr	r2, [r4, #16]
      if ((attr->cb_mem != NULL) && (attr->cb_size >= sizeof(StaticQueue_t)) &&
 80039de:	b122      	cbz	r2, 80039ea <osMessageQueueNew+0x30>
          (attr->mq_mem != NULL) && (attr->mq_size >= (msg_count * msg_size))) {
 80039e0:	fb01 f500 	mul.w	r5, r1, r0
 80039e4:	6966      	ldr	r6, [r4, #20]
 80039e6:	42ae      	cmp	r6, r5
 80039e8:	d21b      	bcs.n	8003a22 <osMessageQueueNew+0x68>
        mem = 1;
      }
      else {
        if ((attr->cb_mem == NULL) && (attr->cb_size == 0U) &&
 80039ea:	b173      	cbz	r3, 8003a0a <osMessageQueueNew+0x50>
    mem = -1;
 80039ec:	f04f 33ff 	mov.w	r3, #4294967295	@ 0xffffffff
      #if (configSUPPORT_STATIC_ALLOCATION == 1)
        hQueue = xQueueCreateStatic (msg_count, msg_size, attr->mq_mem, attr->cb_mem);
      #endif
    }
    else {
      if (mem == 0) {
 80039f0:	bb63      	cbnz	r3, 8003a4c <osMessageQueueNew+0x92>
        #if (configSUPPORT_DYNAMIC_ALLOCATION == 1)
          hQueue = xQueueCreate (msg_count, msg_size);
 80039f2:	2200      	movs	r2, #0
 80039f4:	f000 fa52 	bl	8003e9c <xQueueGenericCreate>
 80039f8:	4605      	mov	r5, r0
        #endif
      }
    }

    #if (configQUEUE_REGISTRY_SIZE > 0)
    if (hQueue != NULL) {
 80039fa:	b305      	cbz	r5, 8003a3e <osMessageQueueNew+0x84>
      if (attr != NULL) {
 80039fc:	b104      	cbz	r4, 8003a00 <osMessageQueueNew+0x46>
        name = attr->name;
 80039fe:	6824      	ldr	r4, [r4, #0]
      } else {
        name = NULL;
      }
      vQueueAddToRegistry (hQueue, name);
 8003a00:	4621      	mov	r1, r4
 8003a02:	4628      	mov	r0, r5
 8003a04:	f000 fe72 	bl	80046ec <vQueueAddToRegistry>
 8003a08:	e019      	b.n	8003a3e <osMessageQueueNew+0x84>
        if ((attr->cb_mem == NULL) && (attr->cb_size == 0U) &&
 8003a0a:	68e3      	ldr	r3, [r4, #12]
 8003a0c:	b98b      	cbnz	r3, 8003a32 <osMessageQueueNew+0x78>
            (attr->mq_mem == NULL) && (attr->mq_size == 0U)) {
 8003a0e:	6923      	ldr	r3, [r4, #16]
        if ((attr->cb_mem == NULL) && (attr->cb_size == 0U) &&
 8003a10:	b113      	cbz	r3, 8003a18 <osMessageQueueNew+0x5e>
    mem = -1;
 8003a12:	f04f 33ff 	mov.w	r3, #4294967295	@ 0xffffffff
 8003a16:	e7eb      	b.n	80039f0 <osMessageQueueNew+0x36>
            (attr->mq_mem == NULL) && (attr->mq_size == 0U)) {
 8003a18:	6963      	ldr	r3, [r4, #20]
 8003a1a:	b16b      	cbz	r3, 8003a38 <osMessageQueueNew+0x7e>
    mem = -1;
 8003a1c:	f04f 33ff 	mov.w	r3, #4294967295	@ 0xffffffff
 8003a20:	e7e6      	b.n	80039f0 <osMessageQueueNew+0x36>
        hQueue = xQueueCreateStatic (msg_count, msg_size, attr->mq_mem, attr->cb_mem);
 8003a22:	2500      	movs	r5, #0
 8003a24:	9500      	str	r5, [sp, #0]
 8003a26:	f000 f9ef 	bl	8003e08 <xQueueGenericCreateStatic>
 8003a2a:	4605      	mov	r5, r0
 8003a2c:	e7e5      	b.n	80039fa <osMessageQueueNew+0x40>
      mem = 0;
 8003a2e:	2300      	movs	r3, #0
 8003a30:	e7de      	b.n	80039f0 <osMessageQueueNew+0x36>
    mem = -1;
 8003a32:	f04f 33ff 	mov.w	r3, #4294967295	@ 0xffffffff
 8003a36:	e7db      	b.n	80039f0 <osMessageQueueNew+0x36>
          mem = 0;
 8003a38:	2300      	movs	r3, #0
 8003a3a:	e7d9      	b.n	80039f0 <osMessageQueueNew+0x36>
  hQueue = NULL;
 8003a3c:	2500      	movs	r5, #0
    #endif

  }

  return ((osMessageQueueId_t)hQueue);
}
 8003a3e:	4628      	mov	r0, r5
 8003a40:	b002      	add	sp, #8
 8003a42:	bd70      	pop	{r4, r5, r6, pc}
  hQueue = NULL;
 8003a44:	2500      	movs	r5, #0
 8003a46:	e7fa      	b.n	8003a3e <osMessageQueueNew+0x84>
 8003a48:	2500      	movs	r5, #0
 8003a4a:	e7f8      	b.n	8003a3e <osMessageQueueNew+0x84>
 8003a4c:	2500      	movs	r5, #0
  return ((osMessageQueueId_t)hQueue);
 8003a4e:	e7f6      	b.n	8003a3e <osMessageQueueNew+0x84>

08003a50 <osMessageQueuePut>:

osStatus_t osMessageQueuePut (osMessageQueueId_t mq_id, const void *msg_ptr, uint8_t msg_prio, uint32_t timeout) {
 8003a50:	b510      	push	{r4, lr}
 8003a52:	b082      	sub	sp, #8
 8003a54:	461c      	mov	r4, r3
 8003a56:	f3ef 8305 	mrs	r3, IPSR

  (void)msg_prio; /* Message priority is ignored */

  stat = osOK;

  if (IS_IRQ()) {
 8003a5a:	b1c3      	cbz	r3, 8003a8e <osMessageQueuePut+0x3e>
    if ((hQueue == NULL) || (msg_ptr == NULL) || (timeout != 0U)) {
 8003a5c:	b318      	cbz	r0, 8003aa6 <osMessageQueuePut+0x56>
 8003a5e:	b329      	cbz	r1, 8003aac <osMessageQueuePut+0x5c>
 8003a60:	bb3c      	cbnz	r4, 8003ab2 <osMessageQueuePut+0x62>
      stat = osErrorParameter;
    }
    else {
      yield = pdFALSE;
 8003a62:	2300      	movs	r3, #0
 8003a64:	9301      	str	r3, [sp, #4]

      if (xQueueSendToBackFromISR (hQueue, msg_ptr, &yield) != pdTRUE) {
 8003a66:	aa01      	add	r2, sp, #4
 8003a68:	f000 fb87 	bl	800417a <xQueueGenericSendFromISR>
 8003a6c:	2801      	cmp	r0, #1
 8003a6e:	d123      	bne.n	8003ab8 <osMessageQueuePut+0x68>
        stat = osErrorResource;
      } else {
        portYIELD_FROM_ISR (yield);
 8003a70:	9801      	ldr	r0, [sp, #4]
 8003a72:	b150      	cbz	r0, 8003a8a <osMessageQueuePut+0x3a>
 8003a74:	f04f 23e0 	mov.w	r3, #3758153728	@ 0xe000e000
 8003a78:	f04f 5280 	mov.w	r2, #268435456	@ 0x10000000
 8003a7c:	f8c3 2d04 	str.w	r2, [r3, #3332]	@ 0xd04
 8003a80:	f3bf 8f4f 	dsb	sy
 8003a84:	f3bf 8f6f 	isb	sy
  stat = osOK;
 8003a88:	2000      	movs	r0, #0
      }
    }
  }

  return (stat);
}
 8003a8a:	b002      	add	sp, #8
 8003a8c:	bd10      	pop	{r4, pc}
    if ((hQueue == NULL) || (msg_ptr == NULL)) {
 8003a8e:	b1b0      	cbz	r0, 8003abe <osMessageQueuePut+0x6e>
 8003a90:	b1c1      	cbz	r1, 8003ac4 <osMessageQueuePut+0x74>
      if (xQueueSendToBack (hQueue, msg_ptr, (TickType_t)timeout) != pdPASS) {
 8003a92:	2300      	movs	r3, #0
 8003a94:	4622      	mov	r2, r4
 8003a96:	f000 fa66 	bl	8003f66 <xQueueGenericSend>
 8003a9a:	2801      	cmp	r0, #1
 8003a9c:	d015      	beq.n	8003aca <osMessageQueuePut+0x7a>
        if (timeout != 0U) {
 8003a9e:	b1b4      	cbz	r4, 8003ace <osMessageQueuePut+0x7e>
          stat = osErrorTimeout;
 8003aa0:	f06f 0001 	mvn.w	r0, #1
 8003aa4:	e7f1      	b.n	8003a8a <osMessageQueuePut+0x3a>
      stat = osErrorParameter;
 8003aa6:	f06f 0003 	mvn.w	r0, #3
 8003aaa:	e7ee      	b.n	8003a8a <osMessageQueuePut+0x3a>
 8003aac:	f06f 0003 	mvn.w	r0, #3
 8003ab0:	e7eb      	b.n	8003a8a <osMessageQueuePut+0x3a>
 8003ab2:	f06f 0003 	mvn.w	r0, #3
 8003ab6:	e7e8      	b.n	8003a8a <osMessageQueuePut+0x3a>
        stat = osErrorResource;
 8003ab8:	f06f 0002 	mvn.w	r0, #2
 8003abc:	e7e5      	b.n	8003a8a <osMessageQueuePut+0x3a>
      stat = osErrorParameter;
 8003abe:	f06f 0003 	mvn.w	r0, #3
 8003ac2:	e7e2      	b.n	8003a8a <osMessageQueuePut+0x3a>
 8003ac4:	f06f 0003 	mvn.w	r0, #3
 8003ac8:	e7df      	b.n	8003a8a <osMessageQueuePut+0x3a>
  stat = osOK;
 8003aca:	2000      	movs	r0, #0
 8003acc:	e7dd      	b.n	8003a8a <osMessageQueuePut+0x3a>
          stat = osErrorResource;
 8003ace:	f06f 0002 	mvn.w	r0, #2
  return (stat);
 8003ad2:	e7da      	b.n	8003a8a <osMessageQueuePut+0x3a>

08003ad4 <osMessageQueueGet>:

osStatus_t osMessageQueueGet (osMessageQueueId_t mq_id, void *msg_ptr, uint8_t *msg_prio, uint32_t timeout) {
 8003ad4:	b510      	push	{r4, lr}
 8003ad6:	b082      	sub	sp, #8
 8003ad8:	461c      	mov	r4, r3
 8003ada:	f3ef 8305 	mrs	r3, IPSR

  (void)msg_prio; /* Message priority is ignored */

  stat = osOK;

  if (IS_IRQ()) {
 8003ade:	b1c3      	cbz	r3, 8003b12 <osMessageQueueGet+0x3e>
    if ((hQueue == NULL) || (msg_ptr == NULL) || (timeout != 0U)) {
 8003ae0:	b310      	cbz	r0, 8003b28 <osMessageQueueGet+0x54>
 8003ae2:	b321      	cbz	r1, 8003b2e <osMessageQueueGet+0x5a>
 8003ae4:	bb34      	cbnz	r4, 8003b34 <osMessageQueueGet+0x60>
      stat = osErrorParameter;
    }
    else {
      yield = pdFALSE;
 8003ae6:	2300      	movs	r3, #0
 8003ae8:	9301      	str	r3, [sp, #4]

      if (xQueueReceiveFromISR (hQueue, msg_ptr, &yield) != pdPASS) {
 8003aea:	aa01      	add	r2, sp, #4
 8003aec:	f000 fda7 	bl	800463e <xQueueReceiveFromISR>
 8003af0:	2801      	cmp	r0, #1
 8003af2:	d122      	bne.n	8003b3a <osMessageQueueGet+0x66>
        stat = osErrorResource;
      } else {
        portYIELD_FROM_ISR (yield);
 8003af4:	9801      	ldr	r0, [sp, #4]
 8003af6:	b150      	cbz	r0, 8003b0e <osMessageQueueGet+0x3a>
 8003af8:	f04f 23e0 	mov.w	r3, #3758153728	@ 0xe000e000
 8003afc:	f04f 5280 	mov.w	r2, #268435456	@ 0x10000000
 8003b00:	f8c3 2d04 	str.w	r2, [r3, #3332]	@ 0xd04
 8003b04:	f3bf 8f4f 	dsb	sy
 8003b08:	f3bf 8f6f 	isb	sy
  stat = osOK;
 8003b0c:	2000      	movs	r0, #0
      }
    }
  }

  return (stat);
}
 8003b0e:	b002      	add	sp, #8
 8003b10:	bd10      	pop	{r4, pc}
    if ((hQueue == NULL) || (msg_ptr == NULL)) {
 8003b12:	b1a8      	cbz	r0, 8003b40 <osMessageQueueGet+0x6c>
 8003b14:	b1b9      	cbz	r1, 8003b46 <osMessageQueueGet+0x72>
      if (xQueueReceive (hQueue, msg_ptr, (TickType_t)timeout) != pdPASS) {
 8003b16:	4622      	mov	r2, r4
 8003b18:	f000 fbef 	bl	80042fa <xQueueReceive>
 8003b1c:	2801      	cmp	r0, #1
 8003b1e:	d015      	beq.n	8003b4c <osMessageQueueGet+0x78>
        if (timeout != 0U) {
 8003b20:	b1b4      	cbz	r4, 8003b50 <osMessageQueueGet+0x7c>
          stat = osErrorTimeout;
 8003b22:	f06f 0001 	mvn.w	r0, #1
 8003b26:	e7f2      	b.n	8003b0e <osMessageQueueGet+0x3a>
      stat = osErrorParameter;
 8003b28:	f06f 0003 	mvn.w	r0, #3
 8003b2c:	e7ef      	b.n	8003b0e <osMessageQueueGet+0x3a>
 8003b2e:	f06f 0003 	mvn.w	r0, #3
 8003b32:	e7ec      	b.n	8003b0e <osMessageQueueGet+0x3a>
 8003b34:	f06f 0003 	mvn.w	r0, #3
 8003b38:	e7e9      	b.n	8003b0e <osMessageQueueGet+0x3a>
        stat = osErrorResource;
 8003b3a:	f06f 0002 	mvn.w	r0, #2
 8003b3e:	e7e6      	b.n	8003b0e <osMessageQueueGet+0x3a>
      stat = osErrorParameter;
 8003b40:	f06f 0003 	mvn.w	r0, #3
 8003b44:	e7e3      	b.n	8003b0e <osMessageQueueGet+0x3a>
 8003b46:	f06f 0003 	mvn.w	r0, #3
 8003b4a:	e7e0      	b.n	8003b0e <osMessageQueueGet+0x3a>
  stat = osOK;
 8003b4c:	2000      	movs	r0, #0
 8003b4e:	e7de      	b.n	8003b0e <osMessageQueueGet+0x3a>
          stat = osErrorResource;
 8003b50:	f06f 0002 	mvn.w	r0, #2
  return (stat);
 8003b54:	e7db      	b.n	8003b0e <osMessageQueueGet+0x3a>
	...

08003b58 <vApplicationGetIdleTaskMemory>:
__WEAK void vApplicationGetIdleTaskMemory (StaticTask_t **ppxIdleTaskTCBBuffer, StackType_t **ppxIdleTaskStackBuffer, uint32_t *pulIdleTaskStackSize) {
  /* Idle task control block and stack */
  static StaticTask_t Idle_TCB;
  static StackType_t  Idle_Stack[configMINIMAL_STACK_SIZE];

  *ppxIdleTaskTCBBuffer   = &Idle_TCB;
 8003b58:	4b03      	ldr	r3, [pc, #12]	@ (8003b68 <vApplicationGetIdleTaskMemory+0x10>)
 8003b5a:	6003      	str	r3, [r0, #0]
  *ppxIdleTaskStackBuffer = &Idle_Stack[0];
 8003b5c:	4b03      	ldr	r3, [pc, #12]	@ (8003b6c <vApplicationGetIdleTaskMemory+0x14>)
 8003b5e:	600b      	str	r3, [r1, #0]
  *pulIdleTaskStackSize   = (uint32_t)configMINIMAL_STACK_SIZE;
 8003b60:	2380      	movs	r3, #128	@ 0x80
 8003b62:	6013      	str	r3, [r2, #0]
}
 8003b64:	4770      	bx	lr
 8003b66:	bf00      	nop
 8003b68:	20000d5c 	.word	0x20000d5c
 8003b6c:	20000b5c 	.word	0x20000b5c

08003b70 <vApplicationGetTimerTaskMemory>:
__WEAK void vApplicationGetTimerTaskMemory (StaticTask_t **ppxTimerTaskTCBBuffer, StackType_t **ppxTimerTaskStackBuffer, uint32_t *pulTimerTaskStackSize) {
  /* Timer task control block and stack */
  static StaticTask_t Timer_TCB;
  static StackType_t  Timer_Stack[configTIMER_TASK_STACK_DEPTH];

  *ppxTimerTaskTCBBuffer   = &Timer_TCB;
 8003b70:	4b03      	ldr	r3, [pc, #12]	@ (8003b80 <vApplicationGetTimerTaskMemory+0x10>)
 8003b72:	6003      	str	r3, [r0, #0]
  *ppxTimerTaskStackBuffer = &Timer_Stack[0];
 8003b74:	4b03      	ldr	r3, [pc, #12]	@ (8003b84 <vApplicationGetTimerTaskMemory+0x14>)
 8003b76:	600b      	str	r3, [r1, #0]
  *pulTimerTaskStackSize   = (uint32_t)configTIMER_TASK_STACK_DEPTH;
 8003b78:	f44f 7380 	mov.w	r3, #256	@ 0x100
 8003b7c:	6013      	str	r3, [r2, #0]
}
 8003b7e:	4770      	bx	lr
 8003b80:	20000ab0 	.word	0x20000ab0
 8003b84:	200006b0 	.word	0x200006b0

08003b88 <vListInitialise>:
void vListInitialise( List_t * const pxList )
{
	/* The list structure contains a list item which is used to mark the
	end of the list.  To initialise the list the list end is inserted
	as the only list entry. */
	pxList->pxIndex = ( ListItem_t * ) &( pxList->xListEnd );			/*lint !e826 !e740 !e9087 The mini list structure is used as the list end to save RAM.  This is checked and valid. */
 8003b88:	f100 0308 	add.w	r3, r0, #8
 8003b8c:	6043      	str	r3, [r0, #4]

	/* The list end value is the highest possible value in the list to
	ensure it remains at the end of the list. */
	pxList->xListEnd.xItemValue = portMAX_DELAY;
 8003b8e:	f04f 32ff 	mov.w	r2, #4294967295	@ 0xffffffff
 8003b92:	6082      	str	r2, [r0, #8]

	/* The list end next and previous pointers point to itself so we know
	when the list is empty. */
	pxList->xListEnd.pxNext = ( ListItem_t * ) &( pxList->xListEnd );	/*lint !e826 !e740 !e9087 The mini list structure is used as the list end to save RAM.  This is checked and valid. */
 8003b94:	60c3      	str	r3, [r0, #12]
	pxList->xListEnd.pxPrevious = ( ListItem_t * ) &( pxList->xListEnd );/*lint !e826 !e740 !e9087 The mini list structure is used as the list end to save RAM.  This is checked and valid. */
 8003b96:	6103      	str	r3, [r0, #16]

	pxList->uxNumberOfItems = ( UBaseType_t ) 0U;
 8003b98:	2300      	movs	r3, #0
 8003b9a:	6003      	str	r3, [r0, #0]

	/* Write known values into the list if
	configUSE_LIST_DATA_INTEGRITY_CHECK_BYTES is set to 1. */
	listSET_LIST_INTEGRITY_CHECK_1_VALUE( pxList );
	listSET_LIST_INTEGRITY_CHECK_2_VALUE( pxList );
}
 8003b9c:	4770      	bx	lr

08003b9e <vListInitialiseItem>:
/*-----------------------------------------------------------*/

void vListInitialiseItem( ListItem_t * const pxItem )
{
	/* Make sure the list item is not recorded as being on a list. */
	pxItem->pxContainer = NULL;
 8003b9e:	2300      	movs	r3, #0
 8003ba0:	6103      	str	r3, [r0, #16]

	/* Write known values into the list item if
	configUSE_LIST_DATA_INTEGRITY_CHECK_BYTES is set to 1. */
	listSET_FIRST_LIST_ITEM_INTEGRITY_CHECK_VALUE( pxItem );
	listSET_SECOND_LIST_ITEM_INTEGRITY_CHECK_VALUE( pxItem );
}
 8003ba2:	4770      	bx	lr

08003ba4 <vListInsertEnd>:
/*-----------------------------------------------------------*/

void vListInsertEnd( List_t * const pxList, ListItem_t * const pxNewListItem )
{
ListItem_t * const pxIndex = pxList->pxIndex;
 8003ba4:	6843      	ldr	r3, [r0, #4]
	listTEST_LIST_ITEM_INTEGRITY( pxNewListItem );

	/* Insert a new list item into pxList, but rather than sort the list,
	makes the new list item the last item to be removed by a call to
	listGET_OWNER_OF_NEXT_ENTRY(). */
	pxNewListItem->pxNext = pxIndex;
 8003ba6:	604b      	str	r3, [r1, #4]
	pxNewListItem->pxPrevious = pxIndex->pxPrevious;
 8003ba8:	689a      	ldr	r2, [r3, #8]
 8003baa:	608a      	str	r2, [r1, #8]

	/* Only used during decision coverage testing. */
	mtCOVERAGE_TEST_DELAY();

	pxIndex->pxPrevious->pxNext = pxNewListItem;
 8003bac:	6051      	str	r1, [r2, #4]
	pxIndex->pxPrevious = pxNewListItem;
 8003bae:	6099      	str	r1, [r3, #8]

	/* Remember which list the item is in. */
	pxNewListItem->pxContainer = pxList;
 8003bb0:	6108      	str	r0, [r1, #16]

	( pxList->uxNumberOfItems )++;
 8003bb2:	6803      	ldr	r3, [r0, #0]
 8003bb4:	3301      	adds	r3, #1
 8003bb6:	6003      	str	r3, [r0, #0]
}
 8003bb8:	4770      	bx	lr

08003bba <vListInsert>:
/*-----------------------------------------------------------*/

void vListInsert( List_t * const pxList, ListItem_t * const pxNewListItem )
{
 8003bba:	b430      	push	{r4, r5}
ListItem_t *pxIterator;
const TickType_t xValueOfInsertion = pxNewListItem->xItemValue;
 8003bbc:	680d      	ldr	r5, [r1, #0]
	new list item should be placed after it.  This ensures that TCBs which are
	stored in ready lists (all of which have the same xItemValue value) get a
	share of the CPU.  However, if the xItemValue is the same as the back marker
	the iteration loop below will not end.  Therefore the value is checked
	first, and the algorithm slightly modified if necessary. */
	if( xValueOfInsertion == portMAX_DELAY )
 8003bbe:	f1b5 3fff 	cmp.w	r5, #4294967295	@ 0xffffffff
 8003bc2:	d011      	beq.n	8003be8 <vListInsert+0x2e>
			4) Using a queue or semaphore before it has been initialised or
			   before the scheduler has been started (are interrupts firing
			   before vTaskStartScheduler() has been called?).
		**********************************************************************/

		for( pxIterator = ( ListItem_t * ) &( pxList->xListEnd ); pxIterator->pxNext->xItemValue <= xValueOfInsertion; pxIterator = pxIterator->pxNext ) /*lint !e826 !e740 !e9087 The mini list structure is used as the list end to save RAM.  This is checked and valid. *//*lint !e440 The iterator moves to a different value, not xValueOfInsertion. */
 8003bc4:	f100 0308 	add.w	r3, r0, #8
 8003bc8:	461c      	mov	r4, r3
 8003bca:	685b      	ldr	r3, [r3, #4]
 8003bcc:	681a      	ldr	r2, [r3, #0]
 8003bce:	42aa      	cmp	r2, r5
 8003bd0:	d9fa      	bls.n	8003bc8 <vListInsert+0xe>
			/* There is nothing to do here, just iterating to the wanted
			insertion position. */
		}
	}

	pxNewListItem->pxNext = pxIterator->pxNext;
 8003bd2:	6863      	ldr	r3, [r4, #4]
 8003bd4:	604b      	str	r3, [r1, #4]
	pxNewListItem->pxNext->pxPrevious = pxNewListItem;
 8003bd6:	6099      	str	r1, [r3, #8]
	pxNewListItem->pxPrevious = pxIterator;
 8003bd8:	608c      	str	r4, [r1, #8]
	pxIterator->pxNext = pxNewListItem;
 8003bda:	6061      	str	r1, [r4, #4]

	/* Remember which list the item is in.  This allows fast removal of the
	item later. */
	pxNewListItem->pxContainer = pxList;
 8003bdc:	6108      	str	r0, [r1, #16]

	( pxList->uxNumberOfItems )++;
 8003bde:	6803      	ldr	r3, [r0, #0]
 8003be0:	3301      	adds	r3, #1
 8003be2:	6003      	str	r3, [r0, #0]
}
 8003be4:	bc30      	pop	{r4, r5}
 8003be6:	4770      	bx	lr
		pxIterator = pxList->xListEnd.pxPrevious;
 8003be8:	6904      	ldr	r4, [r0, #16]
 8003bea:	e7f2      	b.n	8003bd2 <vListInsert+0x18>

08003bec <uxListRemove>:

UBaseType_t uxListRemove( ListItem_t * const pxItemToRemove )
{
/* The list item knows which list it is in.  Obtain the list from the list
item. */
List_t * const pxList = pxItemToRemove->pxContainer;
 8003bec:	6903      	ldr	r3, [r0, #16]

	pxItemToRemove->pxNext->pxPrevious = pxItemToRemove->pxPrevious;
 8003bee:	6841      	ldr	r1, [r0, #4]
 8003bf0:	6882      	ldr	r2, [r0, #8]
 8003bf2:	608a      	str	r2, [r1, #8]
	pxItemToRemove->pxPrevious->pxNext = pxItemToRemove->pxNext;
 8003bf4:	6841      	ldr	r1, [r0, #4]
 8003bf6:	6051      	str	r1, [r2, #4]

	/* Only used during decision coverage testing. */
	mtCOVERAGE_TEST_DELAY();

	/* Make sure the index is left pointing to a valid item. */
	if( pxList->pxIndex == pxItemToRemove )
 8003bf8:	685a      	ldr	r2, [r3, #4]
 8003bfa:	4282      	cmp	r2, r0
 8003bfc:	d006      	beq.n	8003c0c <uxListRemove+0x20>
	else
	{
		mtCOVERAGE_TEST_MARKER();
	}

	pxItemToRemove->pxContainer = NULL;
 8003bfe:	2200      	movs	r2, #0
 8003c00:	6102      	str	r2, [r0, #16]
	( pxList->uxNumberOfItems )--;
 8003c02:	681a      	ldr	r2, [r3, #0]
 8003c04:	3a01      	subs	r2, #1
 8003c06:	601a      	str	r2, [r3, #0]

	return pxList->uxNumberOfItems;
 8003c08:	6818      	ldr	r0, [r3, #0]
}
 8003c0a:	4770      	bx	lr
		pxList->pxIndex = pxItemToRemove->pxPrevious;
 8003c0c:	6882      	ldr	r2, [r0, #8]
 8003c0e:	605a      	str	r2, [r3, #4]
 8003c10:	e7f5      	b.n	8003bfe <uxListRemove+0x12>

08003c12 <prvGetDisinheritPriorityAfterTimeout>:
/*-----------------------------------------------------------*/

#if( configUSE_MUTEXES == 1 )

	static UBaseType_t prvGetDisinheritPriorityAfterTimeout( const Queue_t * const pxQueue )
	{
 8003c12:	4603      	mov	r3, r0
		priority, but the waiting task times out, then the holder should
		disinherit the priority - but only down to the highest priority of any
		other tasks that are waiting for the same mutex.  For this purpose,
		return the priority of the highest priority task that is waiting for the
		mutex. */
		if( listCURRENT_LIST_LENGTH( &( pxQueue->xTasksWaitingToReceive ) ) > 0U )
 8003c14:	6a40      	ldr	r0, [r0, #36]	@ 0x24
 8003c16:	b118      	cbz	r0, 8003c20 <prvGetDisinheritPriorityAfterTimeout+0xe>
		{
			uxHighestPriorityOfWaitingTasks = ( UBaseType_t ) configMAX_PRIORITIES - ( UBaseType_t ) listGET_ITEM_VALUE_OF_HEAD_ENTRY( &( pxQueue->xTasksWaitingToReceive ) );
 8003c18:	6b1b      	ldr	r3, [r3, #48]	@ 0x30
 8003c1a:	6818      	ldr	r0, [r3, #0]
 8003c1c:	f1c0 0038 	rsb	r0, r0, #56	@ 0x38
		{
			uxHighestPriorityOfWaitingTasks = tskIDLE_PRIORITY;
		}

		return uxHighestPriorityOfWaitingTasks;
	}
 8003c20:	4770      	bx	lr

08003c22 <prvIsQueueFull>:
	return xReturn;
} /*lint !e818 xQueue could not be pointer to const because it is a typedef. */
/*-----------------------------------------------------------*/

static BaseType_t prvIsQueueFull( const Queue_t *pxQueue )
{
 8003c22:	b510      	push	{r4, lr}
 8003c24:	4604      	mov	r4, r0
BaseType_t xReturn;

	taskENTER_CRITICAL();
 8003c26:	f001 ff5d 	bl	8005ae4 <vPortEnterCritical>
	{
		if( pxQueue->uxMessagesWaiting == pxQueue->uxLength )
 8003c2a:	6ba2      	ldr	r2, [r4, #56]	@ 0x38
 8003c2c:	6be3      	ldr	r3, [r4, #60]	@ 0x3c
 8003c2e:	429a      	cmp	r2, r3
 8003c30:	d004      	beq.n	8003c3c <prvIsQueueFull+0x1a>
		{
			xReturn = pdTRUE;
		}
		else
		{
			xReturn = pdFALSE;
 8003c32:	2400      	movs	r4, #0
		}
	}
	taskEXIT_CRITICAL();
 8003c34:	f001 ff78 	bl	8005b28 <vPortExitCritical>

	return xReturn;
}
 8003c38:	4620      	mov	r0, r4
 8003c3a:	bd10      	pop	{r4, pc}
			xReturn = pdTRUE;
 8003c3c:	2401      	movs	r4, #1
 8003c3e:	e7f9      	b.n	8003c34 <prvIsQueueFull+0x12>

08003c40 <prvIsQueueEmpty>:
{
 8003c40:	b510      	push	{r4, lr}
 8003c42:	4604      	mov	r4, r0
	taskENTER_CRITICAL();
 8003c44:	f001 ff4e 	bl	8005ae4 <vPortEnterCritical>
		if( pxQueue->uxMessagesWaiting == ( UBaseType_t )  0 )
 8003c48:	6ba3      	ldr	r3, [r4, #56]	@ 0x38
 8003c4a:	b923      	cbnz	r3, 8003c56 <prvIsQueueEmpty+0x16>
			xReturn = pdTRUE;
 8003c4c:	2401      	movs	r4, #1
	taskEXIT_CRITICAL();
 8003c4e:	f001 ff6b 	bl	8005b28 <vPortExitCritical>
}
 8003c52:	4620      	mov	r0, r4
 8003c54:	bd10      	pop	{r4, pc}
			xReturn = pdFALSE;
 8003c56:	2400      	movs	r4, #0
 8003c58:	e7f9      	b.n	8003c4e <prvIsQueueEmpty+0xe>

08003c5a <prvCopyDataToQueue>:
{
 8003c5a:	b570      	push	{r4, r5, r6, lr}
 8003c5c:	4604      	mov	r4, r0
 8003c5e:	4615      	mov	r5, r2
	uxMessagesWaiting = pxQueue->uxMessagesWaiting;
 8003c60:	6b86      	ldr	r6, [r0, #56]	@ 0x38
	if( pxQueue->uxItemSize == ( UBaseType_t ) 0 )
 8003c62:	6c02      	ldr	r2, [r0, #64]	@ 0x40
 8003c64:	b95a      	cbnz	r2, 8003c7e <prvCopyDataToQueue+0x24>
			if( pxQueue->uxQueueType == queueQUEUE_IS_MUTEX )
 8003c66:	6803      	ldr	r3, [r0, #0]
 8003c68:	b11b      	cbz	r3, 8003c72 <prvCopyDataToQueue+0x18>
BaseType_t xReturn = pdFALSE;
 8003c6a:	2000      	movs	r0, #0
	pxQueue->uxMessagesWaiting = uxMessagesWaiting + ( UBaseType_t ) 1;
 8003c6c:	3601      	adds	r6, #1
 8003c6e:	63a6      	str	r6, [r4, #56]	@ 0x38
}
 8003c70:	bd70      	pop	{r4, r5, r6, pc}
				xReturn = xTaskPriorityDisinherit( pxQueue->u.xSemaphore.xMutexHolder );
 8003c72:	6880      	ldr	r0, [r0, #8]
 8003c74:	f001 fbfc 	bl	8005470 <xTaskPriorityDisinherit>
				pxQueue->u.xSemaphore.xMutexHolder = NULL;
 8003c78:	2300      	movs	r3, #0
 8003c7a:	60a3      	str	r3, [r4, #8]
 8003c7c:	e7f6      	b.n	8003c6c <prvCopyDataToQueue+0x12>
	else if( xPosition == queueSEND_TO_BACK )
 8003c7e:	b96d      	cbnz	r5, 8003c9c <prvCopyDataToQueue+0x42>
		( void ) memcpy( ( void * ) pxQueue->pcWriteTo, pvItemToQueue, ( size_t ) pxQueue->uxItemSize ); /*lint !e961 !e418 !e9087 MISRA exception as the casts are only redundant for some ports, plus previous logic ensures a null pointer can only be passed to memcpy() if the copy size is 0.  Cast to void required by function signature and safe as no alignment requirement and copy length specified in bytes. */
 8003c80:	6840      	ldr	r0, [r0, #4]
 8003c82:	f003 f928 	bl	8006ed6 <memcpy>
		pxQueue->pcWriteTo += pxQueue->uxItemSize; /*lint !e9016 Pointer arithmetic on char types ok, especially in this use case where it is the clearest way of conveying intent. */
 8003c86:	6863      	ldr	r3, [r4, #4]
 8003c88:	6c22      	ldr	r2, [r4, #64]	@ 0x40
 8003c8a:	4413      	add	r3, r2
 8003c8c:	6063      	str	r3, [r4, #4]
		if( pxQueue->pcWriteTo >= pxQueue->u.xQueue.pcTail ) /*lint !e946 MISRA exception justified as comparison of pointers is the cleanest solution. */
 8003c8e:	68a2      	ldr	r2, [r4, #8]
 8003c90:	4293      	cmp	r3, r2
 8003c92:	d319      	bcc.n	8003cc8 <prvCopyDataToQueue+0x6e>
			pxQueue->pcWriteTo = pxQueue->pcHead;
 8003c94:	6823      	ldr	r3, [r4, #0]
 8003c96:	6063      	str	r3, [r4, #4]
BaseType_t xReturn = pdFALSE;
 8003c98:	4628      	mov	r0, r5
 8003c9a:	e7e7      	b.n	8003c6c <prvCopyDataToQueue+0x12>
		( void ) memcpy( ( void * ) pxQueue->u.xQueue.pcReadFrom, pvItemToQueue, ( size_t ) pxQueue->uxItemSize ); /*lint !e961 !e9087 !e418 MISRA exception as the casts are only redundant for some ports.  Cast to void required by function signature and safe as no alignment requirement and copy length specified in bytes.  Assert checks null pointer only used when length is 0. */
 8003c9c:	68c0      	ldr	r0, [r0, #12]
 8003c9e:	f003 f91a 	bl	8006ed6 <memcpy>
		pxQueue->u.xQueue.pcReadFrom -= pxQueue->uxItemSize;
 8003ca2:	68e3      	ldr	r3, [r4, #12]
 8003ca4:	6c22      	ldr	r2, [r4, #64]	@ 0x40
 8003ca6:	4251      	negs	r1, r2
 8003ca8:	1a9b      	subs	r3, r3, r2
 8003caa:	60e3      	str	r3, [r4, #12]
		if( pxQueue->u.xQueue.pcReadFrom < pxQueue->pcHead ) /*lint !e946 MISRA exception justified as comparison of pointers is the cleanest solution. */
 8003cac:	6822      	ldr	r2, [r4, #0]
 8003cae:	4293      	cmp	r3, r2
 8003cb0:	d202      	bcs.n	8003cb8 <prvCopyDataToQueue+0x5e>
			pxQueue->u.xQueue.pcReadFrom = ( pxQueue->u.xQueue.pcTail - pxQueue->uxItemSize );
 8003cb2:	68a3      	ldr	r3, [r4, #8]
 8003cb4:	440b      	add	r3, r1
 8003cb6:	60e3      	str	r3, [r4, #12]
		if( xPosition == queueOVERWRITE )
 8003cb8:	2d02      	cmp	r5, #2
 8003cba:	d001      	beq.n	8003cc0 <prvCopyDataToQueue+0x66>
BaseType_t xReturn = pdFALSE;
 8003cbc:	2000      	movs	r0, #0
 8003cbe:	e7d5      	b.n	8003c6c <prvCopyDataToQueue+0x12>
			if( uxMessagesWaiting > ( UBaseType_t ) 0 )
 8003cc0:	b126      	cbz	r6, 8003ccc <prvCopyDataToQueue+0x72>
				--uxMessagesWaiting;
 8003cc2:	3e01      	subs	r6, #1
BaseType_t xReturn = pdFALSE;
 8003cc4:	2000      	movs	r0, #0
 8003cc6:	e7d1      	b.n	8003c6c <prvCopyDataToQueue+0x12>
 8003cc8:	4628      	mov	r0, r5
 8003cca:	e7cf      	b.n	8003c6c <prvCopyDataToQueue+0x12>
 8003ccc:	2000      	movs	r0, #0
 8003cce:	e7cd      	b.n	8003c6c <prvCopyDataToQueue+0x12>

08003cd0 <prvCopyDataFromQueue>:
{
 8003cd0:	4603      	mov	r3, r0
	if( pxQueue->uxItemSize != ( UBaseType_t ) 0 )
 8003cd2:	6c02      	ldr	r2, [r0, #64]	@ 0x40
 8003cd4:	b16a      	cbz	r2, 8003cf2 <prvCopyDataFromQueue+0x22>
{
 8003cd6:	b510      	push	{r4, lr}
 8003cd8:	4608      	mov	r0, r1
		pxQueue->u.xQueue.pcReadFrom += pxQueue->uxItemSize; /*lint !e9016 Pointer arithmetic on char types ok, especially in this use case where it is the clearest way of conveying intent. */
 8003cda:	68d9      	ldr	r1, [r3, #12]
 8003cdc:	4411      	add	r1, r2
 8003cde:	60d9      	str	r1, [r3, #12]
		if( pxQueue->u.xQueue.pcReadFrom >= pxQueue->u.xQueue.pcTail ) /*lint !e946 MISRA exception justified as use of the relational operator is the cleanest solutions. */
 8003ce0:	689c      	ldr	r4, [r3, #8]
 8003ce2:	42a1      	cmp	r1, r4
 8003ce4:	d301      	bcc.n	8003cea <prvCopyDataFromQueue+0x1a>
			pxQueue->u.xQueue.pcReadFrom = pxQueue->pcHead;
 8003ce6:	6819      	ldr	r1, [r3, #0]
 8003ce8:	60d9      	str	r1, [r3, #12]
		( void ) memcpy( ( void * ) pvBuffer, ( void * ) pxQueue->u.xQueue.pcReadFrom, ( size_t ) pxQueue->uxItemSize ); /*lint !e961 !e418 !e9087 MISRA exception as the casts are only redundant for some ports.  Also previous logic ensures a null pointer can only be passed to memcpy() when the count is 0.  Cast to void required by function signature and safe as no alignment requirement and copy length specified in bytes. */
 8003cea:	68d9      	ldr	r1, [r3, #12]
 8003cec:	f003 f8f3 	bl	8006ed6 <memcpy>
}
 8003cf0:	bd10      	pop	{r4, pc}
 8003cf2:	4770      	bx	lr

08003cf4 <prvUnlockQueue>:
{
 8003cf4:	b538      	push	{r3, r4, r5, lr}
 8003cf6:	4605      	mov	r5, r0
	taskENTER_CRITICAL();
 8003cf8:	f001 fef4 	bl	8005ae4 <vPortEnterCritical>
		int8_t cTxLock = pxQueue->cTxLock;
 8003cfc:	f895 4045 	ldrb.w	r4, [r5, #69]	@ 0x45
 8003d00:	b264      	sxtb	r4, r4
		while( cTxLock > queueLOCKED_UNMODIFIED )
 8003d02:	e001      	b.n	8003d08 <prvUnlockQueue+0x14>
			--cTxLock;
 8003d04:	3c01      	subs	r4, #1
 8003d06:	b264      	sxtb	r4, r4
		while( cTxLock > queueLOCKED_UNMODIFIED )
 8003d08:	2c00      	cmp	r4, #0
 8003d0a:	dd0a      	ble.n	8003d22 <prvUnlockQueue+0x2e>
				if( listLIST_IS_EMPTY( &( pxQueue->xTasksWaitingToReceive ) ) == pdFALSE )
 8003d0c:	6a6b      	ldr	r3, [r5, #36]	@ 0x24
 8003d0e:	b143      	cbz	r3, 8003d22 <prvUnlockQueue+0x2e>
					if( xTaskRemoveFromEventList( &( pxQueue->xTasksWaitingToReceive ) ) != pdFALSE )
 8003d10:	f105 0024 	add.w	r0, r5, #36	@ 0x24
 8003d14:	f001 f9ec 	bl	80050f0 <xTaskRemoveFromEventList>
 8003d18:	2800      	cmp	r0, #0
 8003d1a:	d0f3      	beq.n	8003d04 <prvUnlockQueue+0x10>
						vTaskMissedYield();
 8003d1c:	f001 fa7c 	bl	8005218 <vTaskMissedYield>
 8003d20:	e7f0      	b.n	8003d04 <prvUnlockQueue+0x10>
		pxQueue->cTxLock = queueUNLOCKED;
 8003d22:	23ff      	movs	r3, #255	@ 0xff
 8003d24:	f885 3045 	strb.w	r3, [r5, #69]	@ 0x45
	taskEXIT_CRITICAL();
 8003d28:	f001 fefe 	bl	8005b28 <vPortExitCritical>
	taskENTER_CRITICAL();
 8003d2c:	f001 feda 	bl	8005ae4 <vPortEnterCritical>
		int8_t cRxLock = pxQueue->cRxLock;
 8003d30:	f895 4044 	ldrb.w	r4, [r5, #68]	@ 0x44
 8003d34:	b264      	sxtb	r4, r4
		while( cRxLock > queueLOCKED_UNMODIFIED )
 8003d36:	e001      	b.n	8003d3c <prvUnlockQueue+0x48>
				--cRxLock;
 8003d38:	3c01      	subs	r4, #1
 8003d3a:	b264      	sxtb	r4, r4
		while( cRxLock > queueLOCKED_UNMODIFIED )
 8003d3c:	2c00      	cmp	r4, #0
 8003d3e:	dd0a      	ble.n	8003d56 <prvUnlockQueue+0x62>
			if( listLIST_IS_EMPTY( &( pxQueue->xTasksWaitingToSend ) ) == pdFALSE )
 8003d40:	692b      	ldr	r3, [r5, #16]
 8003d42:	b143      	cbz	r3, 8003d56 <prvUnlockQueue+0x62>
				if( xTaskRemoveFromEventList( &( pxQueue->xTasksWaitingToSend ) ) != pdFALSE )
 8003d44:	f105 0010 	add.w	r0, r5, #16
 8003d48:	f001 f9d2 	bl	80050f0 <xTaskRemoveFromEventList>
 8003d4c:	2800      	cmp	r0, #0
 8003d4e:	d0f3      	beq.n	8003d38 <prvUnlockQueue+0x44>
					vTaskMissedYield();
 8003d50:	f001 fa62 	bl	8005218 <vTaskMissedYield>
 8003d54:	e7f0      	b.n	8003d38 <prvUnlockQueue+0x44>
		pxQueue->cRxLock = queueUNLOCKED;
 8003d56:	23ff      	movs	r3, #255	@ 0xff
 8003d58:	f885 3044 	strb.w	r3, [r5, #68]	@ 0x44
	taskEXIT_CRITICAL();
 8003d5c:	f001 fee4 	bl	8005b28 <vPortExitCritical>
}
 8003d60:	bd38      	pop	{r3, r4, r5, pc}

08003d62 <xQueueGenericReset>:
{
 8003d62:	b538      	push	{r3, r4, r5, lr}
	configASSERT( pxQueue );
 8003d64:	b1e0      	cbz	r0, 8003da0 <xQueueGenericReset+0x3e>
 8003d66:	460d      	mov	r5, r1
 8003d68:	4604      	mov	r4, r0
	taskENTER_CRITICAL();
 8003d6a:	f001 febb 	bl	8005ae4 <vPortEnterCritical>
		pxQueue->u.xQueue.pcTail = pxQueue->pcHead + ( pxQueue->uxLength * pxQueue->uxItemSize ); /*lint !e9016 Pointer arithmetic allowed on char types, especially when it assists conveying intent. */
 8003d6e:	6823      	ldr	r3, [r4, #0]
 8003d70:	6be2      	ldr	r2, [r4, #60]	@ 0x3c
 8003d72:	6c21      	ldr	r1, [r4, #64]	@ 0x40
 8003d74:	fb01 3002 	mla	r0, r1, r2, r3
 8003d78:	60a0      	str	r0, [r4, #8]
		pxQueue->uxMessagesWaiting = ( UBaseType_t ) 0U;
 8003d7a:	2000      	movs	r0, #0
 8003d7c:	63a0      	str	r0, [r4, #56]	@ 0x38
		pxQueue->pcWriteTo = pxQueue->pcHead;
 8003d7e:	6063      	str	r3, [r4, #4]
		pxQueue->u.xQueue.pcReadFrom = pxQueue->pcHead + ( ( pxQueue->uxLength - 1U ) * pxQueue->uxItemSize ); /*lint !e9016 Pointer arithmetic allowed on char types, especially when it assists conveying intent. */
 8003d80:	3a01      	subs	r2, #1
 8003d82:	fb02 3301 	mla	r3, r2, r1, r3
 8003d86:	60e3      	str	r3, [r4, #12]
		pxQueue->cRxLock = queueUNLOCKED;
 8003d88:	23ff      	movs	r3, #255	@ 0xff
 8003d8a:	f884 3044 	strb.w	r3, [r4, #68]	@ 0x44
		pxQueue->cTxLock = queueUNLOCKED;
 8003d8e:	f884 3045 	strb.w	r3, [r4, #69]	@ 0x45
		if( xNewQueue == pdFALSE )
 8003d92:	b9fd      	cbnz	r5, 8003dd4 <xQueueGenericReset+0x72>
			if( listLIST_IS_EMPTY( &( pxQueue->xTasksWaitingToSend ) ) == pdFALSE )
 8003d94:	6923      	ldr	r3, [r4, #16]
 8003d96:	b963      	cbnz	r3, 8003db2 <xQueueGenericReset+0x50>
	taskEXIT_CRITICAL();
 8003d98:	f001 fec6 	bl	8005b28 <vPortExitCritical>
}
 8003d9c:	2001      	movs	r0, #1
 8003d9e:	bd38      	pop	{r3, r4, r5, pc}

portFORCE_INLINE static void vPortRaiseBASEPRI( void )
{
uint32_t ulNewBASEPRI;

	__asm volatile
 8003da0:	f04f 0350 	mov.w	r3, #80	@ 0x50
 8003da4:	f383 8811 	msr	BASEPRI, r3
 8003da8:	f3bf 8f6f 	isb	sy
 8003dac:	f3bf 8f4f 	dsb	sy
	configASSERT( pxQueue );
 8003db0:	e7fe      	b.n	8003db0 <xQueueGenericReset+0x4e>
				if( xTaskRemoveFromEventList( &( pxQueue->xTasksWaitingToSend ) ) != pdFALSE )
 8003db2:	f104 0010 	add.w	r0, r4, #16
 8003db6:	f001 f99b 	bl	80050f0 <xTaskRemoveFromEventList>
 8003dba:	2800      	cmp	r0, #0
 8003dbc:	d0ec      	beq.n	8003d98 <xQueueGenericReset+0x36>
					queueYIELD_IF_USING_PREEMPTION();
 8003dbe:	f04f 23e0 	mov.w	r3, #3758153728	@ 0xe000e000
 8003dc2:	f04f 5280 	mov.w	r2, #268435456	@ 0x10000000
 8003dc6:	f8c3 2d04 	str.w	r2, [r3, #3332]	@ 0xd04
 8003dca:	f3bf 8f4f 	dsb	sy
 8003dce:	f3bf 8f6f 	isb	sy
 8003dd2:	e7e1      	b.n	8003d98 <xQueueGenericReset+0x36>
			vListInitialise( &( pxQueue->xTasksWaitingToSend ) );
 8003dd4:	f104 0010 	add.w	r0, r4, #16
 8003dd8:	f7ff fed6 	bl	8003b88 <vListInitialise>
			vListInitialise( &( pxQueue->xTasksWaitingToReceive ) );
 8003ddc:	f104 0024 	add.w	r0, r4, #36	@ 0x24
 8003de0:	f7ff fed2 	bl	8003b88 <vListInitialise>
 8003de4:	e7d8      	b.n	8003d98 <xQueueGenericReset+0x36>

08003de6 <prvInitialiseNewQueue>:
{
 8003de6:	b538      	push	{r3, r4, r5, lr}
 8003de8:	461d      	mov	r5, r3
 8003dea:	9c04      	ldr	r4, [sp, #16]
	if( uxItemSize == ( UBaseType_t ) 0 )
 8003dec:	460b      	mov	r3, r1
 8003dee:	b949      	cbnz	r1, 8003e04 <prvInitialiseNewQueue+0x1e>
		pxNewQueue->pcHead = ( int8_t * ) pxNewQueue;
 8003df0:	6024      	str	r4, [r4, #0]
	pxNewQueue->uxLength = uxQueueLength;
 8003df2:	63e0      	str	r0, [r4, #60]	@ 0x3c
	pxNewQueue->uxItemSize = uxItemSize;
 8003df4:	6423      	str	r3, [r4, #64]	@ 0x40
	( void ) xQueueGenericReset( pxNewQueue, pdTRUE );
 8003df6:	2101      	movs	r1, #1
 8003df8:	4620      	mov	r0, r4
 8003dfa:	f7ff ffb2 	bl	8003d62 <xQueueGenericReset>
		pxNewQueue->ucQueueType = ucQueueType;
 8003dfe:	f884 504c 	strb.w	r5, [r4, #76]	@ 0x4c
}
 8003e02:	bd38      	pop	{r3, r4, r5, pc}
		pxNewQueue->pcHead = ( int8_t * ) pucQueueStorage;
 8003e04:	6022      	str	r2, [r4, #0]
 8003e06:	e7f4      	b.n	8003df2 <prvInitialiseNewQueue+0xc>

08003e08 <xQueueGenericCreateStatic>:
		configASSERT( uxQueueLength > ( UBaseType_t ) 0 );
 8003e08:	b940      	cbnz	r0, 8003e1c <xQueueGenericCreateStatic+0x14>
 8003e0a:	f04f 0350 	mov.w	r3, #80	@ 0x50
 8003e0e:	f383 8811 	msr	BASEPRI, r3
 8003e12:	f3bf 8f6f 	isb	sy
 8003e16:	f3bf 8f4f 	dsb	sy
 8003e1a:	e7fe      	b.n	8003e1a <xQueueGenericCreateStatic+0x12>
	{
 8003e1c:	b510      	push	{r4, lr}
 8003e1e:	b084      	sub	sp, #16
 8003e20:	461c      	mov	r4, r3
 8003e22:	4684      	mov	ip, r0
		configASSERT( pxStaticQueue != NULL );
 8003e24:	b153      	cbz	r3, 8003e3c <xQueueGenericCreateStatic+0x34>
		configASSERT( !( ( pucQueueStorage != NULL ) && ( uxItemSize == 0 ) ) );
 8003e26:	b192      	cbz	r2, 8003e4e <xQueueGenericCreateStatic+0x46>
 8003e28:	b989      	cbnz	r1, 8003e4e <xQueueGenericCreateStatic+0x46>
 8003e2a:	f04f 0350 	mov.w	r3, #80	@ 0x50
 8003e2e:	f383 8811 	msr	BASEPRI, r3
 8003e32:	f3bf 8f6f 	isb	sy
 8003e36:	f3bf 8f4f 	dsb	sy
 8003e3a:	e7fe      	b.n	8003e3a <xQueueGenericCreateStatic+0x32>
 8003e3c:	f04f 0350 	mov.w	r3, #80	@ 0x50
 8003e40:	f383 8811 	msr	BASEPRI, r3
 8003e44:	f3bf 8f6f 	isb	sy
 8003e48:	f3bf 8f4f 	dsb	sy
		configASSERT( pxStaticQueue != NULL );
 8003e4c:	e7fe      	b.n	8003e4c <xQueueGenericCreateStatic+0x44>
		configASSERT( !( ( pucQueueStorage == NULL ) && ( uxItemSize != 0 ) ) );
 8003e4e:	b16a      	cbz	r2, 8003e6c <xQueueGenericCreateStatic+0x64>
			volatile size_t xSize = sizeof( StaticQueue_t );
 8003e50:	2350      	movs	r3, #80	@ 0x50
 8003e52:	9303      	str	r3, [sp, #12]
			configASSERT( xSize == sizeof( Queue_t ) );
 8003e54:	9b03      	ldr	r3, [sp, #12]
 8003e56:	2b50      	cmp	r3, #80	@ 0x50
 8003e58:	d013      	beq.n	8003e82 <xQueueGenericCreateStatic+0x7a>
 8003e5a:	f04f 0350 	mov.w	r3, #80	@ 0x50
 8003e5e:	f383 8811 	msr	BASEPRI, r3
 8003e62:	f3bf 8f6f 	isb	sy
 8003e66:	f3bf 8f4f 	dsb	sy
 8003e6a:	e7fe      	b.n	8003e6a <xQueueGenericCreateStatic+0x62>
		configASSERT( !( ( pucQueueStorage == NULL ) && ( uxItemSize != 0 ) ) );
 8003e6c:	2900      	cmp	r1, #0
 8003e6e:	d0ef      	beq.n	8003e50 <xQueueGenericCreateStatic+0x48>
 8003e70:	f04f 0350 	mov.w	r3, #80	@ 0x50
 8003e74:	f383 8811 	msr	BASEPRI, r3
 8003e78:	f3bf 8f6f 	isb	sy
 8003e7c:	f3bf 8f4f 	dsb	sy
 8003e80:	e7fe      	b.n	8003e80 <xQueueGenericCreateStatic+0x78>
			( void ) xSize; /* Keeps lint quiet when configASSERT() is not defined. */
 8003e82:	9b03      	ldr	r3, [sp, #12]
				pxNewQueue->ucStaticallyAllocated = pdTRUE;
 8003e84:	2301      	movs	r3, #1
 8003e86:	f884 3046 	strb.w	r3, [r4, #70]	@ 0x46
			prvInitialiseNewQueue( uxQueueLength, uxItemSize, pucQueueStorage, ucQueueType, pxNewQueue );
 8003e8a:	9400      	str	r4, [sp, #0]
 8003e8c:	f89d 3018 	ldrb.w	r3, [sp, #24]
 8003e90:	4660      	mov	r0, ip
 8003e92:	f7ff ffa8 	bl	8003de6 <prvInitialiseNewQueue>
	}
 8003e96:	4620      	mov	r0, r4
 8003e98:	b004      	add	sp, #16
 8003e9a:	bd10      	pop	{r4, pc}

08003e9c <xQueueGenericCreate>:
		configASSERT( uxQueueLength > ( UBaseType_t ) 0 );
 8003e9c:	b940      	cbnz	r0, 8003eb0 <xQueueGenericCreate+0x14>
 8003e9e:	f04f 0350 	mov.w	r3, #80	@ 0x50
 8003ea2:	f383 8811 	msr	BASEPRI, r3
 8003ea6:	f3bf 8f6f 	isb	sy
 8003eaa:	f3bf 8f4f 	dsb	sy
 8003eae:	e7fe      	b.n	8003eae <xQueueGenericCreate+0x12>
	{
 8003eb0:	b5f0      	push	{r4, r5, r6, r7, lr}
 8003eb2:	b083      	sub	sp, #12
 8003eb4:	460d      	mov	r5, r1
 8003eb6:	4614      	mov	r4, r2
 8003eb8:	4606      	mov	r6, r0
		xQueueSizeInBytes = ( size_t ) ( uxQueueLength * uxItemSize ); /*lint !e961 MISRA exception as the casts are only redundant for some ports. */
 8003eba:	fb01 f000 	mul.w	r0, r1, r0
		pxNewQueue = ( Queue_t * ) pvPortMalloc( sizeof( Queue_t ) + xQueueSizeInBytes ); /*lint !e9087 !e9079 see comment above. */
 8003ebe:	3050      	adds	r0, #80	@ 0x50
 8003ec0:	f001 ffc8 	bl	8005e54 <pvPortMalloc>
		if( pxNewQueue != NULL )
 8003ec4:	4607      	mov	r7, r0
 8003ec6:	b150      	cbz	r0, 8003ede <xQueueGenericCreate+0x42>
				pxNewQueue->ucStaticallyAllocated = pdFALSE;
 8003ec8:	2300      	movs	r3, #0
 8003eca:	f880 3046 	strb.w	r3, [r0, #70]	@ 0x46
			prvInitialiseNewQueue( uxQueueLength, uxItemSize, pucQueueStorage, ucQueueType, pxNewQueue );
 8003ece:	9000      	str	r0, [sp, #0]
 8003ed0:	4623      	mov	r3, r4
 8003ed2:	f100 0250 	add.w	r2, r0, #80	@ 0x50
 8003ed6:	4629      	mov	r1, r5
 8003ed8:	4630      	mov	r0, r6
 8003eda:	f7ff ff84 	bl	8003de6 <prvInitialiseNewQueue>
	}
 8003ede:	4638      	mov	r0, r7
 8003ee0:	b003      	add	sp, #12
 8003ee2:	bdf0      	pop	{r4, r5, r6, r7, pc}

08003ee4 <xQueueCreateCountingSemaphoreStatic>:
		configASSERT( uxMaxCount != 0 );
 8003ee4:	b940      	cbnz	r0, 8003ef8 <xQueueCreateCountingSemaphoreStatic+0x14>
 8003ee6:	f04f 0350 	mov.w	r3, #80	@ 0x50
 8003eea:	f383 8811 	msr	BASEPRI, r3
 8003eee:	f3bf 8f6f 	isb	sy
 8003ef2:	f3bf 8f4f 	dsb	sy
 8003ef6:	e7fe      	b.n	8003ef6 <xQueueCreateCountingSemaphoreStatic+0x12>
	{
 8003ef8:	b510      	push	{r4, lr}
 8003efa:	b082      	sub	sp, #8
 8003efc:	460c      	mov	r4, r1
		configASSERT( uxInitialCount <= uxMaxCount );
 8003efe:	4288      	cmp	r0, r1
 8003f00:	d208      	bcs.n	8003f14 <xQueueCreateCountingSemaphoreStatic+0x30>
 8003f02:	f04f 0350 	mov.w	r3, #80	@ 0x50
 8003f06:	f383 8811 	msr	BASEPRI, r3
 8003f0a:	f3bf 8f6f 	isb	sy
 8003f0e:	f3bf 8f4f 	dsb	sy
 8003f12:	e7fe      	b.n	8003f12 <xQueueCreateCountingSemaphoreStatic+0x2e>
		xHandle = xQueueGenericCreateStatic( uxMaxCount, queueSEMAPHORE_QUEUE_ITEM_LENGTH, NULL, pxStaticQueue, queueQUEUE_TYPE_COUNTING_SEMAPHORE );
 8003f14:	2302      	movs	r3, #2
 8003f16:	9300      	str	r3, [sp, #0]
 8003f18:	4613      	mov	r3, r2
 8003f1a:	2200      	movs	r2, #0
 8003f1c:	4611      	mov	r1, r2
 8003f1e:	f7ff ff73 	bl	8003e08 <xQueueGenericCreateStatic>
		if( xHandle != NULL )
 8003f22:	b100      	cbz	r0, 8003f26 <xQueueCreateCountingSemaphoreStatic+0x42>
			( ( Queue_t * ) xHandle )->uxMessagesWaiting = uxInitialCount;
 8003f24:	6384      	str	r4, [r0, #56]	@ 0x38
	}
 8003f26:	b002      	add	sp, #8
 8003f28:	bd10      	pop	{r4, pc}

08003f2a <xQueueCreateCountingSemaphore>:
		configASSERT( uxMaxCount != 0 );
 8003f2a:	b940      	cbnz	r0, 8003f3e <xQueueCreateCountingSemaphore+0x14>
 8003f2c:	f04f 0350 	mov.w	r3, #80	@ 0x50
 8003f30:	f383 8811 	msr	BASEPRI, r3
 8003f34:	f3bf 8f6f 	isb	sy
 8003f38:	f3bf 8f4f 	dsb	sy
 8003f3c:	e7fe      	b.n	8003f3c <xQueueCreateCountingSemaphore+0x12>
	{
 8003f3e:	b510      	push	{r4, lr}
 8003f40:	460c      	mov	r4, r1
		configASSERT( uxInitialCount <= uxMaxCount );
 8003f42:	4288      	cmp	r0, r1
 8003f44:	d208      	bcs.n	8003f58 <xQueueCreateCountingSemaphore+0x2e>
 8003f46:	f04f 0350 	mov.w	r3, #80	@ 0x50
 8003f4a:	f383 8811 	msr	BASEPRI, r3
 8003f4e:	f3bf 8f6f 	isb	sy
 8003f52:	f3bf 8f4f 	dsb	sy
 8003f56:	e7fe      	b.n	8003f56 <xQueueCreateCountingSemaphore+0x2c>
		xHandle = xQueueGenericCreate( uxMaxCount, queueSEMAPHORE_QUEUE_ITEM_LENGTH, queueQUEUE_TYPE_COUNTING_SEMAPHORE );
 8003f58:	2202      	movs	r2, #2
 8003f5a:	2100      	movs	r1, #0
 8003f5c:	f7ff ff9e 	bl	8003e9c <xQueueGenericCreate>
		if( xHandle != NULL )
 8003f60:	b100      	cbz	r0, 8003f64 <xQueueCreateCountingSemaphore+0x3a>
			( ( Queue_t * ) xHandle )->uxMessagesWaiting = uxInitialCount;
 8003f62:	6384      	str	r4, [r0, #56]	@ 0x38
	}
 8003f64:	bd10      	pop	{r4, pc}

08003f66 <xQueueGenericSend>:
{
 8003f66:	b5f0      	push	{r4, r5, r6, r7, lr}
 8003f68:	b085      	sub	sp, #20
 8003f6a:	9201      	str	r2, [sp, #4]
	configASSERT( pxQueue );
 8003f6c:	b188      	cbz	r0, 8003f92 <xQueueGenericSend+0x2c>
 8003f6e:	460f      	mov	r7, r1
 8003f70:	461d      	mov	r5, r3
 8003f72:	4604      	mov	r4, r0
	configASSERT( !( ( pvItemToQueue == NULL ) && ( pxQueue->uxItemSize != ( UBaseType_t ) 0U ) ) );
 8003f74:	b1b1      	cbz	r1, 8003fa4 <xQueueGenericSend+0x3e>
	configASSERT( !( ( xCopyPosition == queueOVERWRITE ) && ( pxQueue->uxLength != 1 ) ) );
 8003f76:	2d02      	cmp	r5, #2
 8003f78:	d120      	bne.n	8003fbc <xQueueGenericSend+0x56>
 8003f7a:	6be3      	ldr	r3, [r4, #60]	@ 0x3c
 8003f7c:	2b01      	cmp	r3, #1
 8003f7e:	d01d      	beq.n	8003fbc <xQueueGenericSend+0x56>
 8003f80:	f04f 0350 	mov.w	r3, #80	@ 0x50
 8003f84:	f383 8811 	msr	BASEPRI, r3
 8003f88:	f3bf 8f6f 	isb	sy
 8003f8c:	f3bf 8f4f 	dsb	sy
 8003f90:	e7fe      	b.n	8003f90 <xQueueGenericSend+0x2a>
 8003f92:	f04f 0350 	mov.w	r3, #80	@ 0x50
 8003f96:	f383 8811 	msr	BASEPRI, r3
 8003f9a:	f3bf 8f6f 	isb	sy
 8003f9e:	f3bf 8f4f 	dsb	sy
	configASSERT( pxQueue );
 8003fa2:	e7fe      	b.n	8003fa2 <xQueueGenericSend+0x3c>
	configASSERT( !( ( pvItemToQueue == NULL ) && ( pxQueue->uxItemSize != ( UBaseType_t ) 0U ) ) );
 8003fa4:	6c03      	ldr	r3, [r0, #64]	@ 0x40
 8003fa6:	2b00      	cmp	r3, #0
 8003fa8:	d0e5      	beq.n	8003f76 <xQueueGenericSend+0x10>
 8003faa:	f04f 0350 	mov.w	r3, #80	@ 0x50
 8003fae:	f383 8811 	msr	BASEPRI, r3
 8003fb2:	f3bf 8f6f 	isb	sy
 8003fb6:	f3bf 8f4f 	dsb	sy
 8003fba:	e7fe      	b.n	8003fba <xQueueGenericSend+0x54>
		configASSERT( !( ( xTaskGetSchedulerState() == taskSCHEDULER_SUSPENDED ) && ( xTicksToWait != 0 ) ) );
 8003fbc:	f001 f9fc 	bl	80053b8 <xTaskGetSchedulerState>
 8003fc0:	4606      	mov	r6, r0
 8003fc2:	b958      	cbnz	r0, 8003fdc <xQueueGenericSend+0x76>
 8003fc4:	9b01      	ldr	r3, [sp, #4]
 8003fc6:	2b00      	cmp	r3, #0
 8003fc8:	d048      	beq.n	800405c <xQueueGenericSend+0xf6>
 8003fca:	f04f 0350 	mov.w	r3, #80	@ 0x50
 8003fce:	f383 8811 	msr	BASEPRI, r3
 8003fd2:	f3bf 8f6f 	isb	sy
 8003fd6:	f3bf 8f4f 	dsb	sy
 8003fda:	e7fe      	b.n	8003fda <xQueueGenericSend+0x74>
 8003fdc:	2600      	movs	r6, #0
 8003fde:	e03d      	b.n	800405c <xQueueGenericSend+0xf6>
					xYieldRequired = prvCopyDataToQueue( pxQueue, pvItemToQueue, xCopyPosition );
 8003fe0:	462a      	mov	r2, r5
 8003fe2:	4639      	mov	r1, r7
 8003fe4:	4620      	mov	r0, r4
 8003fe6:	f7ff fe38 	bl	8003c5a <prvCopyDataToQueue>
					if( listLIST_IS_EMPTY( &( pxQueue->xTasksWaitingToReceive ) ) == pdFALSE )
 8003fea:	6a63      	ldr	r3, [r4, #36]	@ 0x24
 8003fec:	b97b      	cbnz	r3, 800400e <xQueueGenericSend+0xa8>
					else if( xYieldRequired != pdFALSE )
 8003fee:	b148      	cbz	r0, 8004004 <xQueueGenericSend+0x9e>
						queueYIELD_IF_USING_PREEMPTION();
 8003ff0:	f04f 23e0 	mov.w	r3, #3758153728	@ 0xe000e000
 8003ff4:	f04f 5280 	mov.w	r2, #268435456	@ 0x10000000
 8003ff8:	f8c3 2d04 	str.w	r2, [r3, #3332]	@ 0xd04
 8003ffc:	f3bf 8f4f 	dsb	sy
 8004000:	f3bf 8f6f 	isb	sy
				taskEXIT_CRITICAL();
 8004004:	f001 fd90 	bl	8005b28 <vPortExitCritical>
				return pdPASS;
 8004008:	2001      	movs	r0, #1
}
 800400a:	b005      	add	sp, #20
 800400c:	bdf0      	pop	{r4, r5, r6, r7, pc}
						if( xTaskRemoveFromEventList( &( pxQueue->xTasksWaitingToReceive ) ) != pdFALSE )
 800400e:	f104 0024 	add.w	r0, r4, #36	@ 0x24
 8004012:	f001 f86d 	bl	80050f0 <xTaskRemoveFromEventList>
 8004016:	2800      	cmp	r0, #0
 8004018:	d0f4      	beq.n	8004004 <xQueueGenericSend+0x9e>
							queueYIELD_IF_USING_PREEMPTION();
 800401a:	f04f 23e0 	mov.w	r3, #3758153728	@ 0xe000e000
 800401e:	f04f 5280 	mov.w	r2, #268435456	@ 0x10000000
 8004022:	f8c3 2d04 	str.w	r2, [r3, #3332]	@ 0xd04
 8004026:	f3bf 8f4f 	dsb	sy
 800402a:	f3bf 8f6f 	isb	sy
 800402e:	e7e9      	b.n	8004004 <xQueueGenericSend+0x9e>
					taskEXIT_CRITICAL();
 8004030:	f001 fd7a 	bl	8005b28 <vPortExitCritical>
					return errQUEUE_FULL;
 8004034:	2000      	movs	r0, #0
 8004036:	e7e8      	b.n	800400a <xQueueGenericSend+0xa4>
					vTaskInternalSetTimeOutState( &xTimeOut );
 8004038:	a802      	add	r0, sp, #8
 800403a:	f001 f89f 	bl	800517c <vTaskInternalSetTimeOutState>
					xEntryTimeSet = pdTRUE;
 800403e:	2601      	movs	r6, #1
 8004040:	e019      	b.n	8004076 <xQueueGenericSend+0x110>
		prvLockQueue( pxQueue );
 8004042:	2300      	movs	r3, #0
 8004044:	f884 3044 	strb.w	r3, [r4, #68]	@ 0x44
 8004048:	e021      	b.n	800408e <xQueueGenericSend+0x128>
 800404a:	2300      	movs	r3, #0
 800404c:	f884 3045 	strb.w	r3, [r4, #69]	@ 0x45
 8004050:	e023      	b.n	800409a <xQueueGenericSend+0x134>
				prvUnlockQueue( pxQueue );
 8004052:	4620      	mov	r0, r4
 8004054:	f7ff fe4e 	bl	8003cf4 <prvUnlockQueue>
				( void ) xTaskResumeAll();
 8004058:	f000 ff0e 	bl	8004e78 <xTaskResumeAll>
		taskENTER_CRITICAL();
 800405c:	f001 fd42 	bl	8005ae4 <vPortEnterCritical>
			if( ( pxQueue->uxMessagesWaiting < pxQueue->uxLength ) || ( xCopyPosition == queueOVERWRITE ) )
 8004060:	6ba2      	ldr	r2, [r4, #56]	@ 0x38
 8004062:	6be3      	ldr	r3, [r4, #60]	@ 0x3c
 8004064:	429a      	cmp	r2, r3
 8004066:	d3bb      	bcc.n	8003fe0 <xQueueGenericSend+0x7a>
 8004068:	2d02      	cmp	r5, #2
 800406a:	d0b9      	beq.n	8003fe0 <xQueueGenericSend+0x7a>
				if( xTicksToWait == ( TickType_t ) 0 )
 800406c:	9b01      	ldr	r3, [sp, #4]
 800406e:	2b00      	cmp	r3, #0
 8004070:	d0de      	beq.n	8004030 <xQueueGenericSend+0xca>
				else if( xEntryTimeSet == pdFALSE )
 8004072:	2e00      	cmp	r6, #0
 8004074:	d0e0      	beq.n	8004038 <xQueueGenericSend+0xd2>
		taskEXIT_CRITICAL();
 8004076:	f001 fd57 	bl	8005b28 <vPortExitCritical>
		vTaskSuspendAll();
 800407a:	f000 fe55 	bl	8004d28 <vTaskSuspendAll>
		prvLockQueue( pxQueue );
 800407e:	f001 fd31 	bl	8005ae4 <vPortEnterCritical>
 8004082:	f894 2044 	ldrb.w	r2, [r4, #68]	@ 0x44
 8004086:	b252      	sxtb	r2, r2
 8004088:	f1b2 3fff 	cmp.w	r2, #4294967295	@ 0xffffffff
 800408c:	d0d9      	beq.n	8004042 <xQueueGenericSend+0xdc>
 800408e:	f894 2045 	ldrb.w	r2, [r4, #69]	@ 0x45
 8004092:	b252      	sxtb	r2, r2
 8004094:	f1b2 3fff 	cmp.w	r2, #4294967295	@ 0xffffffff
 8004098:	d0d7      	beq.n	800404a <xQueueGenericSend+0xe4>
 800409a:	f001 fd45 	bl	8005b28 <vPortExitCritical>
		if( xTaskCheckForTimeOut( &xTimeOut, &xTicksToWait ) == pdFALSE )
 800409e:	a901      	add	r1, sp, #4
 80040a0:	a802      	add	r0, sp, #8
 80040a2:	f001 f877 	bl	8005194 <xTaskCheckForTimeOut>
 80040a6:	b9d8      	cbnz	r0, 80040e0 <xQueueGenericSend+0x17a>
			if( prvIsQueueFull( pxQueue ) != pdFALSE )
 80040a8:	4620      	mov	r0, r4
 80040aa:	f7ff fdba 	bl	8003c22 <prvIsQueueFull>
 80040ae:	2800      	cmp	r0, #0
 80040b0:	d0cf      	beq.n	8004052 <xQueueGenericSend+0xec>
				vTaskPlaceOnEventList( &( pxQueue->xTasksWaitingToSend ), xTicksToWait );
 80040b2:	9901      	ldr	r1, [sp, #4]
 80040b4:	f104 0010 	add.w	r0, r4, #16
 80040b8:	f000 ffe6 	bl	8005088 <vTaskPlaceOnEventList>
				prvUnlockQueue( pxQueue );
 80040bc:	4620      	mov	r0, r4
 80040be:	f7ff fe19 	bl	8003cf4 <prvUnlockQueue>
				if( xTaskResumeAll() == pdFALSE )
 80040c2:	f000 fed9 	bl	8004e78 <xTaskResumeAll>
 80040c6:	2800      	cmp	r0, #0
 80040c8:	d1c8      	bne.n	800405c <xQueueGenericSend+0xf6>
					portYIELD_WITHIN_API();
 80040ca:	f04f 23e0 	mov.w	r3, #3758153728	@ 0xe000e000
 80040ce:	f04f 5280 	mov.w	r2, #268435456	@ 0x10000000
 80040d2:	f8c3 2d04 	str.w	r2, [r3, #3332]	@ 0xd04
 80040d6:	f3bf 8f4f 	dsb	sy
 80040da:	f3bf 8f6f 	isb	sy
 80040de:	e7bd      	b.n	800405c <xQueueGenericSend+0xf6>
			prvUnlockQueue( pxQueue );
 80040e0:	4620      	mov	r0, r4
 80040e2:	f7ff fe07 	bl	8003cf4 <prvUnlockQueue>
			( void ) xTaskResumeAll();
 80040e6:	f000 fec7 	bl	8004e78 <xTaskResumeAll>
			return errQUEUE_FULL;
 80040ea:	2000      	movs	r0, #0
 80040ec:	e78d      	b.n	800400a <xQueueGenericSend+0xa4>

080040ee <prvInitialiseMutex>:
		if( pxNewQueue != NULL )
 80040ee:	b148      	cbz	r0, 8004104 <prvInitialiseMutex+0x16>
	{
 80040f0:	b508      	push	{r3, lr}
			pxNewQueue->u.xSemaphore.xMutexHolder = NULL;
 80040f2:	2100      	movs	r1, #0
 80040f4:	6081      	str	r1, [r0, #8]
			pxNewQueue->uxQueueType = queueQUEUE_IS_MUTEX;
 80040f6:	6001      	str	r1, [r0, #0]
			pxNewQueue->u.xSemaphore.uxRecursiveCallCount = 0;
 80040f8:	60c1      	str	r1, [r0, #12]
			( void ) xQueueGenericSend( pxNewQueue, NULL, ( TickType_t ) 0U, queueSEND_TO_BACK );
 80040fa:	460b      	mov	r3, r1
 80040fc:	460a      	mov	r2, r1
 80040fe:	f7ff ff32 	bl	8003f66 <xQueueGenericSend>
	}
 8004102:	bd08      	pop	{r3, pc}
 8004104:	4770      	bx	lr

08004106 <xQueueCreateMutex>:
	{
 8004106:	b510      	push	{r4, lr}
 8004108:	4602      	mov	r2, r0
		xNewQueue = xQueueGenericCreate( uxMutexLength, uxMutexSize, ucQueueType );
 800410a:	2100      	movs	r1, #0
 800410c:	2001      	movs	r0, #1
 800410e:	f7ff fec5 	bl	8003e9c <xQueueGenericCreate>
 8004112:	4604      	mov	r4, r0
		prvInitialiseMutex( ( Queue_t * ) xNewQueue );
 8004114:	f7ff ffeb 	bl	80040ee <prvInitialiseMutex>
	}
 8004118:	4620      	mov	r0, r4
 800411a:	bd10      	pop	{r4, pc}

0800411c <xQueueCreateMutexStatic>:
	{
 800411c:	b510      	push	{r4, lr}
 800411e:	b082      	sub	sp, #8
 8004120:	460b      	mov	r3, r1
		xNewQueue = xQueueGenericCreateStatic( uxMutexLength, uxMutexSize, NULL, pxStaticQueue, ucQueueType );
 8004122:	9000      	str	r0, [sp, #0]
 8004124:	2200      	movs	r2, #0
 8004126:	4611      	mov	r1, r2
 8004128:	2001      	movs	r0, #1
 800412a:	f7ff fe6d 	bl	8003e08 <xQueueGenericCreateStatic>
 800412e:	4604      	mov	r4, r0
		prvInitialiseMutex( ( Queue_t * ) xNewQueue );
 8004130:	f7ff ffdd 	bl	80040ee <prvInitialiseMutex>
	}
 8004134:	4620      	mov	r0, r4
 8004136:	b002      	add	sp, #8
 8004138:	bd10      	pop	{r4, pc}

0800413a <xQueueGiveMutexRecursive>:
	{
 800413a:	b538      	push	{r3, r4, r5, lr}
		configASSERT( pxMutex );
 800413c:	b138      	cbz	r0, 800414e <xQueueGiveMutexRecursive+0x14>
 800413e:	4604      	mov	r4, r0
		if( pxMutex->u.xSemaphore.xMutexHolder == xTaskGetCurrentTaskHandle() )
 8004140:	6885      	ldr	r5, [r0, #8]
 8004142:	f001 f933 	bl	80053ac <xTaskGetCurrentTaskHandle>
 8004146:	4285      	cmp	r5, r0
 8004148:	d00a      	beq.n	8004160 <xQueueGiveMutexRecursive+0x26>
			xReturn = pdFAIL;
 800414a:	2000      	movs	r0, #0
	}
 800414c:	bd38      	pop	{r3, r4, r5, pc}
 800414e:	f04f 0350 	mov.w	r3, #80	@ 0x50
 8004152:	f383 8811 	msr	BASEPRI, r3
 8004156:	f3bf 8f6f 	isb	sy
 800415a:	f3bf 8f4f 	dsb	sy
		configASSERT( pxMutex );
 800415e:	e7fe      	b.n	800415e <xQueueGiveMutexRecursive+0x24>
			( pxMutex->u.xSemaphore.uxRecursiveCallCount )--;
 8004160:	68e3      	ldr	r3, [r4, #12]
 8004162:	3b01      	subs	r3, #1
 8004164:	60e3      	str	r3, [r4, #12]
			if( pxMutex->u.xSemaphore.uxRecursiveCallCount == ( UBaseType_t ) 0 )
 8004166:	b10b      	cbz	r3, 800416c <xQueueGiveMutexRecursive+0x32>
			xReturn = pdPASS;
 8004168:	2001      	movs	r0, #1
		return xReturn;
 800416a:	e7ef      	b.n	800414c <xQueueGiveMutexRecursive+0x12>
				( void ) xQueueGenericSend( pxMutex, NULL, queueMUTEX_GIVE_BLOCK_TIME, queueSEND_TO_BACK );
 800416c:	461a      	mov	r2, r3
 800416e:	4619      	mov	r1, r3
 8004170:	4620      	mov	r0, r4
 8004172:	f7ff fef8 	bl	8003f66 <xQueueGenericSend>
			xReturn = pdPASS;
 8004176:	2001      	movs	r0, #1
 8004178:	e7e8      	b.n	800414c <xQueueGiveMutexRecursive+0x12>

0800417a <xQueueGenericSendFromISR>:
{
 800417a:	e92d 43f8 	stmdb	sp!, {r3, r4, r5, r6, r7, r8, r9, lr}
	configASSERT( pxQueue );
 800417e:	b190      	cbz	r0, 80041a6 <xQueueGenericSendFromISR+0x2c>
 8004180:	460f      	mov	r7, r1
 8004182:	4616      	mov	r6, r2
 8004184:	461c      	mov	r4, r3
 8004186:	4605      	mov	r5, r0
	configASSERT( !( ( pvItemToQueue == NULL ) && ( pxQueue->uxItemSize != ( UBaseType_t ) 0U ) ) );
 8004188:	b1b1      	cbz	r1, 80041b8 <xQueueGenericSendFromISR+0x3e>
	configASSERT( !( ( xCopyPosition == queueOVERWRITE ) && ( pxQueue->uxLength != 1 ) ) );
 800418a:	2c02      	cmp	r4, #2
 800418c:	d120      	bne.n	80041d0 <xQueueGenericSendFromISR+0x56>
 800418e:	6beb      	ldr	r3, [r5, #60]	@ 0x3c
 8004190:	2b01      	cmp	r3, #1
 8004192:	d01d      	beq.n	80041d0 <xQueueGenericSendFromISR+0x56>
 8004194:	f04f 0350 	mov.w	r3, #80	@ 0x50
 8004198:	f383 8811 	msr	BASEPRI, r3
 800419c:	f3bf 8f6f 	isb	sy
 80041a0:	f3bf 8f4f 	dsb	sy
 80041a4:	e7fe      	b.n	80041a4 <xQueueGenericSendFromISR+0x2a>
 80041a6:	f04f 0350 	mov.w	r3, #80	@ 0x50
 80041aa:	f383 8811 	msr	BASEPRI, r3
 80041ae:	f3bf 8f6f 	isb	sy
 80041b2:	f3bf 8f4f 	dsb	sy
	configASSERT( pxQueue );
 80041b6:	e7fe      	b.n	80041b6 <xQueueGenericSendFromISR+0x3c>
	configASSERT( !( ( pvItemToQueue == NULL ) && ( pxQueue->uxItemSize != ( UBaseType_t ) 0U ) ) );
 80041b8:	6c03      	ldr	r3, [r0, #64]	@ 0x40
 80041ba:	2b00      	cmp	r3, #0
 80041bc:	d0e5      	beq.n	800418a <xQueueGenericSendFromISR+0x10>
 80041be:	f04f 0350 	mov.w	r3, #80	@ 0x50
 80041c2:	f383 8811 	msr	BASEPRI, r3
 80041c6:	f3bf 8f6f 	isb	sy
 80041ca:	f3bf 8f4f 	dsb	sy
 80041ce:	e7fe      	b.n	80041ce <xQueueGenericSendFromISR+0x54>
	portASSERT_IF_INTERRUPT_PRIORITY_INVALID();
 80041d0:	f001 fdae 	bl	8005d30 <vPortValidateInterruptPriority>

portFORCE_INLINE static uint32_t ulPortRaiseBASEPRI( void )
{
uint32_t ulOriginalBASEPRI, ulNewBASEPRI;

	__asm volatile
 80041d4:	f3ef 8811 	mrs	r8, BASEPRI
 80041d8:	f04f 0350 	mov.w	r3, #80	@ 0x50
 80041dc:	f383 8811 	msr	BASEPRI, r3
 80041e0:	f3bf 8f6f 	isb	sy
 80041e4:	f3bf 8f4f 	dsb	sy
		if( ( pxQueue->uxMessagesWaiting < pxQueue->uxLength ) || ( xCopyPosition == queueOVERWRITE ) )
 80041e8:	6baa      	ldr	r2, [r5, #56]	@ 0x38
 80041ea:	6beb      	ldr	r3, [r5, #60]	@ 0x3c
 80041ec:	429a      	cmp	r2, r3
 80041ee:	d306      	bcc.n	80041fe <xQueueGenericSendFromISR+0x84>
 80041f0:	2c02      	cmp	r4, #2
 80041f2:	d004      	beq.n	80041fe <xQueueGenericSendFromISR+0x84>
			xReturn = errQUEUE_FULL;
 80041f4:	2000      	movs	r0, #0
}
/*-----------------------------------------------------------*/

portFORCE_INLINE static void vPortSetBASEPRI( uint32_t ulNewMaskValue )
{
	__asm volatile
 80041f6:	f388 8811 	msr	BASEPRI, r8
}
 80041fa:	e8bd 83f8 	ldmia.w	sp!, {r3, r4, r5, r6, r7, r8, r9, pc}
			const int8_t cTxLock = pxQueue->cTxLock;
 80041fe:	f895 9045 	ldrb.w	r9, [r5, #69]	@ 0x45
 8004202:	fa4f f989 	sxtb.w	r9, r9
			const UBaseType_t uxPreviousMessagesWaiting = pxQueue->uxMessagesWaiting;
 8004206:	6bab      	ldr	r3, [r5, #56]	@ 0x38
			( void ) prvCopyDataToQueue( pxQueue, pvItemToQueue, xCopyPosition );
 8004208:	4622      	mov	r2, r4
 800420a:	4639      	mov	r1, r7
 800420c:	4628      	mov	r0, r5
 800420e:	f7ff fd24 	bl	8003c5a <prvCopyDataToQueue>
			if( cTxLock == queueUNLOCKED )
 8004212:	f1b9 3fff 	cmp.w	r9, #4294967295	@ 0xffffffff
 8004216:	d006      	beq.n	8004226 <xQueueGenericSendFromISR+0xac>
				pxQueue->cTxLock = ( int8_t ) ( cTxLock + 1 );
 8004218:	f109 0301 	add.w	r3, r9, #1
 800421c:	b25b      	sxtb	r3, r3
 800421e:	f885 3045 	strb.w	r3, [r5, #69]	@ 0x45
			xReturn = pdPASS;
 8004222:	2001      	movs	r0, #1
 8004224:	e7e7      	b.n	80041f6 <xQueueGenericSendFromISR+0x7c>
					if( listLIST_IS_EMPTY( &( pxQueue->xTasksWaitingToReceive ) ) == pdFALSE )
 8004226:	6a6b      	ldr	r3, [r5, #36]	@ 0x24
 8004228:	b90b      	cbnz	r3, 800422e <xQueueGenericSendFromISR+0xb4>
			xReturn = pdPASS;
 800422a:	2001      	movs	r0, #1
 800422c:	e7e3      	b.n	80041f6 <xQueueGenericSendFromISR+0x7c>
						if( xTaskRemoveFromEventList( &( pxQueue->xTasksWaitingToReceive ) ) != pdFALSE )
 800422e:	f105 0024 	add.w	r0, r5, #36	@ 0x24
 8004232:	f000 ff5d 	bl	80050f0 <xTaskRemoveFromEventList>
 8004236:	b118      	cbz	r0, 8004240 <xQueueGenericSendFromISR+0xc6>
							if( pxHigherPriorityTaskWoken != NULL )
 8004238:	b126      	cbz	r6, 8004244 <xQueueGenericSendFromISR+0xca>
								*pxHigherPriorityTaskWoken = pdTRUE;
 800423a:	2001      	movs	r0, #1
 800423c:	6030      	str	r0, [r6, #0]
 800423e:	e7da      	b.n	80041f6 <xQueueGenericSendFromISR+0x7c>
			xReturn = pdPASS;
 8004240:	2001      	movs	r0, #1
 8004242:	e7d8      	b.n	80041f6 <xQueueGenericSendFromISR+0x7c>
 8004244:	2001      	movs	r0, #1
 8004246:	e7d6      	b.n	80041f6 <xQueueGenericSendFromISR+0x7c>

08004248 <xQueueGiveFromISR>:
	configASSERT( pxQueue );
 8004248:	b168      	cbz	r0, 8004266 <xQueueGiveFromISR+0x1e>
{
 800424a:	b570      	push	{r4, r5, r6, lr}
 800424c:	460c      	mov	r4, r1
 800424e:	4605      	mov	r5, r0
	configASSERT( pxQueue->uxItemSize == 0 );
 8004250:	6c03      	ldr	r3, [r0, #64]	@ 0x40
 8004252:	b18b      	cbz	r3, 8004278 <xQueueGiveFromISR+0x30>
	__asm volatile
 8004254:	f04f 0350 	mov.w	r3, #80	@ 0x50
 8004258:	f383 8811 	msr	BASEPRI, r3
 800425c:	f3bf 8f6f 	isb	sy
 8004260:	f3bf 8f4f 	dsb	sy
 8004264:	e7fe      	b.n	8004264 <xQueueGiveFromISR+0x1c>
 8004266:	f04f 0350 	mov.w	r3, #80	@ 0x50
 800426a:	f383 8811 	msr	BASEPRI, r3
 800426e:	f3bf 8f6f 	isb	sy
 8004272:	f3bf 8f4f 	dsb	sy
	configASSERT( pxQueue );
 8004276:	e7fe      	b.n	8004276 <xQueueGiveFromISR+0x2e>
	configASSERT( !( ( pxQueue->uxQueueType == queueQUEUE_IS_MUTEX ) && ( pxQueue->u.xSemaphore.xMutexHolder != NULL ) ) );
 8004278:	6803      	ldr	r3, [r0, #0]
 800427a:	b1eb      	cbz	r3, 80042b8 <xQueueGiveFromISR+0x70>
	portASSERT_IF_INTERRUPT_PRIORITY_INVALID();
 800427c:	f001 fd58 	bl	8005d30 <vPortValidateInterruptPriority>
	__asm volatile
 8004280:	f3ef 8611 	mrs	r6, BASEPRI
 8004284:	f04f 0350 	mov.w	r3, #80	@ 0x50
 8004288:	f383 8811 	msr	BASEPRI, r3
 800428c:	f3bf 8f6f 	isb	sy
 8004290:	f3bf 8f4f 	dsb	sy
		const UBaseType_t uxMessagesWaiting = pxQueue->uxMessagesWaiting;
 8004294:	6baa      	ldr	r2, [r5, #56]	@ 0x38
		if( uxMessagesWaiting < pxQueue->uxLength )
 8004296:	6beb      	ldr	r3, [r5, #60]	@ 0x3c
 8004298:	4293      	cmp	r3, r2
 800429a:	d926      	bls.n	80042ea <xQueueGiveFromISR+0xa2>
			const int8_t cTxLock = pxQueue->cTxLock;
 800429c:	f895 3045 	ldrb.w	r3, [r5, #69]	@ 0x45
 80042a0:	b25b      	sxtb	r3, r3
			pxQueue->uxMessagesWaiting = uxMessagesWaiting + ( UBaseType_t ) 1;
 80042a2:	3201      	adds	r2, #1
 80042a4:	63aa      	str	r2, [r5, #56]	@ 0x38
			if( cTxLock == queueUNLOCKED )
 80042a6:	f1b3 3fff 	cmp.w	r3, #4294967295	@ 0xffffffff
 80042aa:	d011      	beq.n	80042d0 <xQueueGiveFromISR+0x88>
				pxQueue->cTxLock = ( int8_t ) ( cTxLock + 1 );
 80042ac:	3301      	adds	r3, #1
 80042ae:	b25b      	sxtb	r3, r3
 80042b0:	f885 3045 	strb.w	r3, [r5, #69]	@ 0x45
			xReturn = pdPASS;
 80042b4:	2001      	movs	r0, #1
 80042b6:	e019      	b.n	80042ec <xQueueGiveFromISR+0xa4>
	configASSERT( !( ( pxQueue->uxQueueType == queueQUEUE_IS_MUTEX ) && ( pxQueue->u.xSemaphore.xMutexHolder != NULL ) ) );
 80042b8:	6883      	ldr	r3, [r0, #8]
 80042ba:	2b00      	cmp	r3, #0
 80042bc:	d0de      	beq.n	800427c <xQueueGiveFromISR+0x34>
	__asm volatile
 80042be:	f04f 0350 	mov.w	r3, #80	@ 0x50
 80042c2:	f383 8811 	msr	BASEPRI, r3
 80042c6:	f3bf 8f6f 	isb	sy
 80042ca:	f3bf 8f4f 	dsb	sy
 80042ce:	e7fe      	b.n	80042ce <xQueueGiveFromISR+0x86>
					if( listLIST_IS_EMPTY( &( pxQueue->xTasksWaitingToReceive ) ) == pdFALSE )
 80042d0:	6a6b      	ldr	r3, [r5, #36]	@ 0x24
 80042d2:	b90b      	cbnz	r3, 80042d8 <xQueueGiveFromISR+0x90>
			xReturn = pdPASS;
 80042d4:	2001      	movs	r0, #1
 80042d6:	e009      	b.n	80042ec <xQueueGiveFromISR+0xa4>
						if( xTaskRemoveFromEventList( &( pxQueue->xTasksWaitingToReceive ) ) != pdFALSE )
 80042d8:	f105 0024 	add.w	r0, r5, #36	@ 0x24
 80042dc:	f000 ff08 	bl	80050f0 <xTaskRemoveFromEventList>
 80042e0:	b138      	cbz	r0, 80042f2 <xQueueGiveFromISR+0xaa>
							if( pxHigherPriorityTaskWoken != NULL )
 80042e2:	b144      	cbz	r4, 80042f6 <xQueueGiveFromISR+0xae>
								*pxHigherPriorityTaskWoken = pdTRUE;
 80042e4:	2001      	movs	r0, #1
 80042e6:	6020      	str	r0, [r4, #0]
 80042e8:	e000      	b.n	80042ec <xQueueGiveFromISR+0xa4>
			xReturn = errQUEUE_FULL;
 80042ea:	2000      	movs	r0, #0
	__asm volatile
 80042ec:	f386 8811 	msr	BASEPRI, r6
}
 80042f0:	bd70      	pop	{r4, r5, r6, pc}
			xReturn = pdPASS;
 80042f2:	2001      	movs	r0, #1
 80042f4:	e7fa      	b.n	80042ec <xQueueGiveFromISR+0xa4>
 80042f6:	2001      	movs	r0, #1
 80042f8:	e7f8      	b.n	80042ec <xQueueGiveFromISR+0xa4>

080042fa <xQueueReceive>:
{
 80042fa:	b5f0      	push	{r4, r5, r6, r7, lr}
 80042fc:	b085      	sub	sp, #20
 80042fe:	9201      	str	r2, [sp, #4]
	configASSERT( ( pxQueue ) );
 8004300:	b190      	cbz	r0, 8004328 <xQueueReceive+0x2e>
 8004302:	460f      	mov	r7, r1
 8004304:	4604      	mov	r4, r0
	configASSERT( !( ( ( pvBuffer ) == NULL ) && ( ( pxQueue )->uxItemSize != ( UBaseType_t ) 0U ) ) );
 8004306:	b1c1      	cbz	r1, 800433a <xQueueReceive+0x40>
		configASSERT( !( ( xTaskGetSchedulerState() == taskSCHEDULER_SUSPENDED ) && ( xTicksToWait != 0 ) ) );
 8004308:	f001 f856 	bl	80053b8 <xTaskGetSchedulerState>
 800430c:	4606      	mov	r6, r0
 800430e:	bb00      	cbnz	r0, 8004352 <xQueueReceive+0x58>
 8004310:	9b01      	ldr	r3, [sp, #4]
 8004312:	2b00      	cmp	r3, #0
 8004314:	d05e      	beq.n	80043d4 <xQueueReceive+0xda>
	__asm volatile
 8004316:	f04f 0350 	mov.w	r3, #80	@ 0x50
 800431a:	f383 8811 	msr	BASEPRI, r3
 800431e:	f3bf 8f6f 	isb	sy
 8004322:	f3bf 8f4f 	dsb	sy
 8004326:	e7fe      	b.n	8004326 <xQueueReceive+0x2c>
 8004328:	f04f 0350 	mov.w	r3, #80	@ 0x50
 800432c:	f383 8811 	msr	BASEPRI, r3
 8004330:	f3bf 8f6f 	isb	sy
 8004334:	f3bf 8f4f 	dsb	sy
	configASSERT( ( pxQueue ) );
 8004338:	e7fe      	b.n	8004338 <xQueueReceive+0x3e>
	configASSERT( !( ( ( pvBuffer ) == NULL ) && ( ( pxQueue )->uxItemSize != ( UBaseType_t ) 0U ) ) );
 800433a:	6c03      	ldr	r3, [r0, #64]	@ 0x40
 800433c:	2b00      	cmp	r3, #0
 800433e:	d0e3      	beq.n	8004308 <xQueueReceive+0xe>
 8004340:	f04f 0350 	mov.w	r3, #80	@ 0x50
 8004344:	f383 8811 	msr	BASEPRI, r3
 8004348:	f3bf 8f6f 	isb	sy
 800434c:	f3bf 8f4f 	dsb	sy
 8004350:	e7fe      	b.n	8004350 <xQueueReceive+0x56>
 8004352:	2600      	movs	r6, #0
 8004354:	e03e      	b.n	80043d4 <xQueueReceive+0xda>
				prvCopyDataFromQueue( pxQueue, pvBuffer );
 8004356:	4639      	mov	r1, r7
 8004358:	4620      	mov	r0, r4
 800435a:	f7ff fcb9 	bl	8003cd0 <prvCopyDataFromQueue>
				pxQueue->uxMessagesWaiting = uxMessagesWaiting - ( UBaseType_t ) 1;
 800435e:	3d01      	subs	r5, #1
 8004360:	63a5      	str	r5, [r4, #56]	@ 0x38
				if( listLIST_IS_EMPTY( &( pxQueue->xTasksWaitingToSend ) ) == pdFALSE )
 8004362:	6923      	ldr	r3, [r4, #16]
 8004364:	b923      	cbnz	r3, 8004370 <xQueueReceive+0x76>
				taskEXIT_CRITICAL();
 8004366:	f001 fbdf 	bl	8005b28 <vPortExitCritical>
				return pdPASS;
 800436a:	2001      	movs	r0, #1
}
 800436c:	b005      	add	sp, #20
 800436e:	bdf0      	pop	{r4, r5, r6, r7, pc}
					if( xTaskRemoveFromEventList( &( pxQueue->xTasksWaitingToSend ) ) != pdFALSE )
 8004370:	f104 0010 	add.w	r0, r4, #16
 8004374:	f000 febc 	bl	80050f0 <xTaskRemoveFromEventList>
 8004378:	2800      	cmp	r0, #0
 800437a:	d0f4      	beq.n	8004366 <xQueueReceive+0x6c>
						queueYIELD_IF_USING_PREEMPTION();
 800437c:	f04f 23e0 	mov.w	r3, #3758153728	@ 0xe000e000
 8004380:	f04f 5280 	mov.w	r2, #268435456	@ 0x10000000
 8004384:	f8c3 2d04 	str.w	r2, [r3, #3332]	@ 0xd04
 8004388:	f3bf 8f4f 	dsb	sy
 800438c:	f3bf 8f6f 	isb	sy
 8004390:	e7e9      	b.n	8004366 <xQueueReceive+0x6c>
					taskEXIT_CRITICAL();
 8004392:	f001 fbc9 	bl	8005b28 <vPortExitCritical>
					return errQUEUE_EMPTY;
 8004396:	2000      	movs	r0, #0
 8004398:	e7e8      	b.n	800436c <xQueueReceive+0x72>
					vTaskInternalSetTimeOutState( &xTimeOut );
 800439a:	a802      	add	r0, sp, #8
 800439c:	f000 feee 	bl	800517c <vTaskInternalSetTimeOutState>
					xEntryTimeSet = pdTRUE;
 80043a0:	2601      	movs	r6, #1
 80043a2:	e021      	b.n	80043e8 <xQueueReceive+0xee>
		prvLockQueue( pxQueue );
 80043a4:	2300      	movs	r3, #0
 80043a6:	f884 3044 	strb.w	r3, [r4, #68]	@ 0x44
 80043aa:	e029      	b.n	8004400 <xQueueReceive+0x106>
 80043ac:	2300      	movs	r3, #0
 80043ae:	f884 3045 	strb.w	r3, [r4, #69]	@ 0x45
 80043b2:	e02b      	b.n	800440c <xQueueReceive+0x112>
				prvUnlockQueue( pxQueue );
 80043b4:	4620      	mov	r0, r4
 80043b6:	f7ff fc9d 	bl	8003cf4 <prvUnlockQueue>
				( void ) xTaskResumeAll();
 80043ba:	f000 fd5d 	bl	8004e78 <xTaskResumeAll>
 80043be:	e009      	b.n	80043d4 <xQueueReceive+0xda>
			prvUnlockQueue( pxQueue );
 80043c0:	4620      	mov	r0, r4
 80043c2:	f7ff fc97 	bl	8003cf4 <prvUnlockQueue>
			( void ) xTaskResumeAll();
 80043c6:	f000 fd57 	bl	8004e78 <xTaskResumeAll>
			if( prvIsQueueEmpty( pxQueue ) != pdFALSE )
 80043ca:	4620      	mov	r0, r4
 80043cc:	f7ff fc38 	bl	8003c40 <prvIsQueueEmpty>
 80043d0:	2800      	cmp	r0, #0
 80043d2:	d13f      	bne.n	8004454 <xQueueReceive+0x15a>
		taskENTER_CRITICAL();
 80043d4:	f001 fb86 	bl	8005ae4 <vPortEnterCritical>
			const UBaseType_t uxMessagesWaiting = pxQueue->uxMessagesWaiting;
 80043d8:	6ba5      	ldr	r5, [r4, #56]	@ 0x38
			if( uxMessagesWaiting > ( UBaseType_t ) 0 )
 80043da:	2d00      	cmp	r5, #0
 80043dc:	d1bb      	bne.n	8004356 <xQueueReceive+0x5c>
				if( xTicksToWait == ( TickType_t ) 0 )
 80043de:	9b01      	ldr	r3, [sp, #4]
 80043e0:	2b00      	cmp	r3, #0
 80043e2:	d0d6      	beq.n	8004392 <xQueueReceive+0x98>
				else if( xEntryTimeSet == pdFALSE )
 80043e4:	2e00      	cmp	r6, #0
 80043e6:	d0d8      	beq.n	800439a <xQueueReceive+0xa0>
		taskEXIT_CRITICAL();
 80043e8:	f001 fb9e 	bl	8005b28 <vPortExitCritical>
		vTaskSuspendAll();
 80043ec:	f000 fc9c 	bl	8004d28 <vTaskSuspendAll>
		prvLockQueue( pxQueue );
 80043f0:	f001 fb78 	bl	8005ae4 <vPortEnterCritical>
 80043f4:	f894 3044 	ldrb.w	r3, [r4, #68]	@ 0x44
 80043f8:	b25b      	sxtb	r3, r3
 80043fa:	f1b3 3fff 	cmp.w	r3, #4294967295	@ 0xffffffff
 80043fe:	d0d1      	beq.n	80043a4 <xQueueReceive+0xaa>
 8004400:	f894 3045 	ldrb.w	r3, [r4, #69]	@ 0x45
 8004404:	b25b      	sxtb	r3, r3
 8004406:	f1b3 3fff 	cmp.w	r3, #4294967295	@ 0xffffffff
 800440a:	d0cf      	beq.n	80043ac <xQueueReceive+0xb2>
 800440c:	f001 fb8c 	bl	8005b28 <vPortExitCritical>
		if( xTaskCheckForTimeOut( &xTimeOut, &xTicksToWait ) == pdFALSE )
 8004410:	a901      	add	r1, sp, #4
 8004412:	a802      	add	r0, sp, #8
 8004414:	f000 febe 	bl	8005194 <xTaskCheckForTimeOut>
 8004418:	2800      	cmp	r0, #0
 800441a:	d1d1      	bne.n	80043c0 <xQueueReceive+0xc6>
			if( prvIsQueueEmpty( pxQueue ) != pdFALSE )
 800441c:	4620      	mov	r0, r4
 800441e:	f7ff fc0f 	bl	8003c40 <prvIsQueueEmpty>
 8004422:	2800      	cmp	r0, #0
 8004424:	d0c6      	beq.n	80043b4 <xQueueReceive+0xba>
				vTaskPlaceOnEventList( &( pxQueue->xTasksWaitingToReceive ), xTicksToWait );
 8004426:	9901      	ldr	r1, [sp, #4]
 8004428:	f104 0024 	add.w	r0, r4, #36	@ 0x24
 800442c:	f000 fe2c 	bl	8005088 <vTaskPlaceOnEventList>
				prvUnlockQueue( pxQueue );
 8004430:	4620      	mov	r0, r4
 8004432:	f7ff fc5f 	bl	8003cf4 <prvUnlockQueue>
				if( xTaskResumeAll() == pdFALSE )
 8004436:	f000 fd1f 	bl	8004e78 <xTaskResumeAll>
 800443a:	2800      	cmp	r0, #0
 800443c:	d1ca      	bne.n	80043d4 <xQueueReceive+0xda>
					portYIELD_WITHIN_API();
 800443e:	f04f 23e0 	mov.w	r3, #3758153728	@ 0xe000e000
 8004442:	f04f 5280 	mov.w	r2, #268435456	@ 0x10000000
 8004446:	f8c3 2d04 	str.w	r2, [r3, #3332]	@ 0xd04
 800444a:	f3bf 8f4f 	dsb	sy
 800444e:	f3bf 8f6f 	isb	sy
 8004452:	e7bf      	b.n	80043d4 <xQueueReceive+0xda>
				return errQUEUE_EMPTY;
 8004454:	2000      	movs	r0, #0
 8004456:	e789      	b.n	800436c <xQueueReceive+0x72>

08004458 <xQueueSemaphoreTake>:
{
 8004458:	b570      	push	{r4, r5, r6, lr}
 800445a:	b084      	sub	sp, #16
 800445c:	9101      	str	r1, [sp, #4]
	configASSERT( ( pxQueue ) );
 800445e:	b158      	cbz	r0, 8004478 <xQueueSemaphoreTake+0x20>
 8004460:	4604      	mov	r4, r0
	configASSERT( pxQueue->uxItemSize == 0 );
 8004462:	6c03      	ldr	r3, [r0, #64]	@ 0x40
 8004464:	b18b      	cbz	r3, 800448a <xQueueSemaphoreTake+0x32>
 8004466:	f04f 0350 	mov.w	r3, #80	@ 0x50
 800446a:	f383 8811 	msr	BASEPRI, r3
 800446e:	f3bf 8f6f 	isb	sy
 8004472:	f3bf 8f4f 	dsb	sy
 8004476:	e7fe      	b.n	8004476 <xQueueSemaphoreTake+0x1e>
 8004478:	f04f 0350 	mov.w	r3, #80	@ 0x50
 800447c:	f383 8811 	msr	BASEPRI, r3
 8004480:	f3bf 8f6f 	isb	sy
 8004484:	f3bf 8f4f 	dsb	sy
	configASSERT( ( pxQueue ) );
 8004488:	e7fe      	b.n	8004488 <xQueueSemaphoreTake+0x30>
		configASSERT( !( ( xTaskGetSchedulerState() == taskSCHEDULER_SUSPENDED ) && ( xTicksToWait != 0 ) ) );
 800448a:	f000 ff95 	bl	80053b8 <xTaskGetSchedulerState>
 800448e:	4605      	mov	r5, r0
 8004490:	b950      	cbnz	r0, 80044a8 <xQueueSemaphoreTake+0x50>
 8004492:	9b01      	ldr	r3, [sp, #4]
 8004494:	b15b      	cbz	r3, 80044ae <xQueueSemaphoreTake+0x56>
 8004496:	f04f 0350 	mov.w	r3, #80	@ 0x50
 800449a:	f383 8811 	msr	BASEPRI, r3
 800449e:	f3bf 8f6f 	isb	sy
 80044a2:	f3bf 8f4f 	dsb	sy
 80044a6:	e7fe      	b.n	80044a6 <xQueueSemaphoreTake+0x4e>
 80044a8:	2600      	movs	r6, #0
 80044aa:	4635      	mov	r5, r6
 80044ac:	e055      	b.n	800455a <xQueueSemaphoreTake+0x102>
 80044ae:	4606      	mov	r6, r0
 80044b0:	e053      	b.n	800455a <xQueueSemaphoreTake+0x102>
				pxQueue->uxMessagesWaiting = uxSemaphoreCount - ( UBaseType_t ) 1;
 80044b2:	3b01      	subs	r3, #1
 80044b4:	63a3      	str	r3, [r4, #56]	@ 0x38
					if( pxQueue->uxQueueType == queueQUEUE_IS_MUTEX )
 80044b6:	6823      	ldr	r3, [r4, #0]
 80044b8:	b13b      	cbz	r3, 80044ca <xQueueSemaphoreTake+0x72>
				if( listLIST_IS_EMPTY( &( pxQueue->xTasksWaitingToSend ) ) == pdFALSE )
 80044ba:	6923      	ldr	r3, [r4, #16]
 80044bc:	b94b      	cbnz	r3, 80044d2 <xQueueSemaphoreTake+0x7a>
				taskEXIT_CRITICAL();
 80044be:	f001 fb33 	bl	8005b28 <vPortExitCritical>
				return pdPASS;
 80044c2:	2601      	movs	r6, #1
}
 80044c4:	4630      	mov	r0, r6
 80044c6:	b004      	add	sp, #16
 80044c8:	bd70      	pop	{r4, r5, r6, pc}
						pxQueue->u.xSemaphore.xMutexHolder = pvTaskIncrementMutexHeldCount();
 80044ca:	f001 f869 	bl	80055a0 <pvTaskIncrementMutexHeldCount>
 80044ce:	60a0      	str	r0, [r4, #8]
 80044d0:	e7f3      	b.n	80044ba <xQueueSemaphoreTake+0x62>
					if( xTaskRemoveFromEventList( &( pxQueue->xTasksWaitingToSend ) ) != pdFALSE )
 80044d2:	f104 0010 	add.w	r0, r4, #16
 80044d6:	f000 fe0b 	bl	80050f0 <xTaskRemoveFromEventList>
 80044da:	2800      	cmp	r0, #0
 80044dc:	d0ef      	beq.n	80044be <xQueueSemaphoreTake+0x66>
						queueYIELD_IF_USING_PREEMPTION();
 80044de:	f04f 23e0 	mov.w	r3, #3758153728	@ 0xe000e000
 80044e2:	f04f 5280 	mov.w	r2, #268435456	@ 0x10000000
 80044e6:	f8c3 2d04 	str.w	r2, [r3, #3332]	@ 0xd04
 80044ea:	f3bf 8f4f 	dsb	sy
 80044ee:	f3bf 8f6f 	isb	sy
 80044f2:	e7e4      	b.n	80044be <xQueueSemaphoreTake+0x66>
						configASSERT( xInheritanceOccurred == pdFALSE );
 80044f4:	b146      	cbz	r6, 8004508 <xQueueSemaphoreTake+0xb0>
 80044f6:	f04f 0350 	mov.w	r3, #80	@ 0x50
 80044fa:	f383 8811 	msr	BASEPRI, r3
 80044fe:	f3bf 8f6f 	isb	sy
 8004502:	f3bf 8f4f 	dsb	sy
 8004506:	e7fe      	b.n	8004506 <xQueueSemaphoreTake+0xae>
					taskEXIT_CRITICAL();
 8004508:	f001 fb0e 	bl	8005b28 <vPortExitCritical>
					return errQUEUE_EMPTY;
 800450c:	e7da      	b.n	80044c4 <xQueueSemaphoreTake+0x6c>
					vTaskInternalSetTimeOutState( &xTimeOut );
 800450e:	a802      	add	r0, sp, #8
 8004510:	f000 fe34 	bl	800517c <vTaskInternalSetTimeOutState>
					xEntryTimeSet = pdTRUE;
 8004514:	2501      	movs	r5, #1
 8004516:	e02a      	b.n	800456e <xQueueSemaphoreTake+0x116>
		prvLockQueue( pxQueue );
 8004518:	2300      	movs	r3, #0
 800451a:	f884 3044 	strb.w	r3, [r4, #68]	@ 0x44
 800451e:	e032      	b.n	8004586 <xQueueSemaphoreTake+0x12e>
 8004520:	2300      	movs	r3, #0
 8004522:	f884 3045 	strb.w	r3, [r4, #69]	@ 0x45
 8004526:	e034      	b.n	8004592 <xQueueSemaphoreTake+0x13a>
						taskENTER_CRITICAL();
 8004528:	f001 fadc 	bl	8005ae4 <vPortEnterCritical>
							xInheritanceOccurred = xTaskPriorityInherit( pxQueue->u.xSemaphore.xMutexHolder );
 800452c:	68a0      	ldr	r0, [r4, #8]
 800452e:	f000 ff53 	bl	80053d8 <xTaskPriorityInherit>
 8004532:	4606      	mov	r6, r0
						taskEXIT_CRITICAL();
 8004534:	f001 faf8 	bl	8005b28 <vPortExitCritical>
 8004538:	e03b      	b.n	80045b2 <xQueueSemaphoreTake+0x15a>
				prvUnlockQueue( pxQueue );
 800453a:	4620      	mov	r0, r4
 800453c:	f7ff fbda 	bl	8003cf4 <prvUnlockQueue>
				( void ) xTaskResumeAll();
 8004540:	f000 fc9a 	bl	8004e78 <xTaskResumeAll>
 8004544:	e009      	b.n	800455a <xQueueSemaphoreTake+0x102>
			prvUnlockQueue( pxQueue );
 8004546:	4620      	mov	r0, r4
 8004548:	f7ff fbd4 	bl	8003cf4 <prvUnlockQueue>
			( void ) xTaskResumeAll();
 800454c:	f000 fc94 	bl	8004e78 <xTaskResumeAll>
			if( prvIsQueueEmpty( pxQueue ) != pdFALSE )
 8004550:	4620      	mov	r0, r4
 8004552:	f7ff fb75 	bl	8003c40 <prvIsQueueEmpty>
 8004556:	2800      	cmp	r0, #0
 8004558:	d142      	bne.n	80045e0 <xQueueSemaphoreTake+0x188>
		taskENTER_CRITICAL();
 800455a:	f001 fac3 	bl	8005ae4 <vPortEnterCritical>
			const UBaseType_t uxSemaphoreCount = pxQueue->uxMessagesWaiting;
 800455e:	6ba3      	ldr	r3, [r4, #56]	@ 0x38
			if( uxSemaphoreCount > ( UBaseType_t ) 0 )
 8004560:	2b00      	cmp	r3, #0
 8004562:	d1a6      	bne.n	80044b2 <xQueueSemaphoreTake+0x5a>
				if( xTicksToWait == ( TickType_t ) 0 )
 8004564:	9b01      	ldr	r3, [sp, #4]
 8004566:	2b00      	cmp	r3, #0
 8004568:	d0c4      	beq.n	80044f4 <xQueueSemaphoreTake+0x9c>
				else if( xEntryTimeSet == pdFALSE )
 800456a:	2d00      	cmp	r5, #0
 800456c:	d0cf      	beq.n	800450e <xQueueSemaphoreTake+0xb6>
		taskEXIT_CRITICAL();
 800456e:	f001 fadb 	bl	8005b28 <vPortExitCritical>
		vTaskSuspendAll();
 8004572:	f000 fbd9 	bl	8004d28 <vTaskSuspendAll>
		prvLockQueue( pxQueue );
 8004576:	f001 fab5 	bl	8005ae4 <vPortEnterCritical>
 800457a:	f894 3044 	ldrb.w	r3, [r4, #68]	@ 0x44
 800457e:	b25b      	sxtb	r3, r3
 8004580:	f1b3 3fff 	cmp.w	r3, #4294967295	@ 0xffffffff
 8004584:	d0c8      	beq.n	8004518 <xQueueSemaphoreTake+0xc0>
 8004586:	f894 3045 	ldrb.w	r3, [r4, #69]	@ 0x45
 800458a:	b25b      	sxtb	r3, r3
 800458c:	f1b3 3fff 	cmp.w	r3, #4294967295	@ 0xffffffff
 8004590:	d0c6      	beq.n	8004520 <xQueueSemaphoreTake+0xc8>
 8004592:	f001 fac9 	bl	8005b28 <vPortExitCritical>
		if( xTaskCheckForTimeOut( &xTimeOut, &xTicksToWait ) == pdFALSE )
 8004596:	a901      	add	r1, sp, #4
 8004598:	a802      	add	r0, sp, #8
 800459a:	f000 fdfb 	bl	8005194 <xTaskCheckForTimeOut>
 800459e:	2800      	cmp	r0, #0
 80045a0:	d1d1      	bne.n	8004546 <xQueueSemaphoreTake+0xee>
			if( prvIsQueueEmpty( pxQueue ) != pdFALSE )
 80045a2:	4620      	mov	r0, r4
 80045a4:	f7ff fb4c 	bl	8003c40 <prvIsQueueEmpty>
 80045a8:	2800      	cmp	r0, #0
 80045aa:	d0c6      	beq.n	800453a <xQueueSemaphoreTake+0xe2>
					if( pxQueue->uxQueueType == queueQUEUE_IS_MUTEX )
 80045ac:	6823      	ldr	r3, [r4, #0]
 80045ae:	2b00      	cmp	r3, #0
 80045b0:	d0ba      	beq.n	8004528 <xQueueSemaphoreTake+0xd0>
				vTaskPlaceOnEventList( &( pxQueue->xTasksWaitingToReceive ), xTicksToWait );
 80045b2:	9901      	ldr	r1, [sp, #4]
 80045b4:	f104 0024 	add.w	r0, r4, #36	@ 0x24
 80045b8:	f000 fd66 	bl	8005088 <vTaskPlaceOnEventList>
				prvUnlockQueue( pxQueue );
 80045bc:	4620      	mov	r0, r4
 80045be:	f7ff fb99 	bl	8003cf4 <prvUnlockQueue>
				if( xTaskResumeAll() == pdFALSE )
 80045c2:	f000 fc59 	bl	8004e78 <xTaskResumeAll>
 80045c6:	2800      	cmp	r0, #0
 80045c8:	d1c7      	bne.n	800455a <xQueueSemaphoreTake+0x102>
					portYIELD_WITHIN_API();
 80045ca:	f04f 23e0 	mov.w	r3, #3758153728	@ 0xe000e000
 80045ce:	f04f 5280 	mov.w	r2, #268435456	@ 0x10000000
 80045d2:	f8c3 2d04 	str.w	r2, [r3, #3332]	@ 0xd04
 80045d6:	f3bf 8f4f 	dsb	sy
 80045da:	f3bf 8f6f 	isb	sy
 80045de:	e7bc      	b.n	800455a <xQueueSemaphoreTake+0x102>
					if( xInheritanceOccurred != pdFALSE )
 80045e0:	b90e      	cbnz	r6, 80045e6 <xQueueSemaphoreTake+0x18e>
				return errQUEUE_EMPTY;
 80045e2:	2600      	movs	r6, #0
 80045e4:	e76e      	b.n	80044c4 <xQueueSemaphoreTake+0x6c>
						taskENTER_CRITICAL();
 80045e6:	f001 fa7d 	bl	8005ae4 <vPortEnterCritical>
							uxHighestWaitingPriority = prvGetDisinheritPriorityAfterTimeout( pxQueue );
 80045ea:	4620      	mov	r0, r4
 80045ec:	f7ff fb11 	bl	8003c12 <prvGetDisinheritPriorityAfterTimeout>
 80045f0:	4601      	mov	r1, r0
							vTaskPriorityDisinheritAfterTimeout( pxQueue->u.xSemaphore.xMutexHolder, uxHighestWaitingPriority );
 80045f2:	68a0      	ldr	r0, [r4, #8]
 80045f4:	f000 ff84 	bl	8005500 <vTaskPriorityDisinheritAfterTimeout>
						taskEXIT_CRITICAL();
 80045f8:	f001 fa96 	bl	8005b28 <vPortExitCritical>
 80045fc:	e7f1      	b.n	80045e2 <xQueueSemaphoreTake+0x18a>

080045fe <xQueueTakeMutexRecursive>:
		configASSERT( pxMutex );
 80045fe:	b180      	cbz	r0, 8004622 <xQueueTakeMutexRecursive+0x24>
	{
 8004600:	b570      	push	{r4, r5, r6, lr}
 8004602:	460c      	mov	r4, r1
 8004604:	4605      	mov	r5, r0
		if( pxMutex->u.xSemaphore.xMutexHolder == xTaskGetCurrentTaskHandle() )
 8004606:	6886      	ldr	r6, [r0, #8]
 8004608:	f000 fed0 	bl	80053ac <xTaskGetCurrentTaskHandle>
 800460c:	4286      	cmp	r6, r0
 800460e:	d011      	beq.n	8004634 <xQueueTakeMutexRecursive+0x36>
			xReturn = xQueueSemaphoreTake( pxMutex, xTicksToWait );
 8004610:	4621      	mov	r1, r4
 8004612:	4628      	mov	r0, r5
 8004614:	f7ff ff20 	bl	8004458 <xQueueSemaphoreTake>
			if( xReturn != pdFAIL )
 8004618:	b180      	cbz	r0, 800463c <xQueueTakeMutexRecursive+0x3e>
				( pxMutex->u.xSemaphore.uxRecursiveCallCount )++;
 800461a:	68eb      	ldr	r3, [r5, #12]
 800461c:	3301      	adds	r3, #1
 800461e:	60eb      	str	r3, [r5, #12]
		return xReturn;
 8004620:	e00c      	b.n	800463c <xQueueTakeMutexRecursive+0x3e>
 8004622:	f04f 0350 	mov.w	r3, #80	@ 0x50
 8004626:	f383 8811 	msr	BASEPRI, r3
 800462a:	f3bf 8f6f 	isb	sy
 800462e:	f3bf 8f4f 	dsb	sy
		configASSERT( pxMutex );
 8004632:	e7fe      	b.n	8004632 <xQueueTakeMutexRecursive+0x34>
			( pxMutex->u.xSemaphore.uxRecursiveCallCount )++;
 8004634:	68eb      	ldr	r3, [r5, #12]
 8004636:	3301      	adds	r3, #1
 8004638:	60eb      	str	r3, [r5, #12]
			xReturn = pdPASS;
 800463a:	2001      	movs	r0, #1
	}
 800463c:	bd70      	pop	{r4, r5, r6, pc}

0800463e <xQueueReceiveFromISR>:
{
 800463e:	e92d 43f8 	stmdb	sp!, {r3, r4, r5, r6, r7, r8, r9, lr}
	configASSERT( pxQueue );
 8004642:	b1b0      	cbz	r0, 8004672 <xQueueReceiveFromISR+0x34>
 8004644:	460d      	mov	r5, r1
 8004646:	4690      	mov	r8, r2
 8004648:	4604      	mov	r4, r0
	configASSERT( !( ( pvBuffer == NULL ) && ( pxQueue->uxItemSize != ( UBaseType_t ) 0U ) ) );
 800464a:	b1d9      	cbz	r1, 8004684 <xQueueReceiveFromISR+0x46>
	portASSERT_IF_INTERRUPT_PRIORITY_INVALID();
 800464c:	f001 fb70 	bl	8005d30 <vPortValidateInterruptPriority>
	__asm volatile
 8004650:	f3ef 8711 	mrs	r7, BASEPRI
 8004654:	f04f 0350 	mov.w	r3, #80	@ 0x50
 8004658:	f383 8811 	msr	BASEPRI, r3
 800465c:	f3bf 8f6f 	isb	sy
 8004660:	f3bf 8f4f 	dsb	sy
		const UBaseType_t uxMessagesWaiting = pxQueue->uxMessagesWaiting;
 8004664:	6ba6      	ldr	r6, [r4, #56]	@ 0x38
		if( uxMessagesWaiting > ( UBaseType_t ) 0 )
 8004666:	b9ce      	cbnz	r6, 800469c <xQueueReceiveFromISR+0x5e>
			xReturn = pdFAIL;
 8004668:	2000      	movs	r0, #0
	__asm volatile
 800466a:	f387 8811 	msr	BASEPRI, r7
}
 800466e:	e8bd 83f8 	ldmia.w	sp!, {r3, r4, r5, r6, r7, r8, r9, pc}
	__asm volatile
 8004672:	f04f 0350 	mov.w	r3, #80	@ 0x50
 8004676:	f383 8811 	msr	BASEPRI, r3
 800467a:	f3bf 8f6f 	isb	sy
 800467e:	f3bf 8f4f 	dsb	sy
	configASSERT( pxQueue );
 8004682:	e7fe      	b.n	8004682 <xQueueReceiveFromISR+0x44>
	configASSERT( !( ( pvBuffer == NULL ) && ( pxQueue->uxItemSize != ( UBaseType_t ) 0U ) ) );
 8004684:	6c03      	ldr	r3, [r0, #64]	@ 0x40
 8004686:	2b00      	cmp	r3, #0
 8004688:	d0e0      	beq.n	800464c <xQueueReceiveFromISR+0xe>
 800468a:	f04f 0350 	mov.w	r3, #80	@ 0x50
 800468e:	f383 8811 	msr	BASEPRI, r3
 8004692:	f3bf 8f6f 	isb	sy
 8004696:	f3bf 8f4f 	dsb	sy
 800469a:	e7fe      	b.n	800469a <xQueueReceiveFromISR+0x5c>
			const int8_t cRxLock = pxQueue->cRxLock;
 800469c:	f894 9044 	ldrb.w	r9, [r4, #68]	@ 0x44
 80046a0:	fa4f f989 	sxtb.w	r9, r9
			prvCopyDataFromQueue( pxQueue, pvBuffer );
 80046a4:	4629      	mov	r1, r5
 80046a6:	4620      	mov	r0, r4
 80046a8:	f7ff fb12 	bl	8003cd0 <prvCopyDataFromQueue>
			pxQueue->uxMessagesWaiting = uxMessagesWaiting - ( UBaseType_t ) 1;
 80046ac:	1e73      	subs	r3, r6, #1
 80046ae:	63a3      	str	r3, [r4, #56]	@ 0x38
			if( cRxLock == queueUNLOCKED )
 80046b0:	f1b9 3fff 	cmp.w	r9, #4294967295	@ 0xffffffff
 80046b4:	d006      	beq.n	80046c4 <xQueueReceiveFromISR+0x86>
				pxQueue->cRxLock = ( int8_t ) ( cRxLock + 1 );
 80046b6:	f109 0301 	add.w	r3, r9, #1
 80046ba:	b25b      	sxtb	r3, r3
 80046bc:	f884 3044 	strb.w	r3, [r4, #68]	@ 0x44
			xReturn = pdPASS;
 80046c0:	2001      	movs	r0, #1
 80046c2:	e7d2      	b.n	800466a <xQueueReceiveFromISR+0x2c>
				if( listLIST_IS_EMPTY( &( pxQueue->xTasksWaitingToSend ) ) == pdFALSE )
 80046c4:	6923      	ldr	r3, [r4, #16]
 80046c6:	b90b      	cbnz	r3, 80046cc <xQueueReceiveFromISR+0x8e>
			xReturn = pdPASS;
 80046c8:	2001      	movs	r0, #1
 80046ca:	e7ce      	b.n	800466a <xQueueReceiveFromISR+0x2c>
					if( xTaskRemoveFromEventList( &( pxQueue->xTasksWaitingToSend ) ) != pdFALSE )
 80046cc:	f104 0010 	add.w	r0, r4, #16
 80046d0:	f000 fd0e 	bl	80050f0 <xTaskRemoveFromEventList>
 80046d4:	b130      	cbz	r0, 80046e4 <xQueueReceiveFromISR+0xa6>
						if( pxHigherPriorityTaskWoken != NULL )
 80046d6:	f1b8 0f00 	cmp.w	r8, #0
 80046da:	d005      	beq.n	80046e8 <xQueueReceiveFromISR+0xaa>
							*pxHigherPriorityTaskWoken = pdTRUE;
 80046dc:	2001      	movs	r0, #1
 80046de:	f8c8 0000 	str.w	r0, [r8]
 80046e2:	e7c2      	b.n	800466a <xQueueReceiveFromISR+0x2c>
			xReturn = pdPASS;
 80046e4:	2001      	movs	r0, #1
 80046e6:	e7c0      	b.n	800466a <xQueueReceiveFromISR+0x2c>
 80046e8:	2001      	movs	r0, #1
 80046ea:	e7be      	b.n	800466a <xQueueReceiveFromISR+0x2c>

080046ec <vQueueAddToRegistry>:
	{
	UBaseType_t ux;

		/* See if there is an empty space in the registry.  A NULL name denotes
		a free slot. */
		for( ux = ( UBaseType_t ) 0U; ux < ( UBaseType_t ) configQUEUE_REGISTRY_SIZE; ux++ )
 80046ec:	2300      	movs	r3, #0
 80046ee:	2b07      	cmp	r3, #7
 80046f0:	d80c      	bhi.n	800470c <vQueueAddToRegistry+0x20>
		{
			if( xQueueRegistry[ ux ].pcQueueName == NULL )
 80046f2:	4a07      	ldr	r2, [pc, #28]	@ (8004710 <vQueueAddToRegistry+0x24>)
 80046f4:	f852 2033 	ldr.w	r2, [r2, r3, lsl #3]
 80046f8:	b10a      	cbz	r2, 80046fe <vQueueAddToRegistry+0x12>
		for( ux = ( UBaseType_t ) 0U; ux < ( UBaseType_t ) configQUEUE_REGISTRY_SIZE; ux++ )
 80046fa:	3301      	adds	r3, #1
 80046fc:	e7f7      	b.n	80046ee <vQueueAddToRegistry+0x2>
			{
				/* Store the information on this queue. */
				xQueueRegistry[ ux ].pcQueueName = pcQueueName;
 80046fe:	4a04      	ldr	r2, [pc, #16]	@ (8004710 <vQueueAddToRegistry+0x24>)
 8004700:	f842 1033 	str.w	r1, [r2, r3, lsl #3]
				xQueueRegistry[ ux ].xHandle = xQueue;
 8004704:	eb02 02c3 	add.w	r2, r2, r3, lsl #3
 8004708:	6050      	str	r0, [r2, #4]

				traceQUEUE_REGISTRY_ADD( xQueue, pcQueueName );
				break;
 800470a:	4770      	bx	lr
			else
			{
				mtCOVERAGE_TEST_MARKER();
			}
		}
	}
 800470c:	4770      	bx	lr
 800470e:	bf00      	nop
 8004710:	20000e0c 	.word	0x20000e0c

08004714 <vQueueUnregisterQueue>:
	{
	UBaseType_t ux;

		/* See if the handle of the queue being unregistered in actually in the
		registry. */
		for( ux = ( UBaseType_t ) 0U; ux < ( UBaseType_t ) configQUEUE_REGISTRY_SIZE; ux++ )
 8004714:	2300      	movs	r3, #0
 8004716:	2b07      	cmp	r3, #7
 8004718:	d80f      	bhi.n	800473a <vQueueUnregisterQueue+0x26>
		{
			if( xQueueRegistry[ ux ].xHandle == xQueue )
 800471a:	4a08      	ldr	r2, [pc, #32]	@ (800473c <vQueueUnregisterQueue+0x28>)
 800471c:	eb02 02c3 	add.w	r2, r2, r3, lsl #3
 8004720:	6852      	ldr	r2, [r2, #4]
 8004722:	4282      	cmp	r2, r0
 8004724:	d001      	beq.n	800472a <vQueueUnregisterQueue+0x16>
		for( ux = ( UBaseType_t ) 0U; ux < ( UBaseType_t ) configQUEUE_REGISTRY_SIZE; ux++ )
 8004726:	3301      	adds	r3, #1
 8004728:	e7f5      	b.n	8004716 <vQueueUnregisterQueue+0x2>
			{
				/* Set the name to NULL to show that this slot if free again. */
				xQueueRegistry[ ux ].pcQueueName = NULL;
 800472a:	4a04      	ldr	r2, [pc, #16]	@ (800473c <vQueueUnregisterQueue+0x28>)
 800472c:	2100      	movs	r1, #0
 800472e:	f842 1033 	str.w	r1, [r2, r3, lsl #3]

				/* Set the handle to NULL to ensure the same queue handle cannot
				appear in the registry twice if it is added, removed, then
				added again. */
				xQueueRegistry[ ux ].xHandle = ( QueueHandle_t ) 0;
 8004732:	eb02 02c3 	add.w	r2, r2, r3, lsl #3
 8004736:	6051      	str	r1, [r2, #4]
				break;
 8004738:	4770      	bx	lr
			{
				mtCOVERAGE_TEST_MARKER();
			}
		}

	} /*lint !e818 xQueue could not be pointer to const because it is a typedef. */
 800473a:	4770      	bx	lr
 800473c:	20000e0c 	.word	0x20000e0c

08004740 <vQueueDelete>:
	configASSERT( pxQueue );
 8004740:	b138      	cbz	r0, 8004752 <vQueueDelete+0x12>
{
 8004742:	b510      	push	{r4, lr}
 8004744:	4604      	mov	r4, r0
		vQueueUnregisterQueue( pxQueue );
 8004746:	f7ff ffe5 	bl	8004714 <vQueueUnregisterQueue>
		if( pxQueue->ucStaticallyAllocated == ( uint8_t ) pdFALSE )
 800474a:	f894 3046 	ldrb.w	r3, [r4, #70]	@ 0x46
 800474e:	b14b      	cbz	r3, 8004764 <vQueueDelete+0x24>
}
 8004750:	bd10      	pop	{r4, pc}
 8004752:	f04f 0350 	mov.w	r3, #80	@ 0x50
 8004756:	f383 8811 	msr	BASEPRI, r3
 800475a:	f3bf 8f6f 	isb	sy
 800475e:	f3bf 8f4f 	dsb	sy
	configASSERT( pxQueue );
 8004762:	e7fe      	b.n	8004762 <vQueueDelete+0x22>
			vPortFree( pxQueue );
 8004764:	4620      	mov	r0, r4
 8004766:	f001 fbf7 	bl	8005f58 <vPortFree>
}
 800476a:	e7f1      	b.n	8004750 <vQueueDelete+0x10>

0800476c <vQueueWaitForMessageRestricted>:
/*-----------------------------------------------------------*/

#if ( configUSE_TIMERS == 1 )

	void vQueueWaitForMessageRestricted( QueueHandle_t xQueue, TickType_t xTicksToWait, const BaseType_t xWaitIndefinitely )
	{
 800476c:	b570      	push	{r4, r5, r6, lr}
 800476e:	4604      	mov	r4, r0
 8004770:	460d      	mov	r5, r1
 8004772:	4616      	mov	r6, r2
		will not actually cause the task to block, just place it on a blocked
		list.  It will not block until the scheduler is unlocked - at which
		time a yield will be performed.  If an item is added to the queue while
		the queue is locked, and the calling task blocks on the queue, then the
		calling task will be immediately unblocked when the queue is unlocked. */
		prvLockQueue( pxQueue );
 8004774:	f001 f9b6 	bl	8005ae4 <vPortEnterCritical>
 8004778:	f894 3044 	ldrb.w	r3, [r4, #68]	@ 0x44
 800477c:	b25b      	sxtb	r3, r3
 800477e:	f1b3 3fff 	cmp.w	r3, #4294967295	@ 0xffffffff
 8004782:	d00d      	beq.n	80047a0 <vQueueWaitForMessageRestricted+0x34>
 8004784:	f894 3045 	ldrb.w	r3, [r4, #69]	@ 0x45
 8004788:	b25b      	sxtb	r3, r3
 800478a:	f1b3 3fff 	cmp.w	r3, #4294967295	@ 0xffffffff
 800478e:	d00b      	beq.n	80047a8 <vQueueWaitForMessageRestricted+0x3c>
 8004790:	f001 f9ca 	bl	8005b28 <vPortExitCritical>
		if( pxQueue->uxMessagesWaiting == ( UBaseType_t ) 0U )
 8004794:	6ba3      	ldr	r3, [r4, #56]	@ 0x38
 8004796:	b15b      	cbz	r3, 80047b0 <vQueueWaitForMessageRestricted+0x44>
		}
		else
		{
			mtCOVERAGE_TEST_MARKER();
		}
		prvUnlockQueue( pxQueue );
 8004798:	4620      	mov	r0, r4
 800479a:	f7ff faab 	bl	8003cf4 <prvUnlockQueue>
	}
 800479e:	bd70      	pop	{r4, r5, r6, pc}
		prvLockQueue( pxQueue );
 80047a0:	2300      	movs	r3, #0
 80047a2:	f884 3044 	strb.w	r3, [r4, #68]	@ 0x44
 80047a6:	e7ed      	b.n	8004784 <vQueueWaitForMessageRestricted+0x18>
 80047a8:	2300      	movs	r3, #0
 80047aa:	f884 3045 	strb.w	r3, [r4, #69]	@ 0x45
 80047ae:	e7ef      	b.n	8004790 <vQueueWaitForMessageRestricted+0x24>
			vTaskPlaceOnEventListRestricted( &( pxQueue->xTasksWaitingToReceive ), xTicksToWait, xWaitIndefinitely );
 80047b0:	4632      	mov	r2, r6
 80047b2:	4629      	mov	r1, r5
 80047b4:	f104 0024 	add.w	r0, r4, #36	@ 0x24
 80047b8:	f000 fc7e 	bl	80050b8 <vTaskPlaceOnEventListRestricted>
 80047bc:	e7ec      	b.n	8004798 <vQueueWaitForMessageRestricted+0x2c>

080047be <prvTaskCheckFreeStackSpace>:

#if ( ( configUSE_TRACE_FACILITY == 1 ) || ( INCLUDE_uxTaskGetStackHighWaterMark == 1 ) || ( INCLUDE_uxTaskGetStackHighWaterMark2 == 1 ) )

	static configSTACK_DEPTH_TYPE prvTaskCheckFreeStackSpace( const uint8_t * pucStackByte )
	{
	uint32_t ulCount = 0U;
 80047be:	2300      	movs	r3, #0

		while( *pucStackByte == ( uint8_t ) tskSTACK_FILL_BYTE )
 80047c0:	e001      	b.n	80047c6 <prvTaskCheckFreeStackSpace+0x8>
		{
			pucStackByte -= portSTACK_GROWTH;
 80047c2:	3001      	adds	r0, #1
			ulCount++;
 80047c4:	3301      	adds	r3, #1
		while( *pucStackByte == ( uint8_t ) tskSTACK_FILL_BYTE )
 80047c6:	7802      	ldrb	r2, [r0, #0]
 80047c8:	2aa5      	cmp	r2, #165	@ 0xa5
 80047ca:	d0fa      	beq.n	80047c2 <prvTaskCheckFreeStackSpace+0x4>
		}

		ulCount /= ( uint32_t ) sizeof( StackType_t ); /*lint !e961 Casting is not redundant on smaller architectures. */

		return ( configSTACK_DEPTH_TYPE ) ulCount;
	}
 80047cc:	f3c3 008f 	ubfx	r0, r3, #2, #16
 80047d0:	4770      	bx	lr
	...

080047d4 <prvResetNextTaskUnblockTime>:

static void prvResetNextTaskUnblockTime( void )
{
TCB_t *pxTCB;

	if( listLIST_IS_EMPTY( pxDelayedTaskList ) != pdFALSE )
 80047d4:	4b08      	ldr	r3, [pc, #32]	@ (80047f8 <prvResetNextTaskUnblockTime+0x24>)
 80047d6:	681b      	ldr	r3, [r3, #0]
 80047d8:	681b      	ldr	r3, [r3, #0]
 80047da:	b923      	cbnz	r3, 80047e6 <prvResetNextTaskUnblockTime+0x12>
	{
		/* The new current delayed list is empty.  Set xNextTaskUnblockTime to
		the maximum possible value so it is	extremely unlikely that the
		if( xTickCount >= xNextTaskUnblockTime ) test will pass until
		there is an item in the delayed list. */
		xNextTaskUnblockTime = portMAX_DELAY;
 80047dc:	4b07      	ldr	r3, [pc, #28]	@ (80047fc <prvResetNextTaskUnblockTime+0x28>)
 80047de:	f04f 32ff 	mov.w	r2, #4294967295	@ 0xffffffff
 80047e2:	601a      	str	r2, [r3, #0]
 80047e4:	4770      	bx	lr
	{
		/* The new current delayed list is not empty, get the value of
		the item at the head of the delayed list.  This is the time at
		which the task at the head of the delayed list should be removed
		from the Blocked state. */
		( pxTCB ) = listGET_OWNER_OF_HEAD_ENTRY( pxDelayedTaskList ); /*lint !e9079 void * is used as this macro is used with timers and co-routines too.  Alignment is known to be fine as the type of the pointer stored and retrieved is the same. */
 80047e6:	4b04      	ldr	r3, [pc, #16]	@ (80047f8 <prvResetNextTaskUnblockTime+0x24>)
 80047e8:	681b      	ldr	r3, [r3, #0]
 80047ea:	68db      	ldr	r3, [r3, #12]
 80047ec:	68db      	ldr	r3, [r3, #12]
		xNextTaskUnblockTime = listGET_LIST_ITEM_VALUE( &( ( pxTCB )->xStateListItem ) );
 80047ee:	685a      	ldr	r2, [r3, #4]
 80047f0:	4b02      	ldr	r3, [pc, #8]	@ (80047fc <prvResetNextTaskUnblockTime+0x28>)
 80047f2:	601a      	str	r2, [r3, #0]
	}
}
 80047f4:	4770      	bx	lr
 80047f6:	bf00      	nop
 80047f8:	20000ec4 	.word	0x20000ec4
 80047fc:	20000e5c 	.word	0x20000e5c

08004800 <prvInitialiseNewTask>:
{
 8004800:	e92d 47f0 	stmdb	sp!, {r4, r5, r6, r7, r8, r9, sl, lr}
 8004804:	4680      	mov	r8, r0
 8004806:	460d      	mov	r5, r1
 8004808:	4617      	mov	r7, r2
 800480a:	4699      	mov	r9, r3
 800480c:	9e08      	ldr	r6, [sp, #32]
 800480e:	f8dd a024 	ldr.w	sl, [sp, #36]	@ 0x24
 8004812:	9c0a      	ldr	r4, [sp, #40]	@ 0x28
		( void ) memset( pxNewTCB->pxStack, ( int ) tskSTACK_FILL_BYTE, ( size_t ) ulStackDepth * sizeof( StackType_t ) );
 8004814:	0092      	lsls	r2, r2, #2
 8004816:	21a5      	movs	r1, #165	@ 0xa5
 8004818:	6b20      	ldr	r0, [r4, #48]	@ 0x30
 800481a:	f002 fa87 	bl	8006d2c <memset>
		pxTopOfStack = &( pxNewTCB->pxStack[ ulStackDepth - ( uint32_t ) 1 ] );
 800481e:	6b23      	ldr	r3, [r4, #48]	@ 0x30
 8004820:	f107 4280 	add.w	r2, r7, #1073741824	@ 0x40000000
 8004824:	3a01      	subs	r2, #1
 8004826:	eb03 0782 	add.w	r7, r3, r2, lsl #2
		pxTopOfStack = ( StackType_t * ) ( ( ( portPOINTER_SIZE_TYPE ) pxTopOfStack ) & ( ~( ( portPOINTER_SIZE_TYPE ) portBYTE_ALIGNMENT_MASK ) ) ); /*lint !e923 !e9033 !e9078 MISRA exception.  Avoiding casts between pointers and integers is not practical.  Size differences accounted for using portPOINTER_SIZE_TYPE type.  Checked by assert(). */
 800482a:	f027 0707 	bic.w	r7, r7, #7
			pxNewTCB->pxEndOfStack = pxTopOfStack;
 800482e:	6427      	str	r7, [r4, #64]	@ 0x40
	if( pcName != NULL )
 8004830:	2d00      	cmp	r5, #0
 8004832:	d043      	beq.n	80048bc <prvInitialiseNewTask+0xbc>
		for( x = ( UBaseType_t ) 0; x < ( UBaseType_t ) configMAX_TASK_NAME_LEN; x++ )
 8004834:	f04f 0c00 	mov.w	ip, #0
 8004838:	f1bc 0f0b 	cmp.w	ip, #11
 800483c:	d809      	bhi.n	8004852 <prvInitialiseNewTask+0x52>
			pxNewTCB->pcTaskName[ x ] = pcName[ x ];
 800483e:	f815 300c 	ldrb.w	r3, [r5, ip]
 8004842:	eb04 020c 	add.w	r2, r4, ip
 8004846:	f882 3034 	strb.w	r3, [r2, #52]	@ 0x34
			if( pcName[ x ] == ( char ) 0x00 )
 800484a:	b113      	cbz	r3, 8004852 <prvInitialiseNewTask+0x52>
		for( x = ( UBaseType_t ) 0; x < ( UBaseType_t ) configMAX_TASK_NAME_LEN; x++ )
 800484c:	f10c 0c01 	add.w	ip, ip, #1
 8004850:	e7f2      	b.n	8004838 <prvInitialiseNewTask+0x38>
		pxNewTCB->pcTaskName[ configMAX_TASK_NAME_LEN - 1 ] = '\0';
 8004852:	2300      	movs	r3, #0
 8004854:	f884 303f 	strb.w	r3, [r4, #63]	@ 0x3f
	if( uxPriority >= ( UBaseType_t ) configMAX_PRIORITIES )
 8004858:	2e37      	cmp	r6, #55	@ 0x37
 800485a:	d900      	bls.n	800485e <prvInitialiseNewTask+0x5e>
		uxPriority = ( UBaseType_t ) configMAX_PRIORITIES - ( UBaseType_t ) 1U;
 800485c:	2637      	movs	r6, #55	@ 0x37
	pxNewTCB->uxPriority = uxPriority;
 800485e:	62e6      	str	r6, [r4, #44]	@ 0x2c
		pxNewTCB->uxBasePriority = uxPriority;
 8004860:	64e6      	str	r6, [r4, #76]	@ 0x4c
		pxNewTCB->uxMutexesHeld = 0;
 8004862:	2500      	movs	r5, #0
 8004864:	6525      	str	r5, [r4, #80]	@ 0x50
	vListInitialiseItem( &( pxNewTCB->xStateListItem ) );
 8004866:	1d20      	adds	r0, r4, #4
 8004868:	f7ff f999 	bl	8003b9e <vListInitialiseItem>
	vListInitialiseItem( &( pxNewTCB->xEventListItem ) );
 800486c:	f104 0018 	add.w	r0, r4, #24
 8004870:	f7ff f995 	bl	8003b9e <vListInitialiseItem>
	listSET_LIST_ITEM_OWNER( &( pxNewTCB->xStateListItem ), pxNewTCB );
 8004874:	6124      	str	r4, [r4, #16]
	listSET_LIST_ITEM_VALUE( &( pxNewTCB->xEventListItem ), ( TickType_t ) configMAX_PRIORITIES - ( TickType_t ) uxPriority ); /*lint !e961 MISRA exception as the casts are only redundant for some ports. */
 8004876:	f1c6 0638 	rsb	r6, r6, #56	@ 0x38
 800487a:	61a6      	str	r6, [r4, #24]
	listSET_LIST_ITEM_OWNER( &( pxNewTCB->xEventListItem ), pxNewTCB );
 800487c:	6264      	str	r4, [r4, #36]	@ 0x24
		pxNewTCB->ulRunTimeCounter = 0UL;
 800487e:	6565      	str	r5, [r4, #84]	@ 0x54
		pxNewTCB->ulNotifiedValue = 0;
 8004880:	f8c4 50a4 	str.w	r5, [r4, #164]	@ 0xa4
		pxNewTCB->ucNotifyState = taskNOT_WAITING_NOTIFICATION;
 8004884:	f884 50a8 	strb.w	r5, [r4, #168]	@ 0xa8
		_REENT_INIT_PTR( ( &( pxNewTCB->xNewLib_reent ) ) );
 8004888:	224c      	movs	r2, #76	@ 0x4c
 800488a:	4629      	mov	r1, r5
 800488c:	f104 0058 	add.w	r0, r4, #88	@ 0x58
 8004890:	f002 fa4c 	bl	8006d2c <memset>
 8004894:	4b0b      	ldr	r3, [pc, #44]	@ (80048c4 <prvInitialiseNewTask+0xc4>)
 8004896:	65e3      	str	r3, [r4, #92]	@ 0x5c
 8004898:	f103 0268 	add.w	r2, r3, #104	@ 0x68
 800489c:	6622      	str	r2, [r4, #96]	@ 0x60
 800489e:	33d0      	adds	r3, #208	@ 0xd0
 80048a0:	6663      	str	r3, [r4, #100]	@ 0x64
			pxNewTCB->pxTopOfStack = pxPortInitialiseStack( pxTopOfStack, pxTaskCode, pvParameters );
 80048a2:	464a      	mov	r2, r9
 80048a4:	4641      	mov	r1, r8
 80048a6:	4638      	mov	r0, r7
 80048a8:	f001 f8f0 	bl	8005a8c <pxPortInitialiseStack>
 80048ac:	6020      	str	r0, [r4, #0]
	if( pxCreatedTask != NULL )
 80048ae:	f1ba 0f00 	cmp.w	sl, #0
 80048b2:	d001      	beq.n	80048b8 <prvInitialiseNewTask+0xb8>
		*pxCreatedTask = ( TaskHandle_t ) pxNewTCB;
 80048b4:	f8ca 4000 	str.w	r4, [sl]
}
 80048b8:	e8bd 87f0 	ldmia.w	sp!, {r4, r5, r6, r7, r8, r9, sl, pc}
		pxNewTCB->pcTaskName[ 0 ] = 0x00;
 80048bc:	2300      	movs	r3, #0
 80048be:	f884 3034 	strb.w	r3, [r4, #52]	@ 0x34
 80048c2:	e7c9      	b.n	8004858 <prvInitialiseNewTask+0x58>
 80048c4:	200014a8 	.word	0x200014a8

080048c8 <prvInitialiseTaskLists>:
{
 80048c8:	b538      	push	{r3, r4, r5, lr}
	for( uxPriority = ( UBaseType_t ) 0U; uxPriority < ( UBaseType_t ) configMAX_PRIORITIES; uxPriority++ )
 80048ca:	2400      	movs	r4, #0
 80048cc:	e007      	b.n	80048de <prvInitialiseTaskLists+0x16>
		vListInitialise( &( pxReadyTasksLists[ uxPriority ] ) );
 80048ce:	eb04 0284 	add.w	r2, r4, r4, lsl #2
 80048d2:	0093      	lsls	r3, r2, #2
 80048d4:	480e      	ldr	r0, [pc, #56]	@ (8004910 <prvInitialiseTaskLists+0x48>)
 80048d6:	4418      	add	r0, r3
 80048d8:	f7ff f956 	bl	8003b88 <vListInitialise>
	for( uxPriority = ( UBaseType_t ) 0U; uxPriority < ( UBaseType_t ) configMAX_PRIORITIES; uxPriority++ )
 80048dc:	3401      	adds	r4, #1
 80048de:	2c37      	cmp	r4, #55	@ 0x37
 80048e0:	d9f5      	bls.n	80048ce <prvInitialiseTaskLists+0x6>
	vListInitialise( &xDelayedTaskList1 );
 80048e2:	4d0c      	ldr	r5, [pc, #48]	@ (8004914 <prvInitialiseTaskLists+0x4c>)
 80048e4:	4628      	mov	r0, r5
 80048e6:	f7ff f94f 	bl	8003b88 <vListInitialise>
	vListInitialise( &xDelayedTaskList2 );
 80048ea:	4c0b      	ldr	r4, [pc, #44]	@ (8004918 <prvInitialiseTaskLists+0x50>)
 80048ec:	4620      	mov	r0, r4
 80048ee:	f7ff f94b 	bl	8003b88 <vListInitialise>
	vListInitialise( &xPendingReadyList );
 80048f2:	480a      	ldr	r0, [pc, #40]	@ (800491c <prvInitialiseTaskLists+0x54>)
 80048f4:	f7ff f948 	bl	8003b88 <vListInitialise>
		vListInitialise( &xTasksWaitingTermination );
 80048f8:	4809      	ldr	r0, [pc, #36]	@ (8004920 <prvInitialiseTaskLists+0x58>)
 80048fa:	f7ff f945 	bl	8003b88 <vListInitialise>
		vListInitialise( &xSuspendedTaskList );
 80048fe:	4809      	ldr	r0, [pc, #36]	@ (8004924 <prvInitialiseTaskLists+0x5c>)
 8004900:	f7ff f942 	bl	8003b88 <vListInitialise>
	pxDelayedTaskList = &xDelayedTaskList1;
 8004904:	4b08      	ldr	r3, [pc, #32]	@ (8004928 <prvInitialiseTaskLists+0x60>)
 8004906:	601d      	str	r5, [r3, #0]
	pxOverflowDelayedTaskList = &xDelayedTaskList2;
 8004908:	4b08      	ldr	r3, [pc, #32]	@ (800492c <prvInitialiseTaskLists+0x64>)
 800490a:	601c      	str	r4, [r3, #0]
}
 800490c:	bd38      	pop	{r3, r4, r5, pc}
 800490e:	bf00      	nop
 8004910:	20000ef0 	.word	0x20000ef0
 8004914:	20000edc 	.word	0x20000edc
 8004918:	20000ec8 	.word	0x20000ec8
 800491c:	20000eac 	.word	0x20000eac
 8004920:	20000e98 	.word	0x20000e98
 8004924:	20000e80 	.word	0x20000e80
 8004928:	20000ec4 	.word	0x20000ec4
 800492c:	20000ec0 	.word	0x20000ec0

08004930 <prvAddNewTaskToReadyList>:
{
 8004930:	b510      	push	{r4, lr}
 8004932:	4604      	mov	r4, r0
	taskENTER_CRITICAL();
 8004934:	f001 f8d6 	bl	8005ae4 <vPortEnterCritical>
		uxCurrentNumberOfTasks++;
 8004938:	4a22      	ldr	r2, [pc, #136]	@ (80049c4 <prvAddNewTaskToReadyList+0x94>)
 800493a:	6813      	ldr	r3, [r2, #0]
 800493c:	3301      	adds	r3, #1
 800493e:	6013      	str	r3, [r2, #0]
		if( pxCurrentTCB == NULL )
 8004940:	4b21      	ldr	r3, [pc, #132]	@ (80049c8 <prvAddNewTaskToReadyList+0x98>)
 8004942:	681b      	ldr	r3, [r3, #0]
 8004944:	b15b      	cbz	r3, 800495e <prvAddNewTaskToReadyList+0x2e>
			if( xSchedulerRunning == pdFALSE )
 8004946:	4b21      	ldr	r3, [pc, #132]	@ (80049cc <prvAddNewTaskToReadyList+0x9c>)
 8004948:	681b      	ldr	r3, [r3, #0]
 800494a:	b96b      	cbnz	r3, 8004968 <prvAddNewTaskToReadyList+0x38>
				if( pxCurrentTCB->uxPriority <= pxNewTCB->uxPriority )
 800494c:	4b1e      	ldr	r3, [pc, #120]	@ (80049c8 <prvAddNewTaskToReadyList+0x98>)
 800494e:	681b      	ldr	r3, [r3, #0]
 8004950:	6ada      	ldr	r2, [r3, #44]	@ 0x2c
 8004952:	6ae3      	ldr	r3, [r4, #44]	@ 0x2c
 8004954:	429a      	cmp	r2, r3
 8004956:	d807      	bhi.n	8004968 <prvAddNewTaskToReadyList+0x38>
					pxCurrentTCB = pxNewTCB;
 8004958:	4b1b      	ldr	r3, [pc, #108]	@ (80049c8 <prvAddNewTaskToReadyList+0x98>)
 800495a:	601c      	str	r4, [r3, #0]
 800495c:	e004      	b.n	8004968 <prvAddNewTaskToReadyList+0x38>
			pxCurrentTCB = pxNewTCB;
 800495e:	4b1a      	ldr	r3, [pc, #104]	@ (80049c8 <prvAddNewTaskToReadyList+0x98>)
 8004960:	601c      	str	r4, [r3, #0]
			if( uxCurrentNumberOfTasks == ( UBaseType_t ) 1 )
 8004962:	6813      	ldr	r3, [r2, #0]
 8004964:	2b01      	cmp	r3, #1
 8004966:	d029      	beq.n	80049bc <prvAddNewTaskToReadyList+0x8c>
		uxTaskNumber++;
 8004968:	4a19      	ldr	r2, [pc, #100]	@ (80049d0 <prvAddNewTaskToReadyList+0xa0>)
 800496a:	6813      	ldr	r3, [r2, #0]
 800496c:	3301      	adds	r3, #1
 800496e:	6013      	str	r3, [r2, #0]
			pxNewTCB->uxTCBNumber = uxTaskNumber;
 8004970:	6463      	str	r3, [r4, #68]	@ 0x44
		prvAddTaskToReadyList( pxNewTCB );
 8004972:	6ae0      	ldr	r0, [r4, #44]	@ 0x2c
 8004974:	4b17      	ldr	r3, [pc, #92]	@ (80049d4 <prvAddNewTaskToReadyList+0xa4>)
 8004976:	681b      	ldr	r3, [r3, #0]
 8004978:	4298      	cmp	r0, r3
 800497a:	d901      	bls.n	8004980 <prvAddNewTaskToReadyList+0x50>
 800497c:	4b15      	ldr	r3, [pc, #84]	@ (80049d4 <prvAddNewTaskToReadyList+0xa4>)
 800497e:	6018      	str	r0, [r3, #0]
 8004980:	eb00 0080 	add.w	r0, r0, r0, lsl #2
 8004984:	1d21      	adds	r1, r4, #4
 8004986:	4b14      	ldr	r3, [pc, #80]	@ (80049d8 <prvAddNewTaskToReadyList+0xa8>)
 8004988:	eb03 0080 	add.w	r0, r3, r0, lsl #2
 800498c:	f7ff f90a 	bl	8003ba4 <vListInsertEnd>
	taskEXIT_CRITICAL();
 8004990:	f001 f8ca 	bl	8005b28 <vPortExitCritical>
	if( xSchedulerRunning != pdFALSE )
 8004994:	4b0d      	ldr	r3, [pc, #52]	@ (80049cc <prvAddNewTaskToReadyList+0x9c>)
 8004996:	681b      	ldr	r3, [r3, #0]
 8004998:	b17b      	cbz	r3, 80049ba <prvAddNewTaskToReadyList+0x8a>
		if( pxCurrentTCB->uxPriority < pxNewTCB->uxPriority )
 800499a:	4b0b      	ldr	r3, [pc, #44]	@ (80049c8 <prvAddNewTaskToReadyList+0x98>)
 800499c:	681b      	ldr	r3, [r3, #0]
 800499e:	6ada      	ldr	r2, [r3, #44]	@ 0x2c
 80049a0:	6ae3      	ldr	r3, [r4, #44]	@ 0x2c
 80049a2:	429a      	cmp	r2, r3
 80049a4:	d209      	bcs.n	80049ba <prvAddNewTaskToReadyList+0x8a>
			taskYIELD_IF_USING_PREEMPTION();
 80049a6:	f04f 23e0 	mov.w	r3, #3758153728	@ 0xe000e000
 80049aa:	f04f 5280 	mov.w	r2, #268435456	@ 0x10000000
 80049ae:	f8c3 2d04 	str.w	r2, [r3, #3332]	@ 0xd04
 80049b2:	f3bf 8f4f 	dsb	sy
 80049b6:	f3bf 8f6f 	isb	sy
}
 80049ba:	bd10      	pop	{r4, pc}
				prvInitialiseTaskLists();
 80049bc:	f7ff ff84 	bl	80048c8 <prvInitialiseTaskLists>
 80049c0:	e7d2      	b.n	8004968 <prvAddNewTaskToReadyList+0x38>
 80049c2:	bf00      	nop
 80049c4:	20000e7c 	.word	0x20000e7c
 80049c8:	20001350 	.word	0x20001350
 80049cc:	20000e70 	.word	0x20000e70
 80049d0:	20000e60 	.word	0x20000e60
 80049d4:	20000e74 	.word	0x20000e74
 80049d8:	20000ef0 	.word	0x20000ef0

080049dc <prvDeleteTCB>:
	{
 80049dc:	b510      	push	{r4, lr}
 80049de:	4604      	mov	r4, r0
			_reclaim_reent( &( pxTCB->xNewLib_reent ) );
 80049e0:	3058      	adds	r0, #88	@ 0x58
 80049e2:	f002 f9bf 	bl	8006d64 <_reclaim_reent>
			if( pxTCB->ucStaticallyAllocated == tskDYNAMICALLY_ALLOCATED_STACK_AND_TCB )
 80049e6:	f894 30a9 	ldrb.w	r3, [r4, #169]	@ 0xa9
 80049ea:	b163      	cbz	r3, 8004a06 <prvDeleteTCB+0x2a>
			else if( pxTCB->ucStaticallyAllocated == tskSTATICALLY_ALLOCATED_STACK_ONLY )
 80049ec:	2b01      	cmp	r3, #1
 80049ee:	d011      	beq.n	8004a14 <prvDeleteTCB+0x38>
				configASSERT( pxTCB->ucStaticallyAllocated == tskSTATICALLY_ALLOCATED_STACK_AND_TCB	);
 80049f0:	2b02      	cmp	r3, #2
 80049f2:	d00e      	beq.n	8004a12 <prvDeleteTCB+0x36>
 80049f4:	f04f 0350 	mov.w	r3, #80	@ 0x50
 80049f8:	f383 8811 	msr	BASEPRI, r3
 80049fc:	f3bf 8f6f 	isb	sy
 8004a00:	f3bf 8f4f 	dsb	sy
 8004a04:	e7fe      	b.n	8004a04 <prvDeleteTCB+0x28>
				vPortFree( pxTCB->pxStack );
 8004a06:	6b20      	ldr	r0, [r4, #48]	@ 0x30
 8004a08:	f001 faa6 	bl	8005f58 <vPortFree>
				vPortFree( pxTCB );
 8004a0c:	4620      	mov	r0, r4
 8004a0e:	f001 faa3 	bl	8005f58 <vPortFree>
	}
 8004a12:	bd10      	pop	{r4, pc}
				vPortFree( pxTCB );
 8004a14:	4620      	mov	r0, r4
 8004a16:	f001 fa9f 	bl	8005f58 <vPortFree>
 8004a1a:	e7fa      	b.n	8004a12 <prvDeleteTCB+0x36>

08004a1c <prvCheckTasksWaitingTermination>:
		while( uxDeletedTasksWaitingCleanUp > ( UBaseType_t ) 0U )
 8004a1c:	4b0f      	ldr	r3, [pc, #60]	@ (8004a5c <prvCheckTasksWaitingTermination+0x40>)
 8004a1e:	681b      	ldr	r3, [r3, #0]
 8004a20:	b1d3      	cbz	r3, 8004a58 <prvCheckTasksWaitingTermination+0x3c>
{
 8004a22:	b510      	push	{r4, lr}
			taskENTER_CRITICAL();
 8004a24:	f001 f85e 	bl	8005ae4 <vPortEnterCritical>
				pxTCB = listGET_OWNER_OF_HEAD_ENTRY( ( &xTasksWaitingTermination ) ); /*lint !e9079 void * is used as this macro is used with timers and co-routines too.  Alignment is known to be fine as the type of the pointer stored and retrieved is the same. */
 8004a28:	4b0d      	ldr	r3, [pc, #52]	@ (8004a60 <prvCheckTasksWaitingTermination+0x44>)
 8004a2a:	68db      	ldr	r3, [r3, #12]
 8004a2c:	68dc      	ldr	r4, [r3, #12]
				( void ) uxListRemove( &( pxTCB->xStateListItem ) );
 8004a2e:	1d20      	adds	r0, r4, #4
 8004a30:	f7ff f8dc 	bl	8003bec <uxListRemove>
				--uxCurrentNumberOfTasks;
 8004a34:	4a0b      	ldr	r2, [pc, #44]	@ (8004a64 <prvCheckTasksWaitingTermination+0x48>)
 8004a36:	6813      	ldr	r3, [r2, #0]
 8004a38:	3b01      	subs	r3, #1
 8004a3a:	6013      	str	r3, [r2, #0]
				--uxDeletedTasksWaitingCleanUp;
 8004a3c:	4a07      	ldr	r2, [pc, #28]	@ (8004a5c <prvCheckTasksWaitingTermination+0x40>)
 8004a3e:	6813      	ldr	r3, [r2, #0]
 8004a40:	3b01      	subs	r3, #1
 8004a42:	6013      	str	r3, [r2, #0]
			taskEXIT_CRITICAL();
 8004a44:	f001 f870 	bl	8005b28 <vPortExitCritical>
			prvDeleteTCB( pxTCB );
 8004a48:	4620      	mov	r0, r4
 8004a4a:	f7ff ffc7 	bl	80049dc <prvDeleteTCB>
		while( uxDeletedTasksWaitingCleanUp > ( UBaseType_t ) 0U )
 8004a4e:	4b03      	ldr	r3, [pc, #12]	@ (8004a5c <prvCheckTasksWaitingTermination+0x40>)
 8004a50:	681b      	ldr	r3, [r3, #0]
 8004a52:	2b00      	cmp	r3, #0
 8004a54:	d1e6      	bne.n	8004a24 <prvCheckTasksWaitingTermination+0x8>
}
 8004a56:	bd10      	pop	{r4, pc}
 8004a58:	4770      	bx	lr
 8004a5a:	bf00      	nop
 8004a5c:	20000e94 	.word	0x20000e94
 8004a60:	20000e98 	.word	0x20000e98
 8004a64:	20000e7c 	.word	0x20000e7c

08004a68 <prvIdleTask>:
{
 8004a68:	b508      	push	{r3, lr}
		prvCheckTasksWaitingTermination();
 8004a6a:	f7ff ffd7 	bl	8004a1c <prvCheckTasksWaitingTermination>
			if( listCURRENT_LIST_LENGTH( &( pxReadyTasksLists[ tskIDLE_PRIORITY ] ) ) > ( UBaseType_t ) 1 )
 8004a6e:	4b07      	ldr	r3, [pc, #28]	@ (8004a8c <prvIdleTask+0x24>)
 8004a70:	681b      	ldr	r3, [r3, #0]
 8004a72:	2b01      	cmp	r3, #1
 8004a74:	d9f9      	bls.n	8004a6a <prvIdleTask+0x2>
				taskYIELD();
 8004a76:	f04f 23e0 	mov.w	r3, #3758153728	@ 0xe000e000
 8004a7a:	f04f 5280 	mov.w	r2, #268435456	@ 0x10000000
 8004a7e:	f8c3 2d04 	str.w	r2, [r3, #3332]	@ 0xd04
 8004a82:	f3bf 8f4f 	dsb	sy
 8004a86:	f3bf 8f6f 	isb	sy
 8004a8a:	e7ee      	b.n	8004a6a <prvIdleTask+0x2>
 8004a8c:	20000ef0 	.word	0x20000ef0

08004a90 <prvAddCurrentTaskToDelayedList>:

#endif
/*-----------------------------------------------------------*/

static void prvAddCurrentTaskToDelayedList( TickType_t xTicksToWait, const BaseType_t xCanBlockIndefinitely )
{
 8004a90:	b570      	push	{r4, r5, r6, lr}
 8004a92:	4604      	mov	r4, r0
 8004a94:	460d      	mov	r5, r1
TickType_t xTimeToWake;
const TickType_t xConstTickCount = xTickCount;
 8004a96:	4b17      	ldr	r3, [pc, #92]	@ (8004af4 <prvAddCurrentTaskToDelayedList+0x64>)
 8004a98:	681e      	ldr	r6, [r3, #0]
	}
	#endif

	/* Remove the task from the ready list before adding it to the blocked list
	as the same list item is used for both lists. */
	if( uxListRemove( &( pxCurrentTCB->xStateListItem ) ) == ( UBaseType_t ) 0 )
 8004a9a:	4b17      	ldr	r3, [pc, #92]	@ (8004af8 <prvAddCurrentTaskToDelayedList+0x68>)
 8004a9c:	6818      	ldr	r0, [r3, #0]
 8004a9e:	3004      	adds	r0, #4
 8004aa0:	f7ff f8a4 	bl	8003bec <uxListRemove>
		mtCOVERAGE_TEST_MARKER();
	}

	#if ( INCLUDE_vTaskSuspend == 1 )
	{
		if( ( xTicksToWait == portMAX_DELAY ) && ( xCanBlockIndefinitely != pdFALSE ) )
 8004aa4:	f1b4 3fff 	cmp.w	r4, #4294967295	@ 0xffffffff
 8004aa8:	d00d      	beq.n	8004ac6 <prvAddCurrentTaskToDelayedList+0x36>
		else
		{
			/* Calculate the time at which the task should be woken if the event
			does not occur.  This may overflow but this doesn't matter, the
			kernel will manage it correctly. */
			xTimeToWake = xConstTickCount + xTicksToWait;
 8004aaa:	4434      	add	r4, r6

			/* The list item will be inserted in wake time order. */
			listSET_LIST_ITEM_VALUE( &( pxCurrentTCB->xStateListItem ), xTimeToWake );
 8004aac:	4b12      	ldr	r3, [pc, #72]	@ (8004af8 <prvAddCurrentTaskToDelayedList+0x68>)
 8004aae:	681b      	ldr	r3, [r3, #0]
 8004ab0:	605c      	str	r4, [r3, #4]

			if( xTimeToWake < xConstTickCount )
 8004ab2:	42a6      	cmp	r6, r4
 8004ab4:	d910      	bls.n	8004ad8 <prvAddCurrentTaskToDelayedList+0x48>
			{
				/* Wake time has overflowed.  Place this item in the overflow
				list. */
				vListInsert( pxOverflowDelayedTaskList, &( pxCurrentTCB->xStateListItem ) );
 8004ab6:	4b11      	ldr	r3, [pc, #68]	@ (8004afc <prvAddCurrentTaskToDelayedList+0x6c>)
 8004ab8:	6818      	ldr	r0, [r3, #0]
 8004aba:	4b0f      	ldr	r3, [pc, #60]	@ (8004af8 <prvAddCurrentTaskToDelayedList+0x68>)
 8004abc:	6819      	ldr	r1, [r3, #0]
 8004abe:	3104      	adds	r1, #4
 8004ac0:	f7ff f87b 	bl	8003bba <vListInsert>

		/* Avoid compiler warning when INCLUDE_vTaskSuspend is not 1. */
		( void ) xCanBlockIndefinitely;
	}
	#endif /* INCLUDE_vTaskSuspend */
}
 8004ac4:	bd70      	pop	{r4, r5, r6, pc}
		if( ( xTicksToWait == portMAX_DELAY ) && ( xCanBlockIndefinitely != pdFALSE ) )
 8004ac6:	2d00      	cmp	r5, #0
 8004ac8:	d0ef      	beq.n	8004aaa <prvAddCurrentTaskToDelayedList+0x1a>
			vListInsertEnd( &xSuspendedTaskList, &( pxCurrentTCB->xStateListItem ) );
 8004aca:	4b0b      	ldr	r3, [pc, #44]	@ (8004af8 <prvAddCurrentTaskToDelayedList+0x68>)
 8004acc:	6819      	ldr	r1, [r3, #0]
 8004ace:	3104      	adds	r1, #4
 8004ad0:	480b      	ldr	r0, [pc, #44]	@ (8004b00 <prvAddCurrentTaskToDelayedList+0x70>)
 8004ad2:	f7ff f867 	bl	8003ba4 <vListInsertEnd>
 8004ad6:	e7f5      	b.n	8004ac4 <prvAddCurrentTaskToDelayedList+0x34>
				vListInsert( pxDelayedTaskList, &( pxCurrentTCB->xStateListItem ) );
 8004ad8:	4b0a      	ldr	r3, [pc, #40]	@ (8004b04 <prvAddCurrentTaskToDelayedList+0x74>)
 8004ada:	6818      	ldr	r0, [r3, #0]
 8004adc:	4b06      	ldr	r3, [pc, #24]	@ (8004af8 <prvAddCurrentTaskToDelayedList+0x68>)
 8004ade:	6819      	ldr	r1, [r3, #0]
 8004ae0:	3104      	adds	r1, #4
 8004ae2:	f7ff f86a 	bl	8003bba <vListInsert>
				if( xTimeToWake < xNextTaskUnblockTime )
 8004ae6:	4b08      	ldr	r3, [pc, #32]	@ (8004b08 <prvAddCurrentTaskToDelayedList+0x78>)
 8004ae8:	681b      	ldr	r3, [r3, #0]
 8004aea:	42a3      	cmp	r3, r4
 8004aec:	d9ea      	bls.n	8004ac4 <prvAddCurrentTaskToDelayedList+0x34>
					xNextTaskUnblockTime = xTimeToWake;
 8004aee:	4b06      	ldr	r3, [pc, #24]	@ (8004b08 <prvAddCurrentTaskToDelayedList+0x78>)
 8004af0:	601c      	str	r4, [r3, #0]
}
 8004af2:	e7e7      	b.n	8004ac4 <prvAddCurrentTaskToDelayedList+0x34>
 8004af4:	20000e78 	.word	0x20000e78
 8004af8:	20001350 	.word	0x20001350
 8004afc:	20000ec0 	.word	0x20000ec0
 8004b00:	20000e80 	.word	0x20000e80
 8004b04:	20000ec4 	.word	0x20000ec4
 8004b08:	20000e5c 	.word	0x20000e5c

08004b0c <xTaskCreateStatic>:
	{
 8004b0c:	b530      	push	{r4, r5, lr}
 8004b0e:	b087      	sub	sp, #28
 8004b10:	9c0b      	ldr	r4, [sp, #44]	@ 0x2c
		configASSERT( puxStackBuffer != NULL );
 8004b12:	b17c      	cbz	r4, 8004b34 <xTaskCreateStatic+0x28>
		configASSERT( pxTaskBuffer != NULL );
 8004b14:	9d0c      	ldr	r5, [sp, #48]	@ 0x30
 8004b16:	b1b5      	cbz	r5, 8004b46 <xTaskCreateStatic+0x3a>
			volatile size_t xSize = sizeof( StaticTask_t );
 8004b18:	25ac      	movs	r5, #172	@ 0xac
 8004b1a:	9504      	str	r5, [sp, #16]
			configASSERT( xSize == sizeof( TCB_t ) );
 8004b1c:	9d04      	ldr	r5, [sp, #16]
 8004b1e:	2dac      	cmp	r5, #172	@ 0xac
 8004b20:	d01a      	beq.n	8004b58 <xTaskCreateStatic+0x4c>
 8004b22:	f04f 0350 	mov.w	r3, #80	@ 0x50
 8004b26:	f383 8811 	msr	BASEPRI, r3
 8004b2a:	f3bf 8f6f 	isb	sy
 8004b2e:	f3bf 8f4f 	dsb	sy
 8004b32:	e7fe      	b.n	8004b32 <xTaskCreateStatic+0x26>
 8004b34:	f04f 0350 	mov.w	r3, #80	@ 0x50
 8004b38:	f383 8811 	msr	BASEPRI, r3
 8004b3c:	f3bf 8f6f 	isb	sy
 8004b40:	f3bf 8f4f 	dsb	sy
		configASSERT( puxStackBuffer != NULL );
 8004b44:	e7fe      	b.n	8004b44 <xTaskCreateStatic+0x38>
 8004b46:	f04f 0350 	mov.w	r3, #80	@ 0x50
 8004b4a:	f383 8811 	msr	BASEPRI, r3
 8004b4e:	f3bf 8f6f 	isb	sy
 8004b52:	f3bf 8f4f 	dsb	sy
		configASSERT( pxTaskBuffer != NULL );
 8004b56:	e7fe      	b.n	8004b56 <xTaskCreateStatic+0x4a>
			( void ) xSize; /* Prevent lint warning when configASSERT() is not used. */
 8004b58:	9d04      	ldr	r5, [sp, #16]
			pxNewTCB->pxStack = ( StackType_t * ) puxStackBuffer;
 8004b5a:	9d0c      	ldr	r5, [sp, #48]	@ 0x30
 8004b5c:	632c      	str	r4, [r5, #48]	@ 0x30
				pxNewTCB->ucStaticallyAllocated = tskSTATICALLY_ALLOCATED_STACK_AND_TCB;
 8004b5e:	2402      	movs	r4, #2
 8004b60:	f885 40a9 	strb.w	r4, [r5, #169]	@ 0xa9
			prvInitialiseNewTask( pxTaskCode, pcName, ulStackDepth, pvParameters, uxPriority, &xReturn, pxNewTCB, NULL );
 8004b64:	2400      	movs	r4, #0
 8004b66:	9403      	str	r4, [sp, #12]
 8004b68:	9502      	str	r5, [sp, #8]
 8004b6a:	ac05      	add	r4, sp, #20
 8004b6c:	9401      	str	r4, [sp, #4]
 8004b6e:	9c0a      	ldr	r4, [sp, #40]	@ 0x28
 8004b70:	9400      	str	r4, [sp, #0]
 8004b72:	f7ff fe45 	bl	8004800 <prvInitialiseNewTask>
			prvAddNewTaskToReadyList( pxNewTCB );
 8004b76:	980c      	ldr	r0, [sp, #48]	@ 0x30
 8004b78:	f7ff feda 	bl	8004930 <prvAddNewTaskToReadyList>
	}
 8004b7c:	9805      	ldr	r0, [sp, #20]
 8004b7e:	b007      	add	sp, #28
 8004b80:	bd30      	pop	{r4, r5, pc}

08004b82 <xTaskCreate>:
	{
 8004b82:	e92d 43f0 	stmdb	sp!, {r4, r5, r6, r7, r8, r9, lr}
 8004b86:	b085      	sub	sp, #20
 8004b88:	4607      	mov	r7, r0
 8004b8a:	4688      	mov	r8, r1
 8004b8c:	4614      	mov	r4, r2
 8004b8e:	461e      	mov	r6, r3
			pxStack = pvPortMalloc( ( ( ( size_t ) usStackDepth ) * sizeof( StackType_t ) ) ); /*lint !e9079 All values returned by pvPortMalloc() have at least the alignment required by the MCU's stack and this allocation is the stack. */
 8004b90:	0090      	lsls	r0, r2, #2
 8004b92:	f001 f95f 	bl	8005e54 <pvPortMalloc>
			if( pxStack != NULL )
 8004b96:	b308      	cbz	r0, 8004bdc <xTaskCreate+0x5a>
 8004b98:	4681      	mov	r9, r0
				pxNewTCB = ( TCB_t * ) pvPortMalloc( sizeof( TCB_t ) ); /*lint !e9087 !e9079 All values returned by pvPortMalloc() have at least the alignment required by the MCU's stack, and the first member of TCB_t is always a pointer to the task's stack. */
 8004b9a:	20ac      	movs	r0, #172	@ 0xac
 8004b9c:	f001 f95a 	bl	8005e54 <pvPortMalloc>
				if( pxNewTCB != NULL )
 8004ba0:	4605      	mov	r5, r0
 8004ba2:	b1a8      	cbz	r0, 8004bd0 <xTaskCreate+0x4e>
					pxNewTCB->pxStack = pxStack;
 8004ba4:	f8c0 9030 	str.w	r9, [r0, #48]	@ 0x30
				pxNewTCB->ucStaticallyAllocated = tskDYNAMICALLY_ALLOCATED_STACK_AND_TCB;
 8004ba8:	2300      	movs	r3, #0
 8004baa:	f880 30a9 	strb.w	r3, [r0, #169]	@ 0xa9
			prvInitialiseNewTask( pxTaskCode, pcName, ( uint32_t ) usStackDepth, pvParameters, uxPriority, pxCreatedTask, pxNewTCB, NULL );
 8004bae:	9303      	str	r3, [sp, #12]
 8004bb0:	9002      	str	r0, [sp, #8]
 8004bb2:	9b0d      	ldr	r3, [sp, #52]	@ 0x34
 8004bb4:	9301      	str	r3, [sp, #4]
 8004bb6:	9b0c      	ldr	r3, [sp, #48]	@ 0x30
 8004bb8:	9300      	str	r3, [sp, #0]
 8004bba:	4633      	mov	r3, r6
 8004bbc:	4622      	mov	r2, r4
 8004bbe:	4641      	mov	r1, r8
 8004bc0:	4638      	mov	r0, r7
 8004bc2:	f7ff fe1d 	bl	8004800 <prvInitialiseNewTask>
			prvAddNewTaskToReadyList( pxNewTCB );
 8004bc6:	4628      	mov	r0, r5
 8004bc8:	f7ff feb2 	bl	8004930 <prvAddNewTaskToReadyList>
			xReturn = pdPASS;
 8004bcc:	2001      	movs	r0, #1
 8004bce:	e007      	b.n	8004be0 <xTaskCreate+0x5e>
					vPortFree( pxStack );
 8004bd0:	4648      	mov	r0, r9
 8004bd2:	f001 f9c1 	bl	8005f58 <vPortFree>
			xReturn = errCOULD_NOT_ALLOCATE_REQUIRED_MEMORY;
 8004bd6:	f04f 30ff 	mov.w	r0, #4294967295	@ 0xffffffff
 8004bda:	e001      	b.n	8004be0 <xTaskCreate+0x5e>
 8004bdc:	f04f 30ff 	mov.w	r0, #4294967295	@ 0xffffffff
	}
 8004be0:	b005      	add	sp, #20
 8004be2:	e8bd 83f0 	ldmia.w	sp!, {r4, r5, r6, r7, r8, r9, pc}
	...

08004be8 <eTaskGetState>:
	{
 8004be8:	b5f8      	push	{r3, r4, r5, r6, r7, lr}
		configASSERT( pxTCB );
 8004bea:	b1d0      	cbz	r0, 8004c22 <eTaskGetState+0x3a>
 8004bec:	4604      	mov	r4, r0
		if( pxTCB == pxCurrentTCB )
 8004bee:	4b1d      	ldr	r3, [pc, #116]	@ (8004c64 <eTaskGetState+0x7c>)
 8004bf0:	681b      	ldr	r3, [r3, #0]
 8004bf2:	4283      	cmp	r3, r0
 8004bf4:	d02d      	beq.n	8004c52 <eTaskGetState+0x6a>
			taskENTER_CRITICAL();
 8004bf6:	f000 ff75 	bl	8005ae4 <vPortEnterCritical>
				pxStateList = listLIST_ITEM_CONTAINER( &( pxTCB->xStateListItem ) );
 8004bfa:	6965      	ldr	r5, [r4, #20]
				pxDelayedList = pxDelayedTaskList;
 8004bfc:	4b1a      	ldr	r3, [pc, #104]	@ (8004c68 <eTaskGetState+0x80>)
 8004bfe:	681e      	ldr	r6, [r3, #0]
				pxOverflowedDelayedList = pxOverflowDelayedTaskList;
 8004c00:	4b1a      	ldr	r3, [pc, #104]	@ (8004c6c <eTaskGetState+0x84>)
 8004c02:	681f      	ldr	r7, [r3, #0]
			taskEXIT_CRITICAL();
 8004c04:	f000 ff90 	bl	8005b28 <vPortExitCritical>
			if( ( pxStateList == pxDelayedList ) || ( pxStateList == pxOverflowedDelayedList ) )
 8004c08:	42b5      	cmp	r5, r6
 8004c0a:	d024      	beq.n	8004c56 <eTaskGetState+0x6e>
 8004c0c:	42bd      	cmp	r5, r7
 8004c0e:	d024      	beq.n	8004c5a <eTaskGetState+0x72>
				else if( pxStateList == &xSuspendedTaskList )
 8004c10:	4b17      	ldr	r3, [pc, #92]	@ (8004c70 <eTaskGetState+0x88>)
 8004c12:	429d      	cmp	r5, r3
 8004c14:	d00e      	beq.n	8004c34 <eTaskGetState+0x4c>
				else if( ( pxStateList == &xTasksWaitingTermination ) || ( pxStateList == NULL ) )
 8004c16:	4b17      	ldr	r3, [pc, #92]	@ (8004c74 <eTaskGetState+0x8c>)
 8004c18:	429d      	cmp	r5, r3
 8004c1a:	d020      	beq.n	8004c5e <eTaskGetState+0x76>
 8004c1c:	b1bd      	cbz	r5, 8004c4e <eTaskGetState+0x66>
				eReturn = eReady;
 8004c1e:	2001      	movs	r0, #1
 8004c20:	e018      	b.n	8004c54 <eTaskGetState+0x6c>
 8004c22:	f04f 0350 	mov.w	r3, #80	@ 0x50
 8004c26:	f383 8811 	msr	BASEPRI, r3
 8004c2a:	f3bf 8f6f 	isb	sy
 8004c2e:	f3bf 8f4f 	dsb	sy
		configASSERT( pxTCB );
 8004c32:	e7fe      	b.n	8004c32 <eTaskGetState+0x4a>
					if( listLIST_ITEM_CONTAINER( &( pxTCB->xEventListItem ) ) == NULL )
 8004c34:	6aa3      	ldr	r3, [r4, #40]	@ 0x28
 8004c36:	b10b      	cbz	r3, 8004c3c <eTaskGetState+0x54>
						eReturn = eBlocked;
 8004c38:	2002      	movs	r0, #2
 8004c3a:	e00b      	b.n	8004c54 <eTaskGetState+0x6c>
							if( pxTCB->ucNotifyState == taskWAITING_NOTIFICATION )
 8004c3c:	f894 30a8 	ldrb.w	r3, [r4, #168]	@ 0xa8
 8004c40:	b2db      	uxtb	r3, r3
 8004c42:	2b01      	cmp	r3, #1
 8004c44:	d001      	beq.n	8004c4a <eTaskGetState+0x62>
								eReturn = eSuspended;
 8004c46:	2003      	movs	r0, #3
 8004c48:	e004      	b.n	8004c54 <eTaskGetState+0x6c>
								eReturn = eBlocked;
 8004c4a:	2002      	movs	r0, #2
 8004c4c:	e002      	b.n	8004c54 <eTaskGetState+0x6c>
					eReturn = eDeleted;
 8004c4e:	2004      	movs	r0, #4
 8004c50:	e000      	b.n	8004c54 <eTaskGetState+0x6c>
			eReturn = eRunning;
 8004c52:	2000      	movs	r0, #0
	} /*lint !e818 xTask cannot be a pointer to const because it is a typedef. */
 8004c54:	bdf8      	pop	{r3, r4, r5, r6, r7, pc}
				eReturn = eBlocked;
 8004c56:	2002      	movs	r0, #2
 8004c58:	e7fc      	b.n	8004c54 <eTaskGetState+0x6c>
 8004c5a:	2002      	movs	r0, #2
 8004c5c:	e7fa      	b.n	8004c54 <eTaskGetState+0x6c>
					eReturn = eDeleted;
 8004c5e:	2004      	movs	r0, #4
 8004c60:	e7f8      	b.n	8004c54 <eTaskGetState+0x6c>
 8004c62:	bf00      	nop
 8004c64:	20001350 	.word	0x20001350
 8004c68:	20000ec4 	.word	0x20000ec4
 8004c6c:	20000ec0 	.word	0x20000ec0
 8004c70:	20000e80 	.word	0x20000e80
 8004c74:	20000e98 	.word	0x20000e98

08004c78 <vTaskStartScheduler>:
{
 8004c78:	b510      	push	{r4, lr}
 8004c7a:	b088      	sub	sp, #32
		StaticTask_t *pxIdleTaskTCBBuffer = NULL;
 8004c7c:	2400      	movs	r4, #0
 8004c7e:	9405      	str	r4, [sp, #20]
		StackType_t *pxIdleTaskStackBuffer = NULL;
 8004c80:	9406      	str	r4, [sp, #24]
		vApplicationGetIdleTaskMemory( &pxIdleTaskTCBBuffer, &pxIdleTaskStackBuffer, &ulIdleTaskStackSize );
 8004c82:	aa07      	add	r2, sp, #28
 8004c84:	a906      	add	r1, sp, #24
 8004c86:	a805      	add	r0, sp, #20
 8004c88:	f7fe ff66 	bl	8003b58 <vApplicationGetIdleTaskMemory>
		xIdleTaskHandle = xTaskCreateStatic(	prvIdleTask,
 8004c8c:	9b05      	ldr	r3, [sp, #20]
 8004c8e:	9302      	str	r3, [sp, #8]
 8004c90:	9b06      	ldr	r3, [sp, #24]
 8004c92:	9301      	str	r3, [sp, #4]
 8004c94:	9400      	str	r4, [sp, #0]
 8004c96:	4623      	mov	r3, r4
 8004c98:	9a07      	ldr	r2, [sp, #28]
 8004c9a:	491b      	ldr	r1, [pc, #108]	@ (8004d08 <vTaskStartScheduler+0x90>)
 8004c9c:	481b      	ldr	r0, [pc, #108]	@ (8004d0c <vTaskStartScheduler+0x94>)
 8004c9e:	f7ff ff35 	bl	8004b0c <xTaskCreateStatic>
 8004ca2:	4b1b      	ldr	r3, [pc, #108]	@ (8004d10 <vTaskStartScheduler+0x98>)
 8004ca4:	6018      	str	r0, [r3, #0]
		if( xIdleTaskHandle != NULL )
 8004ca6:	b1f8      	cbz	r0, 8004ce8 <vTaskStartScheduler+0x70>
			xReturn = xTimerCreateTimerTask();
 8004ca8:	f000 fcf4 	bl	8005694 <xTimerCreateTimerTask>
	if( xReturn == pdPASS )
 8004cac:	2801      	cmp	r0, #1
 8004cae:	d11c      	bne.n	8004cea <vTaskStartScheduler+0x72>
 8004cb0:	f04f 0350 	mov.w	r3, #80	@ 0x50
 8004cb4:	f383 8811 	msr	BASEPRI, r3
 8004cb8:	f3bf 8f6f 	isb	sy
 8004cbc:	f3bf 8f4f 	dsb	sy
			_impure_ptr = &( pxCurrentTCB->xNewLib_reent );
 8004cc0:	4b14      	ldr	r3, [pc, #80]	@ (8004d14 <vTaskStartScheduler+0x9c>)
 8004cc2:	681b      	ldr	r3, [r3, #0]
 8004cc4:	3358      	adds	r3, #88	@ 0x58
 8004cc6:	4a14      	ldr	r2, [pc, #80]	@ (8004d18 <vTaskStartScheduler+0xa0>)
 8004cc8:	6013      	str	r3, [r2, #0]
		xNextTaskUnblockTime = portMAX_DELAY;
 8004cca:	4b14      	ldr	r3, [pc, #80]	@ (8004d1c <vTaskStartScheduler+0xa4>)
 8004ccc:	f04f 32ff 	mov.w	r2, #4294967295	@ 0xffffffff
 8004cd0:	601a      	str	r2, [r3, #0]
		xSchedulerRunning = pdTRUE;
 8004cd2:	4b13      	ldr	r3, [pc, #76]	@ (8004d20 <vTaskStartScheduler+0xa8>)
 8004cd4:	2201      	movs	r2, #1
 8004cd6:	601a      	str	r2, [r3, #0]
		xTickCount = ( TickType_t ) configINITIAL_TICK_COUNT;
 8004cd8:	4b12      	ldr	r3, [pc, #72]	@ (8004d24 <vTaskStartScheduler+0xac>)
 8004cda:	2200      	movs	r2, #0
 8004cdc:	601a      	str	r2, [r3, #0]
		portCONFIGURE_TIMER_FOR_RUN_TIME_STATS();
 8004cde:	f7fc fbeb 	bl	80014b8 <configureTimerForRunTimeStats>
		if( xPortStartScheduler() != pdFALSE )
 8004ce2:	f000 ff99 	bl	8005c18 <xPortStartScheduler>
 8004ce6:	e003      	b.n	8004cf0 <vTaskStartScheduler+0x78>
			xReturn = pdFAIL;
 8004ce8:	2000      	movs	r0, #0
		configASSERT( xReturn != errCOULD_NOT_ALLOCATE_REQUIRED_MEMORY );
 8004cea:	f1b0 3fff 	cmp.w	r0, #4294967295	@ 0xffffffff
 8004cee:	d001      	beq.n	8004cf4 <vTaskStartScheduler+0x7c>
}
 8004cf0:	b008      	add	sp, #32
 8004cf2:	bd10      	pop	{r4, pc}
 8004cf4:	f04f 0350 	mov.w	r3, #80	@ 0x50
 8004cf8:	f383 8811 	msr	BASEPRI, r3
 8004cfc:	f3bf 8f6f 	isb	sy
 8004d00:	f3bf 8f4f 	dsb	sy
		configASSERT( xReturn != errCOULD_NOT_ALLOCATE_REQUIRED_MEMORY );
 8004d04:	e7fe      	b.n	8004d04 <vTaskStartScheduler+0x8c>
 8004d06:	bf00      	nop
 8004d08:	08008ed8 	.word	0x08008ed8
 8004d0c:	08004a69 	.word	0x08004a69
 8004d10:	20000e58 	.word	0x20000e58
 8004d14:	20001350 	.word	0x20001350
 8004d18:	2000003c 	.word	0x2000003c
 8004d1c:	20000e5c 	.word	0x20000e5c
 8004d20:	20000e70 	.word	0x20000e70
 8004d24:	20000e78 	.word	0x20000e78

08004d28 <vTaskSuspendAll>:
	++uxSchedulerSuspended;
 8004d28:	4a02      	ldr	r2, [pc, #8]	@ (8004d34 <vTaskSuspendAll+0xc>)
 8004d2a:	6813      	ldr	r3, [r2, #0]
 8004d2c:	3301      	adds	r3, #1
 8004d2e:	6013      	str	r3, [r2, #0]
}
 8004d30:	4770      	bx	lr
 8004d32:	bf00      	nop
 8004d34:	20000e54 	.word	0x20000e54

08004d38 <xTaskGetTickCount>:
		xTicks = xTickCount;
 8004d38:	4b01      	ldr	r3, [pc, #4]	@ (8004d40 <xTaskGetTickCount+0x8>)
 8004d3a:	6818      	ldr	r0, [r3, #0]
}
 8004d3c:	4770      	bx	lr
 8004d3e:	bf00      	nop
 8004d40:	20000e78 	.word	0x20000e78

08004d44 <xTaskGetTickCountFromISR>:
{
 8004d44:	b508      	push	{r3, lr}
	portASSERT_IF_INTERRUPT_PRIORITY_INVALID();
 8004d46:	f000 fff3 	bl	8005d30 <vPortValidateInterruptPriority>
		xReturn = xTickCount;
 8004d4a:	4b01      	ldr	r3, [pc, #4]	@ (8004d50 <xTaskGetTickCountFromISR+0xc>)
 8004d4c:	6818      	ldr	r0, [r3, #0]
}
 8004d4e:	bd08      	pop	{r3, pc}
 8004d50:	20000e78 	.word	0x20000e78

08004d54 <uxTaskGetNumberOfTasks>:
	return uxCurrentNumberOfTasks;
 8004d54:	4b01      	ldr	r3, [pc, #4]	@ (8004d5c <uxTaskGetNumberOfTasks+0x8>)
 8004d56:	6818      	ldr	r0, [r3, #0]
}
 8004d58:	4770      	bx	lr
 8004d5a:	bf00      	nop
 8004d5c:	20000e7c 	.word	0x20000e7c

08004d60 <xTaskIncrementTick>:
{
 8004d60:	b5f8      	push	{r3, r4, r5, r6, r7, lr}
	if( uxSchedulerSuspended == ( UBaseType_t ) pdFALSE )
 8004d62:	4b3a      	ldr	r3, [pc, #232]	@ (8004e4c <xTaskIncrementTick+0xec>)
 8004d64:	681b      	ldr	r3, [r3, #0]
 8004d66:	2b00      	cmp	r3, #0
 8004d68:	d169      	bne.n	8004e3e <xTaskIncrementTick+0xde>
		const TickType_t xConstTickCount = xTickCount + ( TickType_t ) 1;
 8004d6a:	4b39      	ldr	r3, [pc, #228]	@ (8004e50 <xTaskIncrementTick+0xf0>)
 8004d6c:	681d      	ldr	r5, [r3, #0]
 8004d6e:	3501      	adds	r5, #1
		xTickCount = xConstTickCount;
 8004d70:	601d      	str	r5, [r3, #0]
		if( xConstTickCount == ( TickType_t ) 0U ) /*lint !e774 'if' does not always evaluate to false as it is looking for an overflow. */
 8004d72:	b9c5      	cbnz	r5, 8004da6 <xTaskIncrementTick+0x46>
			taskSWITCH_DELAYED_LISTS();
 8004d74:	4b37      	ldr	r3, [pc, #220]	@ (8004e54 <xTaskIncrementTick+0xf4>)
 8004d76:	681b      	ldr	r3, [r3, #0]
 8004d78:	681b      	ldr	r3, [r3, #0]
 8004d7a:	b143      	cbz	r3, 8004d8e <xTaskIncrementTick+0x2e>
 8004d7c:	f04f 0350 	mov.w	r3, #80	@ 0x50
 8004d80:	f383 8811 	msr	BASEPRI, r3
 8004d84:	f3bf 8f6f 	isb	sy
 8004d88:	f3bf 8f4f 	dsb	sy
 8004d8c:	e7fe      	b.n	8004d8c <xTaskIncrementTick+0x2c>
 8004d8e:	4a31      	ldr	r2, [pc, #196]	@ (8004e54 <xTaskIncrementTick+0xf4>)
 8004d90:	6811      	ldr	r1, [r2, #0]
 8004d92:	4b31      	ldr	r3, [pc, #196]	@ (8004e58 <xTaskIncrementTick+0xf8>)
 8004d94:	6818      	ldr	r0, [r3, #0]
 8004d96:	6010      	str	r0, [r2, #0]
 8004d98:	6019      	str	r1, [r3, #0]
 8004d9a:	4a30      	ldr	r2, [pc, #192]	@ (8004e5c <xTaskIncrementTick+0xfc>)
 8004d9c:	6813      	ldr	r3, [r2, #0]
 8004d9e:	3301      	adds	r3, #1
 8004da0:	6013      	str	r3, [r2, #0]
 8004da2:	f7ff fd17 	bl	80047d4 <prvResetNextTaskUnblockTime>
		if( xConstTickCount >= xNextTaskUnblockTime )
 8004da6:	4b2e      	ldr	r3, [pc, #184]	@ (8004e60 <xTaskIncrementTick+0x100>)
 8004da8:	681b      	ldr	r3, [r3, #0]
 8004daa:	42ab      	cmp	r3, r5
 8004dac:	d93d      	bls.n	8004e2a <xTaskIncrementTick+0xca>
BaseType_t xSwitchRequired = pdFALSE;
 8004dae:	2700      	movs	r7, #0
			if( listCURRENT_LIST_LENGTH( &( pxReadyTasksLists[ pxCurrentTCB->uxPriority ] ) ) > ( UBaseType_t ) 1 )
 8004db0:	4b2c      	ldr	r3, [pc, #176]	@ (8004e64 <xTaskIncrementTick+0x104>)
 8004db2:	681b      	ldr	r3, [r3, #0]
 8004db4:	6adb      	ldr	r3, [r3, #44]	@ 0x2c
 8004db6:	eb03 0383 	add.w	r3, r3, r3, lsl #2
 8004dba:	009a      	lsls	r2, r3, #2
 8004dbc:	4b2a      	ldr	r3, [pc, #168]	@ (8004e68 <xTaskIncrementTick+0x108>)
 8004dbe:	589b      	ldr	r3, [r3, r2]
 8004dc0:	2b01      	cmp	r3, #1
 8004dc2:	d900      	bls.n	8004dc6 <xTaskIncrementTick+0x66>
				xSwitchRequired = pdTRUE;
 8004dc4:	2701      	movs	r7, #1
			if( xYieldPending != pdFALSE )
 8004dc6:	4b29      	ldr	r3, [pc, #164]	@ (8004e6c <xTaskIncrementTick+0x10c>)
 8004dc8:	681b      	ldr	r3, [r3, #0]
 8004dca:	2b00      	cmp	r3, #0
 8004dcc:	d03c      	beq.n	8004e48 <xTaskIncrementTick+0xe8>
				xSwitchRequired = pdTRUE;
 8004dce:	2701      	movs	r7, #1
	return xSwitchRequired;
 8004dd0:	e03a      	b.n	8004e48 <xTaskIncrementTick+0xe8>
							xSwitchRequired = pdTRUE;
 8004dd2:	2701      	movs	r7, #1
				if( listLIST_IS_EMPTY( pxDelayedTaskList ) != pdFALSE )
 8004dd4:	4b1f      	ldr	r3, [pc, #124]	@ (8004e54 <xTaskIncrementTick+0xf4>)
 8004dd6:	681b      	ldr	r3, [r3, #0]
 8004dd8:	681b      	ldr	r3, [r3, #0]
 8004dda:	b343      	cbz	r3, 8004e2e <xTaskIncrementTick+0xce>
					pxTCB = listGET_OWNER_OF_HEAD_ENTRY( pxDelayedTaskList ); /*lint !e9079 void * is used as this macro is used with timers and co-routines too.  Alignment is known to be fine as the type of the pointer stored and retrieved is the same. */
 8004ddc:	4b1d      	ldr	r3, [pc, #116]	@ (8004e54 <xTaskIncrementTick+0xf4>)
 8004dde:	681b      	ldr	r3, [r3, #0]
 8004de0:	68db      	ldr	r3, [r3, #12]
 8004de2:	68dc      	ldr	r4, [r3, #12]
					xItemValue = listGET_LIST_ITEM_VALUE( &( pxTCB->xStateListItem ) );
 8004de4:	6863      	ldr	r3, [r4, #4]
					if( xConstTickCount < xItemValue )
 8004de6:	429d      	cmp	r5, r3
 8004de8:	d326      	bcc.n	8004e38 <xTaskIncrementTick+0xd8>
					( void ) uxListRemove( &( pxTCB->xStateListItem ) );
 8004dea:	1d26      	adds	r6, r4, #4
 8004dec:	4630      	mov	r0, r6
 8004dee:	f7fe fefd 	bl	8003bec <uxListRemove>
					if( listLIST_ITEM_CONTAINER( &( pxTCB->xEventListItem ) ) != NULL )
 8004df2:	6aa3      	ldr	r3, [r4, #40]	@ 0x28
 8004df4:	b11b      	cbz	r3, 8004dfe <xTaskIncrementTick+0x9e>
						( void ) uxListRemove( &( pxTCB->xEventListItem ) );
 8004df6:	f104 0018 	add.w	r0, r4, #24
 8004dfa:	f7fe fef7 	bl	8003bec <uxListRemove>
					prvAddTaskToReadyList( pxTCB );
 8004dfe:	6ae3      	ldr	r3, [r4, #44]	@ 0x2c
 8004e00:	4a1b      	ldr	r2, [pc, #108]	@ (8004e70 <xTaskIncrementTick+0x110>)
 8004e02:	6812      	ldr	r2, [r2, #0]
 8004e04:	4293      	cmp	r3, r2
 8004e06:	d901      	bls.n	8004e0c <xTaskIncrementTick+0xac>
 8004e08:	4a19      	ldr	r2, [pc, #100]	@ (8004e70 <xTaskIncrementTick+0x110>)
 8004e0a:	6013      	str	r3, [r2, #0]
 8004e0c:	eb03 0383 	add.w	r3, r3, r3, lsl #2
 8004e10:	009a      	lsls	r2, r3, #2
 8004e12:	4631      	mov	r1, r6
 8004e14:	4814      	ldr	r0, [pc, #80]	@ (8004e68 <xTaskIncrementTick+0x108>)
 8004e16:	4410      	add	r0, r2
 8004e18:	f7fe fec4 	bl	8003ba4 <vListInsertEnd>
						if( pxTCB->uxPriority >= pxCurrentTCB->uxPriority )
 8004e1c:	6ae2      	ldr	r2, [r4, #44]	@ 0x2c
 8004e1e:	4b11      	ldr	r3, [pc, #68]	@ (8004e64 <xTaskIncrementTick+0x104>)
 8004e20:	681b      	ldr	r3, [r3, #0]
 8004e22:	6adb      	ldr	r3, [r3, #44]	@ 0x2c
 8004e24:	429a      	cmp	r2, r3
 8004e26:	d2d4      	bcs.n	8004dd2 <xTaskIncrementTick+0x72>
 8004e28:	e7d4      	b.n	8004dd4 <xTaskIncrementTick+0x74>
BaseType_t xSwitchRequired = pdFALSE;
 8004e2a:	2700      	movs	r7, #0
 8004e2c:	e7d2      	b.n	8004dd4 <xTaskIncrementTick+0x74>
					xNextTaskUnblockTime = portMAX_DELAY; /*lint !e961 MISRA exception as the casts are only redundant for some ports. */
 8004e2e:	4b0c      	ldr	r3, [pc, #48]	@ (8004e60 <xTaskIncrementTick+0x100>)
 8004e30:	f04f 32ff 	mov.w	r2, #4294967295	@ 0xffffffff
 8004e34:	601a      	str	r2, [r3, #0]
					break;
 8004e36:	e7bb      	b.n	8004db0 <xTaskIncrementTick+0x50>
						xNextTaskUnblockTime = xItemValue;
 8004e38:	4a09      	ldr	r2, [pc, #36]	@ (8004e60 <xTaskIncrementTick+0x100>)
 8004e3a:	6013      	str	r3, [r2, #0]
						break; /*lint !e9011 Code structure here is deedmed easier to understand with multiple breaks. */
 8004e3c:	e7b8      	b.n	8004db0 <xTaskIncrementTick+0x50>
		++xPendedTicks;
 8004e3e:	4a0d      	ldr	r2, [pc, #52]	@ (8004e74 <xTaskIncrementTick+0x114>)
 8004e40:	6813      	ldr	r3, [r2, #0]
 8004e42:	3301      	adds	r3, #1
 8004e44:	6013      	str	r3, [r2, #0]
BaseType_t xSwitchRequired = pdFALSE;
 8004e46:	2700      	movs	r7, #0
}
 8004e48:	4638      	mov	r0, r7
 8004e4a:	bdf8      	pop	{r3, r4, r5, r6, r7, pc}
 8004e4c:	20000e54 	.word	0x20000e54
 8004e50:	20000e78 	.word	0x20000e78
 8004e54:	20000ec4 	.word	0x20000ec4
 8004e58:	20000ec0 	.word	0x20000ec0
 8004e5c:	20000e64 	.word	0x20000e64
 8004e60:	20000e5c 	.word	0x20000e5c
 8004e64:	20001350 	.word	0x20001350
 8004e68:	20000ef0 	.word	0x20000ef0
 8004e6c:	20000e68 	.word	0x20000e68
 8004e70:	20000e74 	.word	0x20000e74
 8004e74:	20000e6c 	.word	0x20000e6c

08004e78 <xTaskResumeAll>:
{
 8004e78:	b538      	push	{r3, r4, r5, lr}
	configASSERT( uxSchedulerSuspended );
 8004e7a:	4b35      	ldr	r3, [pc, #212]	@ (8004f50 <xTaskResumeAll+0xd8>)
 8004e7c:	681b      	ldr	r3, [r3, #0]
 8004e7e:	b943      	cbnz	r3, 8004e92 <xTaskResumeAll+0x1a>
 8004e80:	f04f 0350 	mov.w	r3, #80	@ 0x50
 8004e84:	f383 8811 	msr	BASEPRI, r3
 8004e88:	f3bf 8f6f 	isb	sy
 8004e8c:	f3bf 8f4f 	dsb	sy
 8004e90:	e7fe      	b.n	8004e90 <xTaskResumeAll+0x18>
	taskENTER_CRITICAL();
 8004e92:	f000 fe27 	bl	8005ae4 <vPortEnterCritical>
		--uxSchedulerSuspended;
 8004e96:	4b2e      	ldr	r3, [pc, #184]	@ (8004f50 <xTaskResumeAll+0xd8>)
 8004e98:	681a      	ldr	r2, [r3, #0]
 8004e9a:	3a01      	subs	r2, #1
 8004e9c:	601a      	str	r2, [r3, #0]
		if( uxSchedulerSuspended == ( UBaseType_t ) pdFALSE )
 8004e9e:	681b      	ldr	r3, [r3, #0]
 8004ea0:	2b00      	cmp	r3, #0
 8004ea2:	d14f      	bne.n	8004f44 <xTaskResumeAll+0xcc>
			if( uxCurrentNumberOfTasks > ( UBaseType_t ) 0U )
 8004ea4:	4b2b      	ldr	r3, [pc, #172]	@ (8004f54 <xTaskResumeAll+0xdc>)
 8004ea6:	681b      	ldr	r3, [r3, #0]
 8004ea8:	b90b      	cbnz	r3, 8004eae <xTaskResumeAll+0x36>
BaseType_t xAlreadyYielded = pdFALSE;
 8004eaa:	2400      	movs	r4, #0
 8004eac:	e04b      	b.n	8004f46 <xTaskResumeAll+0xce>
TCB_t *pxTCB = NULL;
 8004eae:	2400      	movs	r4, #0
				while( listLIST_IS_EMPTY( &xPendingReadyList ) == pdFALSE )
 8004eb0:	4b29      	ldr	r3, [pc, #164]	@ (8004f58 <xTaskResumeAll+0xe0>)
 8004eb2:	681b      	ldr	r3, [r3, #0]
 8004eb4:	b31b      	cbz	r3, 8004efe <xTaskResumeAll+0x86>
					pxTCB = listGET_OWNER_OF_HEAD_ENTRY( ( &xPendingReadyList ) ); /*lint !e9079 void * is used as this macro is used with timers and co-routines too.  Alignment is known to be fine as the type of the pointer stored and retrieved is the same. */
 8004eb6:	4b28      	ldr	r3, [pc, #160]	@ (8004f58 <xTaskResumeAll+0xe0>)
 8004eb8:	68db      	ldr	r3, [r3, #12]
 8004eba:	68dc      	ldr	r4, [r3, #12]
					( void ) uxListRemove( &( pxTCB->xEventListItem ) );
 8004ebc:	f104 0018 	add.w	r0, r4, #24
 8004ec0:	f7fe fe94 	bl	8003bec <uxListRemove>
					( void ) uxListRemove( &( pxTCB->xStateListItem ) );
 8004ec4:	1d25      	adds	r5, r4, #4
 8004ec6:	4628      	mov	r0, r5
 8004ec8:	f7fe fe90 	bl	8003bec <uxListRemove>
					prvAddTaskToReadyList( pxTCB );
 8004ecc:	6ae0      	ldr	r0, [r4, #44]	@ 0x2c
 8004ece:	4b23      	ldr	r3, [pc, #140]	@ (8004f5c <xTaskResumeAll+0xe4>)
 8004ed0:	681b      	ldr	r3, [r3, #0]
 8004ed2:	4298      	cmp	r0, r3
 8004ed4:	d901      	bls.n	8004eda <xTaskResumeAll+0x62>
 8004ed6:	4b21      	ldr	r3, [pc, #132]	@ (8004f5c <xTaskResumeAll+0xe4>)
 8004ed8:	6018      	str	r0, [r3, #0]
 8004eda:	eb00 0080 	add.w	r0, r0, r0, lsl #2
 8004ede:	4629      	mov	r1, r5
 8004ee0:	4b1f      	ldr	r3, [pc, #124]	@ (8004f60 <xTaskResumeAll+0xe8>)
 8004ee2:	eb03 0080 	add.w	r0, r3, r0, lsl #2
 8004ee6:	f7fe fe5d 	bl	8003ba4 <vListInsertEnd>
					if( pxTCB->uxPriority >= pxCurrentTCB->uxPriority )
 8004eea:	6ae2      	ldr	r2, [r4, #44]	@ 0x2c
 8004eec:	4b1d      	ldr	r3, [pc, #116]	@ (8004f64 <xTaskResumeAll+0xec>)
 8004eee:	681b      	ldr	r3, [r3, #0]
 8004ef0:	6adb      	ldr	r3, [r3, #44]	@ 0x2c
 8004ef2:	429a      	cmp	r2, r3
 8004ef4:	d3dc      	bcc.n	8004eb0 <xTaskResumeAll+0x38>
						xYieldPending = pdTRUE;
 8004ef6:	4b1c      	ldr	r3, [pc, #112]	@ (8004f68 <xTaskResumeAll+0xf0>)
 8004ef8:	2201      	movs	r2, #1
 8004efa:	601a      	str	r2, [r3, #0]
 8004efc:	e7d8      	b.n	8004eb0 <xTaskResumeAll+0x38>
				if( pxTCB != NULL )
 8004efe:	b10c      	cbz	r4, 8004f04 <xTaskResumeAll+0x8c>
					prvResetNextTaskUnblockTime();
 8004f00:	f7ff fc68 	bl	80047d4 <prvResetNextTaskUnblockTime>
					TickType_t xPendedCounts = xPendedTicks; /* Non-volatile copy. */
 8004f04:	4b19      	ldr	r3, [pc, #100]	@ (8004f6c <xTaskResumeAll+0xf4>)
 8004f06:	681c      	ldr	r4, [r3, #0]
					if( xPendedCounts > ( TickType_t ) 0U )
 8004f08:	b984      	cbnz	r4, 8004f2c <xTaskResumeAll+0xb4>
				if( xYieldPending != pdFALSE )
 8004f0a:	4b17      	ldr	r3, [pc, #92]	@ (8004f68 <xTaskResumeAll+0xf0>)
 8004f0c:	681c      	ldr	r4, [r3, #0]
 8004f0e:	b1d4      	cbz	r4, 8004f46 <xTaskResumeAll+0xce>
					taskYIELD_IF_USING_PREEMPTION();
 8004f10:	f04f 23e0 	mov.w	r3, #3758153728	@ 0xe000e000
 8004f14:	f04f 5280 	mov.w	r2, #268435456	@ 0x10000000
 8004f18:	f8c3 2d04 	str.w	r2, [r3, #3332]	@ 0xd04
 8004f1c:	f3bf 8f4f 	dsb	sy
 8004f20:	f3bf 8f6f 	isb	sy
						xAlreadyYielded = pdTRUE;
 8004f24:	2401      	movs	r4, #1
 8004f26:	e00e      	b.n	8004f46 <xTaskResumeAll+0xce>
						} while( xPendedCounts > ( TickType_t ) 0U );
 8004f28:	3c01      	subs	r4, #1
 8004f2a:	d007      	beq.n	8004f3c <xTaskResumeAll+0xc4>
							if( xTaskIncrementTick() != pdFALSE )
 8004f2c:	f7ff ff18 	bl	8004d60 <xTaskIncrementTick>
 8004f30:	2800      	cmp	r0, #0
 8004f32:	d0f9      	beq.n	8004f28 <xTaskResumeAll+0xb0>
								xYieldPending = pdTRUE;
 8004f34:	4b0c      	ldr	r3, [pc, #48]	@ (8004f68 <xTaskResumeAll+0xf0>)
 8004f36:	2201      	movs	r2, #1
 8004f38:	601a      	str	r2, [r3, #0]
 8004f3a:	e7f5      	b.n	8004f28 <xTaskResumeAll+0xb0>
						xPendedTicks = 0;
 8004f3c:	4b0b      	ldr	r3, [pc, #44]	@ (8004f6c <xTaskResumeAll+0xf4>)
 8004f3e:	2200      	movs	r2, #0
 8004f40:	601a      	str	r2, [r3, #0]
 8004f42:	e7e2      	b.n	8004f0a <xTaskResumeAll+0x92>
BaseType_t xAlreadyYielded = pdFALSE;
 8004f44:	2400      	movs	r4, #0
	taskEXIT_CRITICAL();
 8004f46:	f000 fdef 	bl	8005b28 <vPortExitCritical>
}
 8004f4a:	4620      	mov	r0, r4
 8004f4c:	bd38      	pop	{r3, r4, r5, pc}
 8004f4e:	bf00      	nop
 8004f50:	20000e54 	.word	0x20000e54
 8004f54:	20000e7c 	.word	0x20000e7c
 8004f58:	20000eac 	.word	0x20000eac
 8004f5c:	20000e74 	.word	0x20000e74
 8004f60:	20000ef0 	.word	0x20000ef0
 8004f64:	20001350 	.word	0x20001350
 8004f68:	20000e68 	.word	0x20000e68
 8004f6c:	20000e6c 	.word	0x20000e6c

08004f70 <vTaskDelay>:
	{
 8004f70:	b510      	push	{r4, lr}
		if( xTicksToDelay > ( TickType_t ) 0U )
 8004f72:	b1a8      	cbz	r0, 8004fa0 <vTaskDelay+0x30>
 8004f74:	4604      	mov	r4, r0
			configASSERT( uxSchedulerSuspended == 0 );
 8004f76:	4b10      	ldr	r3, [pc, #64]	@ (8004fb8 <vTaskDelay+0x48>)
 8004f78:	681b      	ldr	r3, [r3, #0]
 8004f7a:	b143      	cbz	r3, 8004f8e <vTaskDelay+0x1e>
 8004f7c:	f04f 0350 	mov.w	r3, #80	@ 0x50
 8004f80:	f383 8811 	msr	BASEPRI, r3
 8004f84:	f3bf 8f6f 	isb	sy
 8004f88:	f3bf 8f4f 	dsb	sy
 8004f8c:	e7fe      	b.n	8004f8c <vTaskDelay+0x1c>
			vTaskSuspendAll();
 8004f8e:	f7ff fecb 	bl	8004d28 <vTaskSuspendAll>
				prvAddCurrentTaskToDelayedList( xTicksToDelay, pdFALSE );
 8004f92:	2100      	movs	r1, #0
 8004f94:	4620      	mov	r0, r4
 8004f96:	f7ff fd7b 	bl	8004a90 <prvAddCurrentTaskToDelayedList>
			xAlreadyYielded = xTaskResumeAll();
 8004f9a:	f7ff ff6d 	bl	8004e78 <xTaskResumeAll>
		if( xAlreadyYielded == pdFALSE )
 8004f9e:	b948      	cbnz	r0, 8004fb4 <vTaskDelay+0x44>
			portYIELD_WITHIN_API();
 8004fa0:	f04f 23e0 	mov.w	r3, #3758153728	@ 0xe000e000
 8004fa4:	f04f 5280 	mov.w	r2, #268435456	@ 0x10000000
 8004fa8:	f8c3 2d04 	str.w	r2, [r3, #3332]	@ 0xd04
 8004fac:	f3bf 8f4f 	dsb	sy
 8004fb0:	f3bf 8f6f 	isb	sy
	}
 8004fb4:	bd10      	pop	{r4, pc}
 8004fb6:	bf00      	nop
 8004fb8:	20000e54 	.word	0x20000e54

08004fbc <vTaskSwitchContext>:
{
 8004fbc:	b508      	push	{r3, lr}
	if( uxSchedulerSuspended != ( UBaseType_t ) pdFALSE )
 8004fbe:	4b2a      	ldr	r3, [pc, #168]	@ (8005068 <vTaskSwitchContext+0xac>)
 8004fc0:	681b      	ldr	r3, [r3, #0]
 8004fc2:	b11b      	cbz	r3, 8004fcc <vTaskSwitchContext+0x10>
		xYieldPending = pdTRUE;
 8004fc4:	4b29      	ldr	r3, [pc, #164]	@ (800506c <vTaskSwitchContext+0xb0>)
 8004fc6:	2201      	movs	r2, #1
 8004fc8:	601a      	str	r2, [r3, #0]
}
 8004fca:	bd08      	pop	{r3, pc}
		xYieldPending = pdFALSE;
 8004fcc:	4b27      	ldr	r3, [pc, #156]	@ (800506c <vTaskSwitchContext+0xb0>)
 8004fce:	2200      	movs	r2, #0
 8004fd0:	601a      	str	r2, [r3, #0]
				ulTotalRunTime = portGET_RUN_TIME_COUNTER_VALUE();
 8004fd2:	f7fc fa7d 	bl	80014d0 <getRunTimeCounterValue>
 8004fd6:	4b26      	ldr	r3, [pc, #152]	@ (8005070 <vTaskSwitchContext+0xb4>)
 8004fd8:	6018      	str	r0, [r3, #0]
			if( ulTotalRunTime > ulTaskSwitchedInTime )
 8004fda:	4b26      	ldr	r3, [pc, #152]	@ (8005074 <vTaskSwitchContext+0xb8>)
 8004fdc:	681b      	ldr	r3, [r3, #0]
 8004fde:	4298      	cmp	r0, r3
 8004fe0:	d905      	bls.n	8004fee <vTaskSwitchContext+0x32>
				pxCurrentTCB->ulRunTimeCounter += ( ulTotalRunTime - ulTaskSwitchedInTime );
 8004fe2:	4a25      	ldr	r2, [pc, #148]	@ (8005078 <vTaskSwitchContext+0xbc>)
 8004fe4:	6811      	ldr	r1, [r2, #0]
 8004fe6:	6d4a      	ldr	r2, [r1, #84]	@ 0x54
 8004fe8:	1ac3      	subs	r3, r0, r3
 8004fea:	441a      	add	r2, r3
 8004fec:	654a      	str	r2, [r1, #84]	@ 0x54
			ulTaskSwitchedInTime = ulTotalRunTime;
 8004fee:	4b21      	ldr	r3, [pc, #132]	@ (8005074 <vTaskSwitchContext+0xb8>)
 8004ff0:	6018      	str	r0, [r3, #0]
		taskSELECT_HIGHEST_PRIORITY_TASK(); /*lint !e9079 void * is used as this macro is used with timers and co-routines too.  Alignment is known to be fine as the type of the pointer stored and retrieved is the same. */
 8004ff2:	4b22      	ldr	r3, [pc, #136]	@ (800507c <vTaskSwitchContext+0xc0>)
 8004ff4:	681b      	ldr	r3, [r3, #0]
 8004ff6:	eb03 0283 	add.w	r2, r3, r3, lsl #2
 8004ffa:	0092      	lsls	r2, r2, #2
 8004ffc:	4920      	ldr	r1, [pc, #128]	@ (8005080 <vTaskSwitchContext+0xc4>)
 8004ffe:	588a      	ldr	r2, [r1, r2]
 8005000:	b95a      	cbnz	r2, 800501a <vTaskSwitchContext+0x5e>
 8005002:	b10b      	cbz	r3, 8005008 <vTaskSwitchContext+0x4c>
 8005004:	3b01      	subs	r3, #1
 8005006:	e7f6      	b.n	8004ff6 <vTaskSwitchContext+0x3a>
 8005008:	f04f 0350 	mov.w	r3, #80	@ 0x50
 800500c:	f383 8811 	msr	BASEPRI, r3
 8005010:	f3bf 8f6f 	isb	sy
 8005014:	f3bf 8f4f 	dsb	sy
 8005018:	e7fe      	b.n	8005018 <vTaskSwitchContext+0x5c>
 800501a:	4608      	mov	r0, r1
 800501c:	eb03 0283 	add.w	r2, r3, r3, lsl #2
 8005020:	eb01 0282 	add.w	r2, r1, r2, lsl #2
 8005024:	6851      	ldr	r1, [r2, #4]
 8005026:	6849      	ldr	r1, [r1, #4]
 8005028:	6051      	str	r1, [r2, #4]
 800502a:	eb03 0283 	add.w	r2, r3, r3, lsl #2
 800502e:	0092      	lsls	r2, r2, #2
 8005030:	3208      	adds	r2, #8
 8005032:	4402      	add	r2, r0
 8005034:	4291      	cmp	r1, r2
 8005036:	d00f      	beq.n	8005058 <vTaskSwitchContext+0x9c>
 8005038:	eb03 0183 	add.w	r1, r3, r3, lsl #2
 800503c:	4a10      	ldr	r2, [pc, #64]	@ (8005080 <vTaskSwitchContext+0xc4>)
 800503e:	eb02 0281 	add.w	r2, r2, r1, lsl #2
 8005042:	6852      	ldr	r2, [r2, #4]
 8005044:	68d1      	ldr	r1, [r2, #12]
 8005046:	4a0c      	ldr	r2, [pc, #48]	@ (8005078 <vTaskSwitchContext+0xbc>)
 8005048:	6011      	str	r1, [r2, #0]
 800504a:	490c      	ldr	r1, [pc, #48]	@ (800507c <vTaskSwitchContext+0xc0>)
 800504c:	600b      	str	r3, [r1, #0]
			_impure_ptr = &( pxCurrentTCB->xNewLib_reent );
 800504e:	6813      	ldr	r3, [r2, #0]
 8005050:	3358      	adds	r3, #88	@ 0x58
 8005052:	4a0c      	ldr	r2, [pc, #48]	@ (8005084 <vTaskSwitchContext+0xc8>)
 8005054:	6013      	str	r3, [r2, #0]
}
 8005056:	e7b8      	b.n	8004fca <vTaskSwitchContext+0xe>
		taskSELECT_HIGHEST_PRIORITY_TASK(); /*lint !e9079 void * is used as this macro is used with timers and co-routines too.  Alignment is known to be fine as the type of the pointer stored and retrieved is the same. */
 8005058:	6848      	ldr	r0, [r1, #4]
 800505a:	eb03 0183 	add.w	r1, r3, r3, lsl #2
 800505e:	4a08      	ldr	r2, [pc, #32]	@ (8005080 <vTaskSwitchContext+0xc4>)
 8005060:	eb02 0281 	add.w	r2, r2, r1, lsl #2
 8005064:	6050      	str	r0, [r2, #4]
 8005066:	e7e7      	b.n	8005038 <vTaskSwitchContext+0x7c>
 8005068:	20000e54 	.word	0x20000e54
 800506c:	20000e68 	.word	0x20000e68
 8005070:	20000e4c 	.word	0x20000e4c
 8005074:	20000e50 	.word	0x20000e50
 8005078:	20001350 	.word	0x20001350
 800507c:	20000e74 	.word	0x20000e74
 8005080:	20000ef0 	.word	0x20000ef0
 8005084:	2000003c 	.word	0x2000003c

08005088 <vTaskPlaceOnEventList>:
	configASSERT( pxEventList );
 8005088:	b158      	cbz	r0, 80050a2 <vTaskPlaceOnEventList+0x1a>
{
 800508a:	b510      	push	{r4, lr}
 800508c:	460c      	mov	r4, r1
	vListInsert( pxEventList, &( pxCurrentTCB->xEventListItem ) );
 800508e:	4a09      	ldr	r2, [pc, #36]	@ (80050b4 <vTaskPlaceOnEventList+0x2c>)
 8005090:	6811      	ldr	r1, [r2, #0]
 8005092:	3118      	adds	r1, #24
 8005094:	f7fe fd91 	bl	8003bba <vListInsert>
	prvAddCurrentTaskToDelayedList( xTicksToWait, pdTRUE );
 8005098:	2101      	movs	r1, #1
 800509a:	4620      	mov	r0, r4
 800509c:	f7ff fcf8 	bl	8004a90 <prvAddCurrentTaskToDelayedList>
}
 80050a0:	bd10      	pop	{r4, pc}
 80050a2:	f04f 0350 	mov.w	r3, #80	@ 0x50
 80050a6:	f383 8811 	msr	BASEPRI, r3
 80050aa:	f3bf 8f6f 	isb	sy
 80050ae:	f3bf 8f4f 	dsb	sy
	configASSERT( pxEventList );
 80050b2:	e7fe      	b.n	80050b2 <vTaskPlaceOnEventList+0x2a>
 80050b4:	20001350 	.word	0x20001350

080050b8 <vTaskPlaceOnEventListRestricted>:
	{
 80050b8:	b538      	push	{r3, r4, r5, lr}
		configASSERT( pxEventList );
 80050ba:	b170      	cbz	r0, 80050da <vTaskPlaceOnEventListRestricted+0x22>
 80050bc:	460d      	mov	r5, r1
 80050be:	4614      	mov	r4, r2
		vListInsertEnd( pxEventList, &( pxCurrentTCB->xEventListItem ) );
 80050c0:	4a0a      	ldr	r2, [pc, #40]	@ (80050ec <vTaskPlaceOnEventListRestricted+0x34>)
 80050c2:	6811      	ldr	r1, [r2, #0]
 80050c4:	3118      	adds	r1, #24
 80050c6:	f7fe fd6d 	bl	8003ba4 <vListInsertEnd>
		if( xWaitIndefinitely != pdFALSE )
 80050ca:	b10c      	cbz	r4, 80050d0 <vTaskPlaceOnEventListRestricted+0x18>
			xTicksToWait = portMAX_DELAY;
 80050cc:	f04f 35ff 	mov.w	r5, #4294967295	@ 0xffffffff
		prvAddCurrentTaskToDelayedList( xTicksToWait, xWaitIndefinitely );
 80050d0:	4621      	mov	r1, r4
 80050d2:	4628      	mov	r0, r5
 80050d4:	f7ff fcdc 	bl	8004a90 <prvAddCurrentTaskToDelayedList>
	}
 80050d8:	bd38      	pop	{r3, r4, r5, pc}
 80050da:	f04f 0350 	mov.w	r3, #80	@ 0x50
 80050de:	f383 8811 	msr	BASEPRI, r3
 80050e2:	f3bf 8f6f 	isb	sy
 80050e6:	f3bf 8f4f 	dsb	sy
		configASSERT( pxEventList );
 80050ea:	e7fe      	b.n	80050ea <vTaskPlaceOnEventListRestricted+0x32>
 80050ec:	20001350 	.word	0x20001350

080050f0 <xTaskRemoveFromEventList>:
{
 80050f0:	b538      	push	{r3, r4, r5, lr}
	pxUnblockedTCB = listGET_OWNER_OF_HEAD_ENTRY( pxEventList ); /*lint !e9079 void * is used as this macro is used with timers and co-routines too.  Alignment is known to be fine as the type of the pointer stored and retrieved is the same. */
 80050f2:	68c3      	ldr	r3, [r0, #12]
 80050f4:	68dc      	ldr	r4, [r3, #12]
	configASSERT( pxUnblockedTCB );
 80050f6:	b324      	cbz	r4, 8005142 <xTaskRemoveFromEventList+0x52>
	( void ) uxListRemove( &( pxUnblockedTCB->xEventListItem ) );
 80050f8:	f104 0518 	add.w	r5, r4, #24
 80050fc:	4628      	mov	r0, r5
 80050fe:	f7fe fd75 	bl	8003bec <uxListRemove>
	if( uxSchedulerSuspended == ( UBaseType_t ) pdFALSE )
 8005102:	4b18      	ldr	r3, [pc, #96]	@ (8005164 <xTaskRemoveFromEventList+0x74>)
 8005104:	681b      	ldr	r3, [r3, #0]
 8005106:	bb2b      	cbnz	r3, 8005154 <xTaskRemoveFromEventList+0x64>
		( void ) uxListRemove( &( pxUnblockedTCB->xStateListItem ) );
 8005108:	1d25      	adds	r5, r4, #4
 800510a:	4628      	mov	r0, r5
 800510c:	f7fe fd6e 	bl	8003bec <uxListRemove>
		prvAddTaskToReadyList( pxUnblockedTCB );
 8005110:	6ae0      	ldr	r0, [r4, #44]	@ 0x2c
 8005112:	4b15      	ldr	r3, [pc, #84]	@ (8005168 <xTaskRemoveFromEventList+0x78>)
 8005114:	681b      	ldr	r3, [r3, #0]
 8005116:	4298      	cmp	r0, r3
 8005118:	d901      	bls.n	800511e <xTaskRemoveFromEventList+0x2e>
 800511a:	4b13      	ldr	r3, [pc, #76]	@ (8005168 <xTaskRemoveFromEventList+0x78>)
 800511c:	6018      	str	r0, [r3, #0]
 800511e:	eb00 0080 	add.w	r0, r0, r0, lsl #2
 8005122:	4629      	mov	r1, r5
 8005124:	4b11      	ldr	r3, [pc, #68]	@ (800516c <xTaskRemoveFromEventList+0x7c>)
 8005126:	eb03 0080 	add.w	r0, r3, r0, lsl #2
 800512a:	f7fe fd3b 	bl	8003ba4 <vListInsertEnd>
	if( pxUnblockedTCB->uxPriority > pxCurrentTCB->uxPriority )
 800512e:	6ae2      	ldr	r2, [r4, #44]	@ 0x2c
 8005130:	4b0f      	ldr	r3, [pc, #60]	@ (8005170 <xTaskRemoveFromEventList+0x80>)
 8005132:	681b      	ldr	r3, [r3, #0]
 8005134:	6adb      	ldr	r3, [r3, #44]	@ 0x2c
 8005136:	429a      	cmp	r2, r3
 8005138:	d911      	bls.n	800515e <xTaskRemoveFromEventList+0x6e>
		xYieldPending = pdTRUE;
 800513a:	2001      	movs	r0, #1
 800513c:	4b0d      	ldr	r3, [pc, #52]	@ (8005174 <xTaskRemoveFromEventList+0x84>)
 800513e:	6018      	str	r0, [r3, #0]
}
 8005140:	bd38      	pop	{r3, r4, r5, pc}
 8005142:	f04f 0350 	mov.w	r3, #80	@ 0x50
 8005146:	f383 8811 	msr	BASEPRI, r3
 800514a:	f3bf 8f6f 	isb	sy
 800514e:	f3bf 8f4f 	dsb	sy
	configASSERT( pxUnblockedTCB );
 8005152:	e7fe      	b.n	8005152 <xTaskRemoveFromEventList+0x62>
		vListInsertEnd( &( xPendingReadyList ), &( pxUnblockedTCB->xEventListItem ) );
 8005154:	4629      	mov	r1, r5
 8005156:	4808      	ldr	r0, [pc, #32]	@ (8005178 <xTaskRemoveFromEventList+0x88>)
 8005158:	f7fe fd24 	bl	8003ba4 <vListInsertEnd>
 800515c:	e7e7      	b.n	800512e <xTaskRemoveFromEventList+0x3e>
		xReturn = pdFALSE;
 800515e:	2000      	movs	r0, #0
	return xReturn;
 8005160:	e7ee      	b.n	8005140 <xTaskRemoveFromEventList+0x50>
 8005162:	bf00      	nop
 8005164:	20000e54 	.word	0x20000e54
 8005168:	20000e74 	.word	0x20000e74
 800516c:	20000ef0 	.word	0x20000ef0
 8005170:	20001350 	.word	0x20001350
 8005174:	20000e68 	.word	0x20000e68
 8005178:	20000eac 	.word	0x20000eac

0800517c <vTaskInternalSetTimeOutState>:
	pxTimeOut->xOverflowCount = xNumOfOverflows;
 800517c:	4b03      	ldr	r3, [pc, #12]	@ (800518c <vTaskInternalSetTimeOutState+0x10>)
 800517e:	681b      	ldr	r3, [r3, #0]
 8005180:	6003      	str	r3, [r0, #0]
	pxTimeOut->xTimeOnEntering = xTickCount;
 8005182:	4b03      	ldr	r3, [pc, #12]	@ (8005190 <vTaskInternalSetTimeOutState+0x14>)
 8005184:	681b      	ldr	r3, [r3, #0]
 8005186:	6043      	str	r3, [r0, #4]
}
 8005188:	4770      	bx	lr
 800518a:	bf00      	nop
 800518c:	20000e64 	.word	0x20000e64
 8005190:	20000e78 	.word	0x20000e78

08005194 <xTaskCheckForTimeOut>:
{
 8005194:	b5f8      	push	{r3, r4, r5, r6, r7, lr}
	configASSERT( pxTimeOut );
 8005196:	b1c8      	cbz	r0, 80051cc <xTaskCheckForTimeOut+0x38>
 8005198:	460c      	mov	r4, r1
 800519a:	4605      	mov	r5, r0
	configASSERT( pxTicksToWait );
 800519c:	b1f9      	cbz	r1, 80051de <xTaskCheckForTimeOut+0x4a>
	taskENTER_CRITICAL();
 800519e:	f000 fca1 	bl	8005ae4 <vPortEnterCritical>
		const TickType_t xConstTickCount = xTickCount;
 80051a2:	4b1b      	ldr	r3, [pc, #108]	@ (8005210 <xTaskCheckForTimeOut+0x7c>)
 80051a4:	6819      	ldr	r1, [r3, #0]
		const TickType_t xElapsedTime = xConstTickCount - pxTimeOut->xTimeOnEntering;
 80051a6:	686b      	ldr	r3, [r5, #4]
 80051a8:	1ac8      	subs	r0, r1, r3
			if( *pxTicksToWait == portMAX_DELAY )
 80051aa:	6822      	ldr	r2, [r4, #0]
 80051ac:	f1b2 3fff 	cmp.w	r2, #4294967295	@ 0xffffffff
 80051b0:	d026      	beq.n	8005200 <xTaskCheckForTimeOut+0x6c>
		if( ( xNumOfOverflows != pxTimeOut->xOverflowCount ) && ( xConstTickCount >= pxTimeOut->xTimeOnEntering ) ) /*lint !e525 Indentation preferred as is to make code within pre-processor directives clearer. */
 80051b2:	4e18      	ldr	r6, [pc, #96]	@ (8005214 <xTaskCheckForTimeOut+0x80>)
 80051b4:	6836      	ldr	r6, [r6, #0]
 80051b6:	682f      	ldr	r7, [r5, #0]
 80051b8:	42b7      	cmp	r7, r6
 80051ba:	d001      	beq.n	80051c0 <xTaskCheckForTimeOut+0x2c>
 80051bc:	428b      	cmp	r3, r1
 80051be:	d924      	bls.n	800520a <xTaskCheckForTimeOut+0x76>
		else if( xElapsedTime < *pxTicksToWait ) /*lint !e961 Explicit casting is only redundant with some compilers, whereas others require it to prevent integer conversion errors. */
 80051c0:	4282      	cmp	r2, r0
 80051c2:	d815      	bhi.n	80051f0 <xTaskCheckForTimeOut+0x5c>
			*pxTicksToWait = 0;
 80051c4:	2300      	movs	r3, #0
 80051c6:	6023      	str	r3, [r4, #0]
			xReturn = pdTRUE;
 80051c8:	2401      	movs	r4, #1
 80051ca:	e01a      	b.n	8005202 <xTaskCheckForTimeOut+0x6e>
 80051cc:	f04f 0350 	mov.w	r3, #80	@ 0x50
 80051d0:	f383 8811 	msr	BASEPRI, r3
 80051d4:	f3bf 8f6f 	isb	sy
 80051d8:	f3bf 8f4f 	dsb	sy
	configASSERT( pxTimeOut );
 80051dc:	e7fe      	b.n	80051dc <xTaskCheckForTimeOut+0x48>
 80051de:	f04f 0350 	mov.w	r3, #80	@ 0x50
 80051e2:	f383 8811 	msr	BASEPRI, r3
 80051e6:	f3bf 8f6f 	isb	sy
 80051ea:	f3bf 8f4f 	dsb	sy
	configASSERT( pxTicksToWait );
 80051ee:	e7fe      	b.n	80051ee <xTaskCheckForTimeOut+0x5a>
			*pxTicksToWait -= xElapsedTime;
 80051f0:	1a5b      	subs	r3, r3, r1
 80051f2:	4413      	add	r3, r2
 80051f4:	6023      	str	r3, [r4, #0]
			vTaskInternalSetTimeOutState( pxTimeOut );
 80051f6:	4628      	mov	r0, r5
 80051f8:	f7ff ffc0 	bl	800517c <vTaskInternalSetTimeOutState>
			xReturn = pdFALSE;
 80051fc:	2400      	movs	r4, #0
 80051fe:	e000      	b.n	8005202 <xTaskCheckForTimeOut+0x6e>
				xReturn = pdFALSE;
 8005200:	2400      	movs	r4, #0
	taskEXIT_CRITICAL();
 8005202:	f000 fc91 	bl	8005b28 <vPortExitCritical>
}
 8005206:	4620      	mov	r0, r4
 8005208:	bdf8      	pop	{r3, r4, r5, r6, r7, pc}
			xReturn = pdTRUE;
 800520a:	2401      	movs	r4, #1
 800520c:	e7f9      	b.n	8005202 <xTaskCheckForTimeOut+0x6e>
 800520e:	bf00      	nop
 8005210:	20000e78 	.word	0x20000e78
 8005214:	20000e64 	.word	0x20000e64

08005218 <vTaskMissedYield>:
	xYieldPending = pdTRUE;
 8005218:	4b01      	ldr	r3, [pc, #4]	@ (8005220 <vTaskMissedYield+0x8>)
 800521a:	2201      	movs	r2, #1
 800521c:	601a      	str	r2, [r3, #0]
}
 800521e:	4770      	bx	lr
 8005220:	20000e68 	.word	0x20000e68

08005224 <vTaskGetInfo>:
	{
 8005224:	b570      	push	{r4, r5, r6, lr}
 8005226:	460c      	mov	r4, r1
 8005228:	4616      	mov	r6, r2
		pxTCB = prvGetTCBFromHandle( xTask );
 800522a:	4605      	mov	r5, r0
 800522c:	b1d0      	cbz	r0, 8005264 <vTaskGetInfo+0x40>
		pxTaskStatus->xHandle = ( TaskHandle_t ) pxTCB;
 800522e:	6025      	str	r5, [r4, #0]
		pxTaskStatus->pcTaskName = ( const char * ) &( pxTCB->pcTaskName [ 0 ] );
 8005230:	f105 0234 	add.w	r2, r5, #52	@ 0x34
 8005234:	6062      	str	r2, [r4, #4]
		pxTaskStatus->uxCurrentPriority = pxTCB->uxPriority;
 8005236:	6aea      	ldr	r2, [r5, #44]	@ 0x2c
 8005238:	6122      	str	r2, [r4, #16]
		pxTaskStatus->pxStackBase = pxTCB->pxStack;
 800523a:	6b2a      	ldr	r2, [r5, #48]	@ 0x30
 800523c:	61e2      	str	r2, [r4, #28]
		pxTaskStatus->xTaskNumber = pxTCB->uxTCBNumber;
 800523e:	6c6a      	ldr	r2, [r5, #68]	@ 0x44
 8005240:	60a2      	str	r2, [r4, #8]
			pxTaskStatus->uxBasePriority = pxTCB->uxBasePriority;
 8005242:	6cea      	ldr	r2, [r5, #76]	@ 0x4c
 8005244:	6162      	str	r2, [r4, #20]
			pxTaskStatus->ulRunTimeCounter = pxTCB->ulRunTimeCounter;
 8005246:	6d6a      	ldr	r2, [r5, #84]	@ 0x54
 8005248:	61a2      	str	r2, [r4, #24]
		if( eState != eInvalid )
 800524a:	2b05      	cmp	r3, #5
 800524c:	d019      	beq.n	8005282 <vTaskGetInfo+0x5e>
			if( pxTCB == pxCurrentTCB )
 800524e:	4a12      	ldr	r2, [pc, #72]	@ (8005298 <vTaskGetInfo+0x74>)
 8005250:	6812      	ldr	r2, [r2, #0]
 8005252:	42aa      	cmp	r2, r5
 8005254:	d009      	beq.n	800526a <vTaskGetInfo+0x46>
				pxTaskStatus->eCurrentState = eState;
 8005256:	7323      	strb	r3, [r4, #12]
					if( eState == eSuspended )
 8005258:	2b03      	cmp	r3, #3
 800525a:	d009      	beq.n	8005270 <vTaskGetInfo+0x4c>
		if( xGetFreeStackSpace != pdFALSE )
 800525c:	b9b6      	cbnz	r6, 800528c <vTaskGetInfo+0x68>
			pxTaskStatus->usStackHighWaterMark = 0;
 800525e:	2300      	movs	r3, #0
 8005260:	8423      	strh	r3, [r4, #32]
	}
 8005262:	bd70      	pop	{r4, r5, r6, pc}
		pxTCB = prvGetTCBFromHandle( xTask );
 8005264:	4a0c      	ldr	r2, [pc, #48]	@ (8005298 <vTaskGetInfo+0x74>)
 8005266:	6815      	ldr	r5, [r2, #0]
 8005268:	e7e1      	b.n	800522e <vTaskGetInfo+0xa>
				pxTaskStatus->eCurrentState = eRunning;
 800526a:	2300      	movs	r3, #0
 800526c:	7323      	strb	r3, [r4, #12]
 800526e:	e7f5      	b.n	800525c <vTaskGetInfo+0x38>
						vTaskSuspendAll();
 8005270:	f7ff fd5a 	bl	8004d28 <vTaskSuspendAll>
							if( listLIST_ITEM_CONTAINER( &( pxTCB->xEventListItem ) ) != NULL )
 8005274:	6aab      	ldr	r3, [r5, #40]	@ 0x28
 8005276:	b10b      	cbz	r3, 800527c <vTaskGetInfo+0x58>
								pxTaskStatus->eCurrentState = eBlocked;
 8005278:	2302      	movs	r3, #2
 800527a:	7323      	strb	r3, [r4, #12]
						( void ) xTaskResumeAll();
 800527c:	f7ff fdfc 	bl	8004e78 <xTaskResumeAll>
 8005280:	e7ec      	b.n	800525c <vTaskGetInfo+0x38>
			pxTaskStatus->eCurrentState = eTaskGetState( pxTCB );
 8005282:	4628      	mov	r0, r5
 8005284:	f7ff fcb0 	bl	8004be8 <eTaskGetState>
 8005288:	7320      	strb	r0, [r4, #12]
 800528a:	e7e7      	b.n	800525c <vTaskGetInfo+0x38>
				pxTaskStatus->usStackHighWaterMark = prvTaskCheckFreeStackSpace( ( uint8_t * ) pxTCB->pxStack );
 800528c:	6b28      	ldr	r0, [r5, #48]	@ 0x30
 800528e:	f7ff fa96 	bl	80047be <prvTaskCheckFreeStackSpace>
 8005292:	8420      	strh	r0, [r4, #32]
 8005294:	e7e5      	b.n	8005262 <vTaskGetInfo+0x3e>
 8005296:	bf00      	nop
 8005298:	20001350 	.word	0x20001350

0800529c <prvListTasksWithinSingleList>:
	{
 800529c:	e92d 47f0 	stmdb	sp!, {r4, r5, r6, r7, r8, r9, sl, lr}
		if( listCURRENT_LIST_LENGTH( pxList ) > ( UBaseType_t ) 0 )
 80052a0:	680c      	ldr	r4, [r1, #0]
 80052a2:	b33c      	cbz	r4, 80052f4 <prvListTasksWithinSingleList+0x58>
 80052a4:	4607      	mov	r7, r0
 80052a6:	460d      	mov	r5, r1
 80052a8:	4690      	mov	r8, r2
			listGET_OWNER_OF_NEXT_ENTRY( pxFirstTCB, pxList ); /*lint !e9079 void * is used as this macro is used with timers and co-routines too.  Alignment is known to be fine as the type of the pointer stored and retrieved is the same. */
 80052aa:	684b      	ldr	r3, [r1, #4]
 80052ac:	685b      	ldr	r3, [r3, #4]
 80052ae:	604b      	str	r3, [r1, #4]
 80052b0:	f101 0908 	add.w	r9, r1, #8
 80052b4:	454b      	cmp	r3, r9
 80052b6:	d004      	beq.n	80052c2 <prvListTasksWithinSingleList+0x26>
 80052b8:	686b      	ldr	r3, [r5, #4]
 80052ba:	f8d3 a00c 	ldr.w	sl, [r3, #12]
	UBaseType_t uxTask = 0;
 80052be:	2400      	movs	r4, #0
 80052c0:	e010      	b.n	80052e4 <prvListTasksWithinSingleList+0x48>
			listGET_OWNER_OF_NEXT_ENTRY( pxFirstTCB, pxList ); /*lint !e9079 void * is used as this macro is used with timers and co-routines too.  Alignment is known to be fine as the type of the pointer stored and retrieved is the same. */
 80052c2:	685b      	ldr	r3, [r3, #4]
 80052c4:	604b      	str	r3, [r1, #4]
 80052c6:	e7f7      	b.n	80052b8 <prvListTasksWithinSingleList+0x1c>
				listGET_OWNER_OF_NEXT_ENTRY( pxNextTCB, pxList ); /*lint !e9079 void * is used as this macro is used with timers and co-routines too.  Alignment is known to be fine as the type of the pointer stored and retrieved is the same. */
 80052c8:	686b      	ldr	r3, [r5, #4]
 80052ca:	68de      	ldr	r6, [r3, #12]
				vTaskGetInfo( ( TaskHandle_t ) pxNextTCB, &( pxTaskStatusArray[ uxTask ] ), pdTRUE, eState );
 80052cc:	eb04 01c4 	add.w	r1, r4, r4, lsl #3
 80052d0:	4643      	mov	r3, r8
 80052d2:	2201      	movs	r2, #1
 80052d4:	eb07 0181 	add.w	r1, r7, r1, lsl #2
 80052d8:	4630      	mov	r0, r6
 80052da:	f7ff ffa3 	bl	8005224 <vTaskGetInfo>
				uxTask++;
 80052de:	3401      	adds	r4, #1
			} while( pxNextTCB != pxFirstTCB );
 80052e0:	45b2      	cmp	sl, r6
 80052e2:	d007      	beq.n	80052f4 <prvListTasksWithinSingleList+0x58>
				listGET_OWNER_OF_NEXT_ENTRY( pxNextTCB, pxList ); /*lint !e9079 void * is used as this macro is used with timers and co-routines too.  Alignment is known to be fine as the type of the pointer stored and retrieved is the same. */
 80052e4:	686b      	ldr	r3, [r5, #4]
 80052e6:	6859      	ldr	r1, [r3, #4]
 80052e8:	6069      	str	r1, [r5, #4]
 80052ea:	4589      	cmp	r9, r1
 80052ec:	d1ec      	bne.n	80052c8 <prvListTasksWithinSingleList+0x2c>
 80052ee:	684b      	ldr	r3, [r1, #4]
 80052f0:	606b      	str	r3, [r5, #4]
 80052f2:	e7e9      	b.n	80052c8 <prvListTasksWithinSingleList+0x2c>
	}
 80052f4:	4620      	mov	r0, r4
 80052f6:	e8bd 87f0 	ldmia.w	sp!, {r4, r5, r6, r7, r8, r9, sl, pc}
	...

080052fc <uxTaskGetSystemState>:
	{
 80052fc:	b5f8      	push	{r3, r4, r5, r6, r7, lr}
 80052fe:	4607      	mov	r7, r0
 8005300:	460c      	mov	r4, r1
 8005302:	4616      	mov	r6, r2
		vTaskSuspendAll();
 8005304:	f7ff fd10 	bl	8004d28 <vTaskSuspendAll>
			if( uxArraySize >= uxCurrentNumberOfTasks )
 8005308:	4b22      	ldr	r3, [pc, #136]	@ (8005394 <uxTaskGetSystemState+0x98>)
 800530a:	681b      	ldr	r3, [r3, #0]
 800530c:	42a3      	cmp	r3, r4
 800530e:	d83c      	bhi.n	800538a <uxTaskGetSystemState+0x8e>
	UBaseType_t uxTask = 0, uxQueue = configMAX_PRIORITIES;
 8005310:	2438      	movs	r4, #56	@ 0x38
 8005312:	2500      	movs	r5, #0
					uxQueue--;
 8005314:	3c01      	subs	r4, #1
					uxTask += prvListTasksWithinSingleList( &( pxTaskStatusArray[ uxTask ] ), &( pxReadyTasksLists[ uxQueue ] ), eReady );
 8005316:	eb05 00c5 	add.w	r0, r5, r5, lsl #3
 800531a:	eb04 0184 	add.w	r1, r4, r4, lsl #2
 800531e:	2201      	movs	r2, #1
 8005320:	4b1d      	ldr	r3, [pc, #116]	@ (8005398 <uxTaskGetSystemState+0x9c>)
 8005322:	eb03 0181 	add.w	r1, r3, r1, lsl #2
 8005326:	eb07 0080 	add.w	r0, r7, r0, lsl #2
 800532a:	f7ff ffb7 	bl	800529c <prvListTasksWithinSingleList>
 800532e:	4405      	add	r5, r0
				} while( uxQueue > ( UBaseType_t ) tskIDLE_PRIORITY ); /*lint !e961 MISRA exception as the casts are only redundant for some ports. */
 8005330:	2c00      	cmp	r4, #0
 8005332:	d1ef      	bne.n	8005314 <uxTaskGetSystemState+0x18>
				uxTask += prvListTasksWithinSingleList( &( pxTaskStatusArray[ uxTask ] ), ( List_t * ) pxDelayedTaskList, eBlocked );
 8005334:	eb05 00c5 	add.w	r0, r5, r5, lsl #3
 8005338:	4b18      	ldr	r3, [pc, #96]	@ (800539c <uxTaskGetSystemState+0xa0>)
 800533a:	6819      	ldr	r1, [r3, #0]
 800533c:	2202      	movs	r2, #2
 800533e:	eb07 0080 	add.w	r0, r7, r0, lsl #2
 8005342:	f7ff ffab 	bl	800529c <prvListTasksWithinSingleList>
 8005346:	4405      	add	r5, r0
				uxTask += prvListTasksWithinSingleList( &( pxTaskStatusArray[ uxTask ] ), ( List_t * ) pxOverflowDelayedTaskList, eBlocked );
 8005348:	eb05 00c5 	add.w	r0, r5, r5, lsl #3
 800534c:	4b14      	ldr	r3, [pc, #80]	@ (80053a0 <uxTaskGetSystemState+0xa4>)
 800534e:	6819      	ldr	r1, [r3, #0]
 8005350:	2202      	movs	r2, #2
 8005352:	eb07 0080 	add.w	r0, r7, r0, lsl #2
 8005356:	f7ff ffa1 	bl	800529c <prvListTasksWithinSingleList>
 800535a:	4405      	add	r5, r0
					uxTask += prvListTasksWithinSingleList( &( pxTaskStatusArray[ uxTask ] ), &xTasksWaitingTermination, eDeleted );
 800535c:	eb05 00c5 	add.w	r0, r5, r5, lsl #3
 8005360:	2204      	movs	r2, #4
 8005362:	4910      	ldr	r1, [pc, #64]	@ (80053a4 <uxTaskGetSystemState+0xa8>)
 8005364:	eb07 0080 	add.w	r0, r7, r0, lsl #2
 8005368:	f7ff ff98 	bl	800529c <prvListTasksWithinSingleList>
 800536c:	182c      	adds	r4, r5, r0
					uxTask += prvListTasksWithinSingleList( &( pxTaskStatusArray[ uxTask ] ), &xSuspendedTaskList, eSuspended );
 800536e:	eb04 00c4 	add.w	r0, r4, r4, lsl #3
 8005372:	2203      	movs	r2, #3
 8005374:	490c      	ldr	r1, [pc, #48]	@ (80053a8 <uxTaskGetSystemState+0xac>)
 8005376:	eb07 0080 	add.w	r0, r7, r0, lsl #2
 800537a:	f7ff ff8f 	bl	800529c <prvListTasksWithinSingleList>
 800537e:	4404      	add	r4, r0
					if( pulTotalRunTime != NULL )
 8005380:	b126      	cbz	r6, 800538c <uxTaskGetSystemState+0x90>
							*pulTotalRunTime = portGET_RUN_TIME_COUNTER_VALUE();
 8005382:	f7fc f8a5 	bl	80014d0 <getRunTimeCounterValue>
 8005386:	6030      	str	r0, [r6, #0]
 8005388:	e000      	b.n	800538c <uxTaskGetSystemState+0x90>
	UBaseType_t uxTask = 0, uxQueue = configMAX_PRIORITIES;
 800538a:	2400      	movs	r4, #0
		( void ) xTaskResumeAll();
 800538c:	f7ff fd74 	bl	8004e78 <xTaskResumeAll>
	}
 8005390:	4620      	mov	r0, r4
 8005392:	bdf8      	pop	{r3, r4, r5, r6, r7, pc}
 8005394:	20000e7c 	.word	0x20000e7c
 8005398:	20000ef0 	.word	0x20000ef0
 800539c:	20000ec4 	.word	0x20000ec4
 80053a0:	20000ec0 	.word	0x20000ec0
 80053a4:	20000e98 	.word	0x20000e98
 80053a8:	20000e80 	.word	0x20000e80

080053ac <xTaskGetCurrentTaskHandle>:
		xReturn = pxCurrentTCB;
 80053ac:	4b01      	ldr	r3, [pc, #4]	@ (80053b4 <xTaskGetCurrentTaskHandle+0x8>)
 80053ae:	6818      	ldr	r0, [r3, #0]
	}
 80053b0:	4770      	bx	lr
 80053b2:	bf00      	nop
 80053b4:	20001350 	.word	0x20001350

080053b8 <xTaskGetSchedulerState>:
		if( xSchedulerRunning == pdFALSE )
 80053b8:	4b05      	ldr	r3, [pc, #20]	@ (80053d0 <xTaskGetSchedulerState+0x18>)
 80053ba:	681b      	ldr	r3, [r3, #0]
 80053bc:	b133      	cbz	r3, 80053cc <xTaskGetSchedulerState+0x14>
			if( uxSchedulerSuspended == ( UBaseType_t ) pdFALSE )
 80053be:	4b05      	ldr	r3, [pc, #20]	@ (80053d4 <xTaskGetSchedulerState+0x1c>)
 80053c0:	681b      	ldr	r3, [r3, #0]
 80053c2:	b10b      	cbz	r3, 80053c8 <xTaskGetSchedulerState+0x10>
				xReturn = taskSCHEDULER_SUSPENDED;
 80053c4:	2000      	movs	r0, #0
	}
 80053c6:	4770      	bx	lr
				xReturn = taskSCHEDULER_RUNNING;
 80053c8:	2002      	movs	r0, #2
 80053ca:	4770      	bx	lr
			xReturn = taskSCHEDULER_NOT_STARTED;
 80053cc:	2001      	movs	r0, #1
 80053ce:	4770      	bx	lr
 80053d0:	20000e70 	.word	0x20000e70
 80053d4:	20000e54 	.word	0x20000e54

080053d8 <xTaskPriorityInherit>:
		if( pxMutexHolder != NULL )
 80053d8:	2800      	cmp	r0, #0
 80053da:	d03e      	beq.n	800545a <xTaskPriorityInherit+0x82>
	{
 80053dc:	b538      	push	{r3, r4, r5, lr}
 80053de:	4604      	mov	r4, r0
			if( pxMutexHolderTCB->uxPriority < pxCurrentTCB->uxPriority )
 80053e0:	6ac3      	ldr	r3, [r0, #44]	@ 0x2c
 80053e2:	4a20      	ldr	r2, [pc, #128]	@ (8005464 <xTaskPriorityInherit+0x8c>)
 80053e4:	6812      	ldr	r2, [r2, #0]
 80053e6:	6ad2      	ldr	r2, [r2, #44]	@ 0x2c
 80053e8:	4293      	cmp	r3, r2
 80053ea:	d22e      	bcs.n	800544a <xTaskPriorityInherit+0x72>
				if( ( listGET_LIST_ITEM_VALUE( &( pxMutexHolderTCB->xEventListItem ) ) & taskEVENT_LIST_ITEM_VALUE_IN_USE ) == 0UL )
 80053ec:	6982      	ldr	r2, [r0, #24]
 80053ee:	2a00      	cmp	r2, #0
 80053f0:	db05      	blt.n	80053fe <xTaskPriorityInherit+0x26>
					listSET_LIST_ITEM_VALUE( &( pxMutexHolderTCB->xEventListItem ), ( TickType_t ) configMAX_PRIORITIES - ( TickType_t ) pxCurrentTCB->uxPriority ); /*lint !e961 MISRA exception as the casts are only redundant for some ports. */
 80053f2:	4a1c      	ldr	r2, [pc, #112]	@ (8005464 <xTaskPriorityInherit+0x8c>)
 80053f4:	6812      	ldr	r2, [r2, #0]
 80053f6:	6ad2      	ldr	r2, [r2, #44]	@ 0x2c
 80053f8:	f1c2 0238 	rsb	r2, r2, #56	@ 0x38
 80053fc:	6182      	str	r2, [r0, #24]
				if( listIS_CONTAINED_WITHIN( &( pxReadyTasksLists[ pxMutexHolderTCB->uxPriority ] ), &( pxMutexHolderTCB->xStateListItem ) ) != pdFALSE )
 80053fe:	6961      	ldr	r1, [r4, #20]
 8005400:	eb03 0383 	add.w	r3, r3, r3, lsl #2
 8005404:	4a18      	ldr	r2, [pc, #96]	@ (8005468 <xTaskPriorityInherit+0x90>)
 8005406:	eb02 0383 	add.w	r3, r2, r3, lsl #2
 800540a:	4299      	cmp	r1, r3
 800540c:	d005      	beq.n	800541a <xTaskPriorityInherit+0x42>
					pxMutexHolderTCB->uxPriority = pxCurrentTCB->uxPriority;
 800540e:	4b15      	ldr	r3, [pc, #84]	@ (8005464 <xTaskPriorityInherit+0x8c>)
 8005410:	681b      	ldr	r3, [r3, #0]
 8005412:	6adb      	ldr	r3, [r3, #44]	@ 0x2c
 8005414:	62e3      	str	r3, [r4, #44]	@ 0x2c
				xReturn = pdTRUE;
 8005416:	2001      	movs	r0, #1
	}
 8005418:	bd38      	pop	{r3, r4, r5, pc}
					if( uxListRemove( &( pxMutexHolderTCB->xStateListItem ) ) == ( UBaseType_t ) 0 )
 800541a:	1d25      	adds	r5, r4, #4
 800541c:	4628      	mov	r0, r5
 800541e:	f7fe fbe5 	bl	8003bec <uxListRemove>
					pxMutexHolderTCB->uxPriority = pxCurrentTCB->uxPriority;
 8005422:	4b10      	ldr	r3, [pc, #64]	@ (8005464 <xTaskPriorityInherit+0x8c>)
 8005424:	681b      	ldr	r3, [r3, #0]
 8005426:	6ad8      	ldr	r0, [r3, #44]	@ 0x2c
 8005428:	62e0      	str	r0, [r4, #44]	@ 0x2c
					prvAddTaskToReadyList( pxMutexHolderTCB );
 800542a:	4b10      	ldr	r3, [pc, #64]	@ (800546c <xTaskPriorityInherit+0x94>)
 800542c:	681b      	ldr	r3, [r3, #0]
 800542e:	4298      	cmp	r0, r3
 8005430:	d901      	bls.n	8005436 <xTaskPriorityInherit+0x5e>
 8005432:	4b0e      	ldr	r3, [pc, #56]	@ (800546c <xTaskPriorityInherit+0x94>)
 8005434:	6018      	str	r0, [r3, #0]
 8005436:	eb00 0080 	add.w	r0, r0, r0, lsl #2
 800543a:	4629      	mov	r1, r5
 800543c:	4b0a      	ldr	r3, [pc, #40]	@ (8005468 <xTaskPriorityInherit+0x90>)
 800543e:	eb03 0080 	add.w	r0, r3, r0, lsl #2
 8005442:	f7fe fbaf 	bl	8003ba4 <vListInsertEnd>
				xReturn = pdTRUE;
 8005446:	2001      	movs	r0, #1
 8005448:	e7e6      	b.n	8005418 <xTaskPriorityInherit+0x40>
				if( pxMutexHolderTCB->uxBasePriority < pxCurrentTCB->uxPriority )
 800544a:	6cc2      	ldr	r2, [r0, #76]	@ 0x4c
 800544c:	4b05      	ldr	r3, [pc, #20]	@ (8005464 <xTaskPriorityInherit+0x8c>)
 800544e:	681b      	ldr	r3, [r3, #0]
 8005450:	6adb      	ldr	r3, [r3, #44]	@ 0x2c
 8005452:	429a      	cmp	r2, r3
 8005454:	d303      	bcc.n	800545e <xTaskPriorityInherit+0x86>
	BaseType_t xReturn = pdFALSE;
 8005456:	2000      	movs	r0, #0
 8005458:	e7de      	b.n	8005418 <xTaskPriorityInherit+0x40>
 800545a:	2000      	movs	r0, #0
	}
 800545c:	4770      	bx	lr
					xReturn = pdTRUE;
 800545e:	2001      	movs	r0, #1
		return xReturn;
 8005460:	e7da      	b.n	8005418 <xTaskPriorityInherit+0x40>
 8005462:	bf00      	nop
 8005464:	20001350 	.word	0x20001350
 8005468:	20000ef0 	.word	0x20000ef0
 800546c:	20000e74 	.word	0x20000e74

08005470 <xTaskPriorityDisinherit>:
		if( pxMutexHolder != NULL )
 8005470:	2800      	cmp	r0, #0
 8005472:	d03b      	beq.n	80054ec <xTaskPriorityDisinherit+0x7c>
	{
 8005474:	b538      	push	{r3, r4, r5, lr}
 8005476:	4604      	mov	r4, r0
			configASSERT( pxTCB == pxCurrentTCB );
 8005478:	4b1e      	ldr	r3, [pc, #120]	@ (80054f4 <xTaskPriorityDisinherit+0x84>)
 800547a:	681b      	ldr	r3, [r3, #0]
 800547c:	4283      	cmp	r3, r0
 800547e:	d008      	beq.n	8005492 <xTaskPriorityDisinherit+0x22>
 8005480:	f04f 0350 	mov.w	r3, #80	@ 0x50
 8005484:	f383 8811 	msr	BASEPRI, r3
 8005488:	f3bf 8f6f 	isb	sy
 800548c:	f3bf 8f4f 	dsb	sy
 8005490:	e7fe      	b.n	8005490 <xTaskPriorityDisinherit+0x20>
			configASSERT( pxTCB->uxMutexesHeld );
 8005492:	6d03      	ldr	r3, [r0, #80]	@ 0x50
 8005494:	b943      	cbnz	r3, 80054a8 <xTaskPriorityDisinherit+0x38>
 8005496:	f04f 0350 	mov.w	r3, #80	@ 0x50
 800549a:	f383 8811 	msr	BASEPRI, r3
 800549e:	f3bf 8f6f 	isb	sy
 80054a2:	f3bf 8f4f 	dsb	sy
 80054a6:	e7fe      	b.n	80054a6 <xTaskPriorityDisinherit+0x36>
			( pxTCB->uxMutexesHeld )--;
 80054a8:	3b01      	subs	r3, #1
 80054aa:	6503      	str	r3, [r0, #80]	@ 0x50
			if( pxTCB->uxPriority != pxTCB->uxBasePriority )
 80054ac:	6ac1      	ldr	r1, [r0, #44]	@ 0x2c
 80054ae:	6cc2      	ldr	r2, [r0, #76]	@ 0x4c
 80054b0:	4291      	cmp	r1, r2
 80054b2:	d01d      	beq.n	80054f0 <xTaskPriorityDisinherit+0x80>
				if( pxTCB->uxMutexesHeld == ( UBaseType_t ) 0 )
 80054b4:	b10b      	cbz	r3, 80054ba <xTaskPriorityDisinherit+0x4a>
	BaseType_t xReturn = pdFALSE;
 80054b6:	2000      	movs	r0, #0
	}
 80054b8:	bd38      	pop	{r3, r4, r5, pc}
					if( uxListRemove( &( pxTCB->xStateListItem ) ) == ( UBaseType_t ) 0 )
 80054ba:	1d05      	adds	r5, r0, #4
 80054bc:	4628      	mov	r0, r5
 80054be:	f7fe fb95 	bl	8003bec <uxListRemove>
					pxTCB->uxPriority = pxTCB->uxBasePriority;
 80054c2:	6ce0      	ldr	r0, [r4, #76]	@ 0x4c
 80054c4:	62e0      	str	r0, [r4, #44]	@ 0x2c
					listSET_LIST_ITEM_VALUE( &( pxTCB->xEventListItem ), ( TickType_t ) configMAX_PRIORITIES - ( TickType_t ) pxTCB->uxPriority ); /*lint !e961 MISRA exception as the casts are only redundant for some ports. */
 80054c6:	f1c0 0338 	rsb	r3, r0, #56	@ 0x38
 80054ca:	61a3      	str	r3, [r4, #24]
					prvAddTaskToReadyList( pxTCB );
 80054cc:	4b0a      	ldr	r3, [pc, #40]	@ (80054f8 <xTaskPriorityDisinherit+0x88>)
 80054ce:	681b      	ldr	r3, [r3, #0]
 80054d0:	4298      	cmp	r0, r3
 80054d2:	d901      	bls.n	80054d8 <xTaskPriorityDisinherit+0x68>
 80054d4:	4b08      	ldr	r3, [pc, #32]	@ (80054f8 <xTaskPriorityDisinherit+0x88>)
 80054d6:	6018      	str	r0, [r3, #0]
 80054d8:	eb00 0080 	add.w	r0, r0, r0, lsl #2
 80054dc:	4629      	mov	r1, r5
 80054de:	4b07      	ldr	r3, [pc, #28]	@ (80054fc <xTaskPriorityDisinherit+0x8c>)
 80054e0:	eb03 0080 	add.w	r0, r3, r0, lsl #2
 80054e4:	f7fe fb5e 	bl	8003ba4 <vListInsertEnd>
					xReturn = pdTRUE;
 80054e8:	2001      	movs	r0, #1
 80054ea:	e7e5      	b.n	80054b8 <xTaskPriorityDisinherit+0x48>
	BaseType_t xReturn = pdFALSE;
 80054ec:	2000      	movs	r0, #0
	}
 80054ee:	4770      	bx	lr
	BaseType_t xReturn = pdFALSE;
 80054f0:	2000      	movs	r0, #0
 80054f2:	e7e1      	b.n	80054b8 <xTaskPriorityDisinherit+0x48>
 80054f4:	20001350 	.word	0x20001350
 80054f8:	20000e74 	.word	0x20000e74
 80054fc:	20000ef0 	.word	0x20000ef0

08005500 <vTaskPriorityDisinheritAfterTimeout>:
		if( pxMutexHolder != NULL )
 8005500:	2800      	cmp	r0, #0
 8005502:	d046      	beq.n	8005592 <vTaskPriorityDisinheritAfterTimeout+0x92>
	{
 8005504:	b538      	push	{r3, r4, r5, lr}
 8005506:	4604      	mov	r4, r0
			configASSERT( pxTCB->uxMutexesHeld );
 8005508:	6d03      	ldr	r3, [r0, #80]	@ 0x50
 800550a:	b943      	cbnz	r3, 800551e <vTaskPriorityDisinheritAfterTimeout+0x1e>
 800550c:	f04f 0350 	mov.w	r3, #80	@ 0x50
 8005510:	f383 8811 	msr	BASEPRI, r3
 8005514:	f3bf 8f6f 	isb	sy
 8005518:	f3bf 8f4f 	dsb	sy
 800551c:	e7fe      	b.n	800551c <vTaskPriorityDisinheritAfterTimeout+0x1c>
			if( pxTCB->uxBasePriority < uxHighestPriorityWaitingTask )
 800551e:	6cc2      	ldr	r2, [r0, #76]	@ 0x4c
 8005520:	428a      	cmp	r2, r1
 8005522:	d200      	bcs.n	8005526 <vTaskPriorityDisinheritAfterTimeout+0x26>
				uxPriorityToUse = uxHighestPriorityWaitingTask;
 8005524:	460a      	mov	r2, r1
			if( pxTCB->uxPriority != uxPriorityToUse )
 8005526:	6ae1      	ldr	r1, [r4, #44]	@ 0x2c
 8005528:	4291      	cmp	r1, r2
 800552a:	d001      	beq.n	8005530 <vTaskPriorityDisinheritAfterTimeout+0x30>
				if( pxTCB->uxMutexesHeld == uxOnlyOneMutexHeld )
 800552c:	2b01      	cmp	r3, #1
 800552e:	d000      	beq.n	8005532 <vTaskPriorityDisinheritAfterTimeout+0x32>
	}
 8005530:	bd38      	pop	{r3, r4, r5, pc}
					configASSERT( pxTCB != pxCurrentTCB );
 8005532:	4b18      	ldr	r3, [pc, #96]	@ (8005594 <vTaskPriorityDisinheritAfterTimeout+0x94>)
 8005534:	681b      	ldr	r3, [r3, #0]
 8005536:	42a3      	cmp	r3, r4
 8005538:	d022      	beq.n	8005580 <vTaskPriorityDisinheritAfterTimeout+0x80>
					pxTCB->uxPriority = uxPriorityToUse;
 800553a:	62e2      	str	r2, [r4, #44]	@ 0x2c
					if( ( listGET_LIST_ITEM_VALUE( &( pxTCB->xEventListItem ) ) & taskEVENT_LIST_ITEM_VALUE_IN_USE ) == 0UL )
 800553c:	69a3      	ldr	r3, [r4, #24]
 800553e:	2b00      	cmp	r3, #0
 8005540:	db02      	blt.n	8005548 <vTaskPriorityDisinheritAfterTimeout+0x48>
						listSET_LIST_ITEM_VALUE( &( pxTCB->xEventListItem ), ( TickType_t ) configMAX_PRIORITIES - ( TickType_t ) uxPriorityToUse ); /*lint !e961 MISRA exception as the casts are only redundant for some ports. */
 8005542:	f1c2 0238 	rsb	r2, r2, #56	@ 0x38
 8005546:	61a2      	str	r2, [r4, #24]
					if( listIS_CONTAINED_WITHIN( &( pxReadyTasksLists[ uxPriorityUsedOnEntry ] ), &( pxTCB->xStateListItem ) ) != pdFALSE )
 8005548:	6962      	ldr	r2, [r4, #20]
 800554a:	eb01 0181 	add.w	r1, r1, r1, lsl #2
 800554e:	4b12      	ldr	r3, [pc, #72]	@ (8005598 <vTaskPriorityDisinheritAfterTimeout+0x98>)
 8005550:	eb03 0381 	add.w	r3, r3, r1, lsl #2
 8005554:	429a      	cmp	r2, r3
 8005556:	d1eb      	bne.n	8005530 <vTaskPriorityDisinheritAfterTimeout+0x30>
						if( uxListRemove( &( pxTCB->xStateListItem ) ) == ( UBaseType_t ) 0 )
 8005558:	1d25      	adds	r5, r4, #4
 800555a:	4628      	mov	r0, r5
 800555c:	f7fe fb46 	bl	8003bec <uxListRemove>
						prvAddTaskToReadyList( pxTCB );
 8005560:	6ae0      	ldr	r0, [r4, #44]	@ 0x2c
 8005562:	4b0e      	ldr	r3, [pc, #56]	@ (800559c <vTaskPriorityDisinheritAfterTimeout+0x9c>)
 8005564:	681b      	ldr	r3, [r3, #0]
 8005566:	4298      	cmp	r0, r3
 8005568:	d901      	bls.n	800556e <vTaskPriorityDisinheritAfterTimeout+0x6e>
 800556a:	4b0c      	ldr	r3, [pc, #48]	@ (800559c <vTaskPriorityDisinheritAfterTimeout+0x9c>)
 800556c:	6018      	str	r0, [r3, #0]
 800556e:	eb00 0080 	add.w	r0, r0, r0, lsl #2
 8005572:	4629      	mov	r1, r5
 8005574:	4b08      	ldr	r3, [pc, #32]	@ (8005598 <vTaskPriorityDisinheritAfterTimeout+0x98>)
 8005576:	eb03 0080 	add.w	r0, r3, r0, lsl #2
 800557a:	f7fe fb13 	bl	8003ba4 <vListInsertEnd>
	}
 800557e:	e7d7      	b.n	8005530 <vTaskPriorityDisinheritAfterTimeout+0x30>
 8005580:	f04f 0350 	mov.w	r3, #80	@ 0x50
 8005584:	f383 8811 	msr	BASEPRI, r3
 8005588:	f3bf 8f6f 	isb	sy
 800558c:	f3bf 8f4f 	dsb	sy
					configASSERT( pxTCB != pxCurrentTCB );
 8005590:	e7fe      	b.n	8005590 <vTaskPriorityDisinheritAfterTimeout+0x90>
 8005592:	4770      	bx	lr
 8005594:	20001350 	.word	0x20001350
 8005598:	20000ef0 	.word	0x20000ef0
 800559c:	20000e74 	.word	0x20000e74

080055a0 <pvTaskIncrementMutexHeldCount>:
		if( pxCurrentTCB != NULL )
 80055a0:	4b05      	ldr	r3, [pc, #20]	@ (80055b8 <pvTaskIncrementMutexHeldCount+0x18>)
 80055a2:	681b      	ldr	r3, [r3, #0]
 80055a4:	b123      	cbz	r3, 80055b0 <pvTaskIncrementMutexHeldCount+0x10>
			( pxCurrentTCB->uxMutexesHeld )++;
 80055a6:	4b04      	ldr	r3, [pc, #16]	@ (80055b8 <pvTaskIncrementMutexHeldCount+0x18>)
 80055a8:	681a      	ldr	r2, [r3, #0]
 80055aa:	6d13      	ldr	r3, [r2, #80]	@ 0x50
 80055ac:	3301      	adds	r3, #1
 80055ae:	6513      	str	r3, [r2, #80]	@ 0x50
		return pxCurrentTCB;
 80055b0:	4b01      	ldr	r3, [pc, #4]	@ (80055b8 <pvTaskIncrementMutexHeldCount+0x18>)
 80055b2:	6818      	ldr	r0, [r3, #0]
	}
 80055b4:	4770      	bx	lr
 80055b6:	bf00      	nop
 80055b8:	20001350 	.word	0x20001350

080055bc <prvGetNextExpireTime>:
	the timer with the nearest expiry time will expire.  If there are no
	active timers then just set the next expire time to 0.  That will cause
	this task to unblock when the tick count overflows, at which point the
	timer lists will be switched and the next expiry time can be
	re-assessed.  */
	*pxListWasEmpty = listLIST_IS_EMPTY( pxCurrentTimerList );
 80055bc:	4b06      	ldr	r3, [pc, #24]	@ (80055d8 <prvGetNextExpireTime+0x1c>)
 80055be:	681a      	ldr	r2, [r3, #0]
 80055c0:	6813      	ldr	r3, [r2, #0]
 80055c2:	b92b      	cbnz	r3, 80055d0 <prvGetNextExpireTime+0x14>
 80055c4:	2301      	movs	r3, #1
 80055c6:	6003      	str	r3, [r0, #0]
	if( *pxListWasEmpty == pdFALSE )
 80055c8:	b923      	cbnz	r3, 80055d4 <prvGetNextExpireTime+0x18>
	{
		xNextExpireTime = listGET_ITEM_VALUE_OF_HEAD_ENTRY( pxCurrentTimerList );
 80055ca:	68d3      	ldr	r3, [r2, #12]
 80055cc:	6818      	ldr	r0, [r3, #0]
 80055ce:	4770      	bx	lr
	*pxListWasEmpty = listLIST_IS_EMPTY( pxCurrentTimerList );
 80055d0:	2300      	movs	r3, #0
 80055d2:	e7f8      	b.n	80055c6 <prvGetNextExpireTime+0xa>
	}
	else
	{
		/* Ensure the task unblocks when the tick count rolls over. */
		xNextExpireTime = ( TickType_t ) 0U;
 80055d4:	2000      	movs	r0, #0
	}

	return xNextExpireTime;
}
 80055d6:	4770      	bx	lr
 80055d8:	20001454 	.word	0x20001454

080055dc <prvInsertTimerInActiveList>:
	return xTimeNow;
}
/*-----------------------------------------------------------*/

static BaseType_t prvInsertTimerInActiveList( Timer_t * const pxTimer, const TickType_t xNextExpiryTime, const TickType_t xTimeNow, const TickType_t xCommandTime )
{
 80055dc:	b508      	push	{r3, lr}
BaseType_t xProcessTimerNow = pdFALSE;

	listSET_LIST_ITEM_VALUE( &( pxTimer->xTimerListItem ), xNextExpiryTime );
 80055de:	6041      	str	r1, [r0, #4]
	listSET_LIST_ITEM_OWNER( &( pxTimer->xTimerListItem ), pxTimer );
 80055e0:	6100      	str	r0, [r0, #16]

	if( xNextExpiryTime <= xTimeNow )
 80055e2:	4291      	cmp	r1, r2
 80055e4:	d80c      	bhi.n	8005600 <prvInsertTimerInActiveList+0x24>
	{
		/* Has the expiry time elapsed between the command to start/reset a
		timer was issued, and the time the command was processed? */
		if( ( ( TickType_t ) ( xTimeNow - xCommandTime ) ) >= pxTimer->xTimerPeriodInTicks ) /*lint !e961 MISRA exception as the casts are only redundant for some ports. */
 80055e6:	1ad2      	subs	r2, r2, r3
 80055e8:	6983      	ldr	r3, [r0, #24]
 80055ea:	429a      	cmp	r2, r3
 80055ec:	d301      	bcc.n	80055f2 <prvInsertTimerInActiveList+0x16>
		{
			/* The time between a command being issued and the command being
			processed actually exceeds the timers period.  */
			xProcessTimerNow = pdTRUE;
 80055ee:	2001      	movs	r0, #1
			vListInsert( pxCurrentTimerList, &( pxTimer->xTimerListItem ) );
		}
	}

	return xProcessTimerNow;
}
 80055f0:	bd08      	pop	{r3, pc}
			vListInsert( pxOverflowTimerList, &( pxTimer->xTimerListItem ) );
 80055f2:	1d01      	adds	r1, r0, #4
 80055f4:	4b09      	ldr	r3, [pc, #36]	@ (800561c <prvInsertTimerInActiveList+0x40>)
 80055f6:	6818      	ldr	r0, [r3, #0]
 80055f8:	f7fe fadf 	bl	8003bba <vListInsert>
BaseType_t xProcessTimerNow = pdFALSE;
 80055fc:	2000      	movs	r0, #0
 80055fe:	e7f7      	b.n	80055f0 <prvInsertTimerInActiveList+0x14>
		if( ( xTimeNow < xCommandTime ) && ( xNextExpiryTime >= xCommandTime ) )
 8005600:	429a      	cmp	r2, r3
 8005602:	d201      	bcs.n	8005608 <prvInsertTimerInActiveList+0x2c>
 8005604:	4299      	cmp	r1, r3
 8005606:	d206      	bcs.n	8005616 <prvInsertTimerInActiveList+0x3a>
			vListInsert( pxCurrentTimerList, &( pxTimer->xTimerListItem ) );
 8005608:	1d01      	adds	r1, r0, #4
 800560a:	4b05      	ldr	r3, [pc, #20]	@ (8005620 <prvInsertTimerInActiveList+0x44>)
 800560c:	6818      	ldr	r0, [r3, #0]
 800560e:	f7fe fad4 	bl	8003bba <vListInsert>
BaseType_t xProcessTimerNow = pdFALSE;
 8005612:	2000      	movs	r0, #0
 8005614:	e7ec      	b.n	80055f0 <prvInsertTimerInActiveList+0x14>
			xProcessTimerNow = pdTRUE;
 8005616:	2001      	movs	r0, #1
	return xProcessTimerNow;
 8005618:	e7ea      	b.n	80055f0 <prvInsertTimerInActiveList+0x14>
 800561a:	bf00      	nop
 800561c:	20001450 	.word	0x20001450
 8005620:	20001454 	.word	0x20001454

08005624 <prvCheckForValidListAndQueue>:
	pxOverflowTimerList = pxTemp;
}
/*-----------------------------------------------------------*/

static void prvCheckForValidListAndQueue( void )
{
 8005624:	b530      	push	{r4, r5, lr}
 8005626:	b083      	sub	sp, #12
	/* Check that the list from which active timers are referenced, and the
	queue used to communicate with the timer service, have been
	initialised. */
	taskENTER_CRITICAL();
 8005628:	f000 fa5c 	bl	8005ae4 <vPortEnterCritical>
	{
		if( xTimerQueue == NULL )
 800562c:	4b11      	ldr	r3, [pc, #68]	@ (8005674 <prvCheckForValidListAndQueue+0x50>)
 800562e:	681b      	ldr	r3, [r3, #0]
 8005630:	b11b      	cbz	r3, 800563a <prvCheckForValidListAndQueue+0x16>
		else
		{
			mtCOVERAGE_TEST_MARKER();
		}
	}
	taskEXIT_CRITICAL();
 8005632:	f000 fa79 	bl	8005b28 <vPortExitCritical>
}
 8005636:	b003      	add	sp, #12
 8005638:	bd30      	pop	{r4, r5, pc}
			vListInitialise( &xActiveTimerList1 );
 800563a:	4d0f      	ldr	r5, [pc, #60]	@ (8005678 <prvCheckForValidListAndQueue+0x54>)
 800563c:	4628      	mov	r0, r5
 800563e:	f7fe faa3 	bl	8003b88 <vListInitialise>
			vListInitialise( &xActiveTimerList2 );
 8005642:	4c0e      	ldr	r4, [pc, #56]	@ (800567c <prvCheckForValidListAndQueue+0x58>)
 8005644:	4620      	mov	r0, r4
 8005646:	f7fe fa9f 	bl	8003b88 <vListInitialise>
			pxCurrentTimerList = &xActiveTimerList1;
 800564a:	4b0d      	ldr	r3, [pc, #52]	@ (8005680 <prvCheckForValidListAndQueue+0x5c>)
 800564c:	601d      	str	r5, [r3, #0]
			pxOverflowTimerList = &xActiveTimerList2;
 800564e:	4b0d      	ldr	r3, [pc, #52]	@ (8005684 <prvCheckForValidListAndQueue+0x60>)
 8005650:	601c      	str	r4, [r3, #0]
				xTimerQueue = xQueueCreateStatic( ( UBaseType_t ) configTIMER_QUEUE_LENGTH, ( UBaseType_t ) sizeof( DaemonTaskMessage_t ), &( ucStaticTimerQueueStorage[ 0 ] ), &xStaticTimerQueue );
 8005652:	2300      	movs	r3, #0
 8005654:	9300      	str	r3, [sp, #0]
 8005656:	4b0c      	ldr	r3, [pc, #48]	@ (8005688 <prvCheckForValidListAndQueue+0x64>)
 8005658:	4a0c      	ldr	r2, [pc, #48]	@ (800568c <prvCheckForValidListAndQueue+0x68>)
 800565a:	2110      	movs	r1, #16
 800565c:	200a      	movs	r0, #10
 800565e:	f7fe fbd3 	bl	8003e08 <xQueueGenericCreateStatic>
 8005662:	4b04      	ldr	r3, [pc, #16]	@ (8005674 <prvCheckForValidListAndQueue+0x50>)
 8005664:	6018      	str	r0, [r3, #0]
				if( xTimerQueue != NULL )
 8005666:	2800      	cmp	r0, #0
 8005668:	d0e3      	beq.n	8005632 <prvCheckForValidListAndQueue+0xe>
					vQueueAddToRegistry( xTimerQueue, "TmrQ" );
 800566a:	4909      	ldr	r1, [pc, #36]	@ (8005690 <prvCheckForValidListAndQueue+0x6c>)
 800566c:	f7ff f83e 	bl	80046ec <vQueueAddToRegistry>
 8005670:	e7df      	b.n	8005632 <prvCheckForValidListAndQueue+0xe>
 8005672:	bf00      	nop
 8005674:	2000144c 	.word	0x2000144c
 8005678:	2000146c 	.word	0x2000146c
 800567c:	20001458 	.word	0x20001458
 8005680:	20001454 	.word	0x20001454
 8005684:	20001450 	.word	0x20001450
 8005688:	20001354 	.word	0x20001354
 800568c:	200013a4 	.word	0x200013a4
 8005690:	08008ee0 	.word	0x08008ee0

08005694 <xTimerCreateTimerTask>:
{
 8005694:	b510      	push	{r4, lr}
 8005696:	b088      	sub	sp, #32
	prvCheckForValidListAndQueue();
 8005698:	f7ff ffc4 	bl	8005624 <prvCheckForValidListAndQueue>
	if( xTimerQueue != NULL )
 800569c:	4b12      	ldr	r3, [pc, #72]	@ (80056e8 <xTimerCreateTimerTask+0x54>)
 800569e:	681b      	ldr	r3, [r3, #0]
 80056a0:	b1cb      	cbz	r3, 80056d6 <xTimerCreateTimerTask+0x42>
			StaticTask_t *pxTimerTaskTCBBuffer = NULL;
 80056a2:	2400      	movs	r4, #0
 80056a4:	9405      	str	r4, [sp, #20]
			StackType_t *pxTimerTaskStackBuffer = NULL;
 80056a6:	9406      	str	r4, [sp, #24]
			vApplicationGetTimerTaskMemory( &pxTimerTaskTCBBuffer, &pxTimerTaskStackBuffer, &ulTimerTaskStackSize );
 80056a8:	aa07      	add	r2, sp, #28
 80056aa:	a906      	add	r1, sp, #24
 80056ac:	a805      	add	r0, sp, #20
 80056ae:	f7fe fa5f 	bl	8003b70 <vApplicationGetTimerTaskMemory>
			xTimerTaskHandle = xTaskCreateStatic(	prvTimerTask,
 80056b2:	9b05      	ldr	r3, [sp, #20]
 80056b4:	9302      	str	r3, [sp, #8]
 80056b6:	9b06      	ldr	r3, [sp, #24]
 80056b8:	9301      	str	r3, [sp, #4]
 80056ba:	2302      	movs	r3, #2
 80056bc:	9300      	str	r3, [sp, #0]
 80056be:	4623      	mov	r3, r4
 80056c0:	9a07      	ldr	r2, [sp, #28]
 80056c2:	490a      	ldr	r1, [pc, #40]	@ (80056ec <xTimerCreateTimerTask+0x58>)
 80056c4:	480a      	ldr	r0, [pc, #40]	@ (80056f0 <xTimerCreateTimerTask+0x5c>)
 80056c6:	f7ff fa21 	bl	8004b0c <xTaskCreateStatic>
 80056ca:	4b0a      	ldr	r3, [pc, #40]	@ (80056f4 <xTimerCreateTimerTask+0x60>)
 80056cc:	6018      	str	r0, [r3, #0]
			if( xTimerTaskHandle != NULL )
 80056ce:	b110      	cbz	r0, 80056d6 <xTimerCreateTimerTask+0x42>
}
 80056d0:	2001      	movs	r0, #1
 80056d2:	b008      	add	sp, #32
 80056d4:	bd10      	pop	{r4, pc}
 80056d6:	f04f 0350 	mov.w	r3, #80	@ 0x50
 80056da:	f383 8811 	msr	BASEPRI, r3
 80056de:	f3bf 8f6f 	isb	sy
 80056e2:	f3bf 8f4f 	dsb	sy
	configASSERT( xReturn );
 80056e6:	e7fe      	b.n	80056e6 <xTimerCreateTimerTask+0x52>
 80056e8:	2000144c 	.word	0x2000144c
 80056ec:	08008ee8 	.word	0x08008ee8
 80056f0:	080059f9 	.word	0x080059f9
 80056f4:	20001448 	.word	0x20001448

080056f8 <xTimerGenericCommand>:
	configASSERT( xTimer );
 80056f8:	b1b8      	cbz	r0, 800572a <xTimerGenericCommand+0x32>
 80056fa:	469c      	mov	ip, r3
 80056fc:	4603      	mov	r3, r0
	if( xTimerQueue != NULL )
 80056fe:	4818      	ldr	r0, [pc, #96]	@ (8005760 <xTimerGenericCommand+0x68>)
 8005700:	6800      	ldr	r0, [r0, #0]
 8005702:	b358      	cbz	r0, 800575c <xTimerGenericCommand+0x64>
{
 8005704:	b500      	push	{lr}
 8005706:	b085      	sub	sp, #20
		xMessage.xMessageID = xCommandID;
 8005708:	9100      	str	r1, [sp, #0]
		xMessage.u.xTimerParameters.xMessageValue = xOptionalValue;
 800570a:	9201      	str	r2, [sp, #4]
		xMessage.u.xTimerParameters.pxTimer = xTimer;
 800570c:	9302      	str	r3, [sp, #8]
		if( xCommandID < tmrFIRST_FROM_ISR_COMMAND )
 800570e:	2905      	cmp	r1, #5
 8005710:	dc1c      	bgt.n	800574c <xTimerGenericCommand+0x54>
			if( xTaskGetSchedulerState() == taskSCHEDULER_RUNNING )
 8005712:	f7ff fe51 	bl	80053b8 <xTaskGetSchedulerState>
 8005716:	2802      	cmp	r0, #2
 8005718:	d010      	beq.n	800573c <xTimerGenericCommand+0x44>
				xReturn = xQueueSendToBack( xTimerQueue, &xMessage, tmrNO_DELAY );
 800571a:	2300      	movs	r3, #0
 800571c:	461a      	mov	r2, r3
 800571e:	4669      	mov	r1, sp
 8005720:	480f      	ldr	r0, [pc, #60]	@ (8005760 <xTimerGenericCommand+0x68>)
 8005722:	6800      	ldr	r0, [r0, #0]
 8005724:	f7fe fc1f 	bl	8003f66 <xQueueGenericSend>
 8005728:	e015      	b.n	8005756 <xTimerGenericCommand+0x5e>
 800572a:	f04f 0350 	mov.w	r3, #80	@ 0x50
 800572e:	f383 8811 	msr	BASEPRI, r3
 8005732:	f3bf 8f6f 	isb	sy
 8005736:	f3bf 8f4f 	dsb	sy
	configASSERT( xTimer );
 800573a:	e7fe      	b.n	800573a <xTimerGenericCommand+0x42>
				xReturn = xQueueSendToBack( xTimerQueue, &xMessage, xTicksToWait );
 800573c:	2300      	movs	r3, #0
 800573e:	9a06      	ldr	r2, [sp, #24]
 8005740:	4669      	mov	r1, sp
 8005742:	4807      	ldr	r0, [pc, #28]	@ (8005760 <xTimerGenericCommand+0x68>)
 8005744:	6800      	ldr	r0, [r0, #0]
 8005746:	f7fe fc0e 	bl	8003f66 <xQueueGenericSend>
 800574a:	e004      	b.n	8005756 <xTimerGenericCommand+0x5e>
			xReturn = xQueueSendToBackFromISR( xTimerQueue, &xMessage, pxHigherPriorityTaskWoken );
 800574c:	2300      	movs	r3, #0
 800574e:	4662      	mov	r2, ip
 8005750:	4669      	mov	r1, sp
 8005752:	f7fe fd12 	bl	800417a <xQueueGenericSendFromISR>
}
 8005756:	b005      	add	sp, #20
 8005758:	f85d fb04 	ldr.w	pc, [sp], #4
BaseType_t xReturn = pdFAIL;
 800575c:	2000      	movs	r0, #0
}
 800575e:	4770      	bx	lr
 8005760:	2000144c 	.word	0x2000144c

08005764 <prvSwitchTimerLists>:
{
 8005764:	b570      	push	{r4, r5, r6, lr}
 8005766:	b082      	sub	sp, #8
	while( listLIST_IS_EMPTY( pxCurrentTimerList ) == pdFALSE )
 8005768:	4b1b      	ldr	r3, [pc, #108]	@ (80057d8 <prvSwitchTimerLists+0x74>)
 800576a:	681b      	ldr	r3, [r3, #0]
 800576c:	681a      	ldr	r2, [r3, #0]
 800576e:	b362      	cbz	r2, 80057ca <prvSwitchTimerLists+0x66>
		xNextExpireTime = listGET_ITEM_VALUE_OF_HEAD_ENTRY( pxCurrentTimerList );
 8005770:	68db      	ldr	r3, [r3, #12]
 8005772:	681e      	ldr	r6, [r3, #0]
		pxTimer = ( Timer_t * ) listGET_OWNER_OF_HEAD_ENTRY( pxCurrentTimerList ); /*lint !e9087 !e9079 void * is used as this macro is used with tasks and co-routines too.  Alignment is known to be fine as the type of the pointer stored and retrieved is the same. */
 8005774:	68dc      	ldr	r4, [r3, #12]
		( void ) uxListRemove( &( pxTimer->xTimerListItem ) );
 8005776:	1d25      	adds	r5, r4, #4
 8005778:	4628      	mov	r0, r5
 800577a:	f7fe fa37 	bl	8003bec <uxListRemove>
		pxTimer->pxCallbackFunction( ( TimerHandle_t ) pxTimer );
 800577e:	6a23      	ldr	r3, [r4, #32]
 8005780:	4620      	mov	r0, r4
 8005782:	4798      	blx	r3
		if( ( pxTimer->ucStatus & tmrSTATUS_IS_AUTORELOAD ) != 0 )
 8005784:	f894 3028 	ldrb.w	r3, [r4, #40]	@ 0x28
 8005788:	f013 0f04 	tst.w	r3, #4
 800578c:	d0ec      	beq.n	8005768 <prvSwitchTimerLists+0x4>
			xReloadTime = ( xNextExpireTime + pxTimer->xTimerPeriodInTicks );
 800578e:	69a3      	ldr	r3, [r4, #24]
 8005790:	4433      	add	r3, r6
			if( xReloadTime > xNextExpireTime )
 8005792:	429e      	cmp	r6, r3
 8005794:	d207      	bcs.n	80057a6 <prvSwitchTimerLists+0x42>
				listSET_LIST_ITEM_VALUE( &( pxTimer->xTimerListItem ), xReloadTime );
 8005796:	6063      	str	r3, [r4, #4]
				listSET_LIST_ITEM_OWNER( &( pxTimer->xTimerListItem ), pxTimer );
 8005798:	6124      	str	r4, [r4, #16]
				vListInsert( pxCurrentTimerList, &( pxTimer->xTimerListItem ) );
 800579a:	4629      	mov	r1, r5
 800579c:	4b0e      	ldr	r3, [pc, #56]	@ (80057d8 <prvSwitchTimerLists+0x74>)
 800579e:	6818      	ldr	r0, [r3, #0]
 80057a0:	f7fe fa0b 	bl	8003bba <vListInsert>
 80057a4:	e7e0      	b.n	8005768 <prvSwitchTimerLists+0x4>
				xResult = xTimerGenericCommand( pxTimer, tmrCOMMAND_START_DONT_TRACE, xNextExpireTime, NULL, tmrNO_DELAY );
 80057a6:	2100      	movs	r1, #0
 80057a8:	9100      	str	r1, [sp, #0]
 80057aa:	460b      	mov	r3, r1
 80057ac:	4632      	mov	r2, r6
 80057ae:	4620      	mov	r0, r4
 80057b0:	f7ff ffa2 	bl	80056f8 <xTimerGenericCommand>
				configASSERT( xResult );
 80057b4:	2800      	cmp	r0, #0
 80057b6:	d1d7      	bne.n	8005768 <prvSwitchTimerLists+0x4>
 80057b8:	f04f 0350 	mov.w	r3, #80	@ 0x50
 80057bc:	f383 8811 	msr	BASEPRI, r3
 80057c0:	f3bf 8f6f 	isb	sy
 80057c4:	f3bf 8f4f 	dsb	sy
 80057c8:	e7fe      	b.n	80057c8 <prvSwitchTimerLists+0x64>
	pxCurrentTimerList = pxOverflowTimerList;
 80057ca:	4a04      	ldr	r2, [pc, #16]	@ (80057dc <prvSwitchTimerLists+0x78>)
 80057cc:	6810      	ldr	r0, [r2, #0]
 80057ce:	4902      	ldr	r1, [pc, #8]	@ (80057d8 <prvSwitchTimerLists+0x74>)
 80057d0:	6008      	str	r0, [r1, #0]
	pxOverflowTimerList = pxTemp;
 80057d2:	6013      	str	r3, [r2, #0]
}
 80057d4:	b002      	add	sp, #8
 80057d6:	bd70      	pop	{r4, r5, r6, pc}
 80057d8:	20001454 	.word	0x20001454
 80057dc:	20001450 	.word	0x20001450

080057e0 <prvSampleTimeNow>:
{
 80057e0:	b538      	push	{r3, r4, r5, lr}
 80057e2:	4605      	mov	r5, r0
	xTimeNow = xTaskGetTickCount();
 80057e4:	f7ff faa8 	bl	8004d38 <xTaskGetTickCount>
 80057e8:	4604      	mov	r4, r0
	if( xTimeNow < xLastTime )
 80057ea:	4b07      	ldr	r3, [pc, #28]	@ (8005808 <prvSampleTimeNow+0x28>)
 80057ec:	681b      	ldr	r3, [r3, #0]
 80057ee:	4283      	cmp	r3, r0
 80057f0:	d805      	bhi.n	80057fe <prvSampleTimeNow+0x1e>
		*pxTimerListsWereSwitched = pdFALSE;
 80057f2:	2300      	movs	r3, #0
 80057f4:	602b      	str	r3, [r5, #0]
	xLastTime = xTimeNow;
 80057f6:	4b04      	ldr	r3, [pc, #16]	@ (8005808 <prvSampleTimeNow+0x28>)
 80057f8:	601c      	str	r4, [r3, #0]
}
 80057fa:	4620      	mov	r0, r4
 80057fc:	bd38      	pop	{r3, r4, r5, pc}
		prvSwitchTimerLists();
 80057fe:	f7ff ffb1 	bl	8005764 <prvSwitchTimerLists>
		*pxTimerListsWereSwitched = pdTRUE;
 8005802:	2301      	movs	r3, #1
 8005804:	602b      	str	r3, [r5, #0]
 8005806:	e7f6      	b.n	80057f6 <prvSampleTimeNow+0x16>
 8005808:	20001444 	.word	0x20001444

0800580c <prvProcessExpiredTimer>:
{
 800580c:	b570      	push	{r4, r5, r6, lr}
 800580e:	b082      	sub	sp, #8
 8005810:	4606      	mov	r6, r0
 8005812:	460d      	mov	r5, r1
Timer_t * const pxTimer = ( Timer_t * ) listGET_OWNER_OF_HEAD_ENTRY( pxCurrentTimerList ); /*lint !e9087 !e9079 void * is used as this macro is used with tasks and co-routines too.  Alignment is known to be fine as the type of the pointer stored and retrieved is the same. */
 8005814:	4917      	ldr	r1, [pc, #92]	@ (8005874 <prvProcessExpiredTimer+0x68>)
 8005816:	6809      	ldr	r1, [r1, #0]
 8005818:	68c9      	ldr	r1, [r1, #12]
 800581a:	68cc      	ldr	r4, [r1, #12]
	( void ) uxListRemove( &( pxTimer->xTimerListItem ) );
 800581c:	1d20      	adds	r0, r4, #4
 800581e:	f7fe f9e5 	bl	8003bec <uxListRemove>
	if( ( pxTimer->ucStatus & tmrSTATUS_IS_AUTORELOAD ) != 0 )
 8005822:	f894 c028 	ldrb.w	ip, [r4, #40]	@ 0x28
 8005826:	f01c 0f04 	tst.w	ip, #4
 800582a:	d108      	bne.n	800583e <prvProcessExpiredTimer+0x32>
		pxTimer->ucStatus &= ~tmrSTATUS_IS_ACTIVE;
 800582c:	f02c 0c01 	bic.w	ip, ip, #1
 8005830:	f884 c028 	strb.w	ip, [r4, #40]	@ 0x28
	pxTimer->pxCallbackFunction( ( TimerHandle_t ) pxTimer );
 8005834:	6a23      	ldr	r3, [r4, #32]
 8005836:	4620      	mov	r0, r4
 8005838:	4798      	blx	r3
}
 800583a:	b002      	add	sp, #8
 800583c:	bd70      	pop	{r4, r5, r6, pc}
		if( prvInsertTimerInActiveList( pxTimer, ( xNextExpireTime + pxTimer->xTimerPeriodInTicks ), xTimeNow, xNextExpireTime ) != pdFALSE )
 800583e:	69a1      	ldr	r1, [r4, #24]
 8005840:	4633      	mov	r3, r6
 8005842:	462a      	mov	r2, r5
 8005844:	4431      	add	r1, r6
 8005846:	4620      	mov	r0, r4
 8005848:	f7ff fec8 	bl	80055dc <prvInsertTimerInActiveList>
 800584c:	2800      	cmp	r0, #0
 800584e:	d0f1      	beq.n	8005834 <prvProcessExpiredTimer+0x28>
			xResult = xTimerGenericCommand( pxTimer, tmrCOMMAND_START_DONT_TRACE, xNextExpireTime, NULL, tmrNO_DELAY );
 8005850:	2100      	movs	r1, #0
 8005852:	9100      	str	r1, [sp, #0]
 8005854:	460b      	mov	r3, r1
 8005856:	4632      	mov	r2, r6
 8005858:	4620      	mov	r0, r4
 800585a:	f7ff ff4d 	bl	80056f8 <xTimerGenericCommand>
			configASSERT( xResult );
 800585e:	2800      	cmp	r0, #0
 8005860:	d1e8      	bne.n	8005834 <prvProcessExpiredTimer+0x28>
 8005862:	f04f 0350 	mov.w	r3, #80	@ 0x50
 8005866:	f383 8811 	msr	BASEPRI, r3
 800586a:	f3bf 8f6f 	isb	sy
 800586e:	f3bf 8f4f 	dsb	sy
 8005872:	e7fe      	b.n	8005872 <prvProcessExpiredTimer+0x66>
 8005874:	20001454 	.word	0x20001454

08005878 <prvProcessTimerOrBlockTask>:
{
 8005878:	b570      	push	{r4, r5, r6, lr}
 800587a:	b082      	sub	sp, #8
 800587c:	4606      	mov	r6, r0
 800587e:	460c      	mov	r4, r1
	vTaskSuspendAll();
 8005880:	f7ff fa52 	bl	8004d28 <vTaskSuspendAll>
		xTimeNow = prvSampleTimeNow( &xTimerListsWereSwitched );
 8005884:	a801      	add	r0, sp, #4
 8005886:	f7ff ffab 	bl	80057e0 <prvSampleTimeNow>
		if( xTimerListsWereSwitched == pdFALSE )
 800588a:	9b01      	ldr	r3, [sp, #4]
 800588c:	bb33      	cbnz	r3, 80058dc <prvProcessTimerOrBlockTask+0x64>
 800588e:	4605      	mov	r5, r0
			if( ( xListWasEmpty == pdFALSE ) && ( xNextExpireTime <= xTimeNow ) )
 8005890:	b9e4      	cbnz	r4, 80058cc <prvProcessTimerOrBlockTask+0x54>
 8005892:	42b0      	cmp	r0, r6
 8005894:	d213      	bcs.n	80058be <prvProcessTimerOrBlockTask+0x46>
				vQueueWaitForMessageRestricted( xTimerQueue, ( xNextExpireTime - xTimeNow ), xListWasEmpty );
 8005896:	4622      	mov	r2, r4
 8005898:	1b71      	subs	r1, r6, r5
 800589a:	4b12      	ldr	r3, [pc, #72]	@ (80058e4 <prvProcessTimerOrBlockTask+0x6c>)
 800589c:	6818      	ldr	r0, [r3, #0]
 800589e:	f7fe ff65 	bl	800476c <vQueueWaitForMessageRestricted>
				if( xTaskResumeAll() == pdFALSE )
 80058a2:	f7ff fae9 	bl	8004e78 <xTaskResumeAll>
 80058a6:	b9d8      	cbnz	r0, 80058e0 <prvProcessTimerOrBlockTask+0x68>
					portYIELD_WITHIN_API();
 80058a8:	f04f 23e0 	mov.w	r3, #3758153728	@ 0xe000e000
 80058ac:	f04f 5280 	mov.w	r2, #268435456	@ 0x10000000
 80058b0:	f8c3 2d04 	str.w	r2, [r3, #3332]	@ 0xd04
 80058b4:	f3bf 8f4f 	dsb	sy
 80058b8:	f3bf 8f6f 	isb	sy
 80058bc:	e010      	b.n	80058e0 <prvProcessTimerOrBlockTask+0x68>
				( void ) xTaskResumeAll();
 80058be:	f7ff fadb 	bl	8004e78 <xTaskResumeAll>
				prvProcessExpiredTimer( xNextExpireTime, xTimeNow );
 80058c2:	4629      	mov	r1, r5
 80058c4:	4630      	mov	r0, r6
 80058c6:	f7ff ffa1 	bl	800580c <prvProcessExpiredTimer>
 80058ca:	e009      	b.n	80058e0 <prvProcessTimerOrBlockTask+0x68>
					xListWasEmpty = listLIST_IS_EMPTY( pxOverflowTimerList );
 80058cc:	4a06      	ldr	r2, [pc, #24]	@ (80058e8 <prvProcessTimerOrBlockTask+0x70>)
 80058ce:	6812      	ldr	r2, [r2, #0]
 80058d0:	6812      	ldr	r2, [r2, #0]
 80058d2:	b90a      	cbnz	r2, 80058d8 <prvProcessTimerOrBlockTask+0x60>
 80058d4:	2401      	movs	r4, #1
 80058d6:	e7de      	b.n	8005896 <prvProcessTimerOrBlockTask+0x1e>
 80058d8:	461c      	mov	r4, r3
 80058da:	e7dc      	b.n	8005896 <prvProcessTimerOrBlockTask+0x1e>
			( void ) xTaskResumeAll();
 80058dc:	f7ff facc 	bl	8004e78 <xTaskResumeAll>
}
 80058e0:	b002      	add	sp, #8
 80058e2:	bd70      	pop	{r4, r5, r6, pc}
 80058e4:	2000144c 	.word	0x2000144c
 80058e8:	20001450 	.word	0x20001450

080058ec <prvProcessReceivedCommands>:
{
 80058ec:	b510      	push	{r4, lr}
 80058ee:	b088      	sub	sp, #32
	while( xQueueReceive( xTimerQueue, &xMessage, tmrNO_DELAY ) != pdFAIL ) /*lint !e603 xMessage does not have to be initialised as it is passed out, not in, and it is not used unless xQueueReceive() returns pdTRUE. */
 80058f0:	e002      	b.n	80058f8 <prvProcessReceivedCommands+0xc>
		if( xMessage.xMessageID >= ( BaseType_t ) 0 )
 80058f2:	9b04      	ldr	r3, [sp, #16]
 80058f4:	2b00      	cmp	r3, #0
 80058f6:	da0f      	bge.n	8005918 <prvProcessReceivedCommands+0x2c>
	while( xQueueReceive( xTimerQueue, &xMessage, tmrNO_DELAY ) != pdFAIL ) /*lint !e603 xMessage does not have to be initialised as it is passed out, not in, and it is not used unless xQueueReceive() returns pdTRUE. */
 80058f8:	2200      	movs	r2, #0
 80058fa:	a904      	add	r1, sp, #16
 80058fc:	4b3d      	ldr	r3, [pc, #244]	@ (80059f4 <prvProcessReceivedCommands+0x108>)
 80058fe:	6818      	ldr	r0, [r3, #0]
 8005900:	f7fe fcfb 	bl	80042fa <xQueueReceive>
 8005904:	2800      	cmp	r0, #0
 8005906:	d073      	beq.n	80059f0 <prvProcessReceivedCommands+0x104>
			if( xMessage.xMessageID < ( BaseType_t ) 0 )
 8005908:	9b04      	ldr	r3, [sp, #16]
 800590a:	2b00      	cmp	r3, #0
 800590c:	daf1      	bge.n	80058f2 <prvProcessReceivedCommands+0x6>
				pxCallback->pxCallbackFunction( pxCallback->pvParameter1, pxCallback->ulParameter2 );
 800590e:	9907      	ldr	r1, [sp, #28]
 8005910:	9806      	ldr	r0, [sp, #24]
 8005912:	9b05      	ldr	r3, [sp, #20]
 8005914:	4798      	blx	r3
 8005916:	e7ec      	b.n	80058f2 <prvProcessReceivedCommands+0x6>
			pxTimer = xMessage.u.xTimerParameters.pxTimer;
 8005918:	9c06      	ldr	r4, [sp, #24]
			if( listIS_CONTAINED_WITHIN( NULL, &( pxTimer->xTimerListItem ) ) == pdFALSE ) /*lint !e961. The cast is only redundant when NULL is passed into the macro. */
 800591a:	6963      	ldr	r3, [r4, #20]
 800591c:	b113      	cbz	r3, 8005924 <prvProcessReceivedCommands+0x38>
				( void ) uxListRemove( &( pxTimer->xTimerListItem ) );
 800591e:	1d20      	adds	r0, r4, #4
 8005920:	f7fe f964 	bl	8003bec <uxListRemove>
			xTimeNow = prvSampleTimeNow( &xTimerListsWereSwitched );
 8005924:	a803      	add	r0, sp, #12
 8005926:	f7ff ff5b 	bl	80057e0 <prvSampleTimeNow>
			switch( xMessage.xMessageID )
 800592a:	9b04      	ldr	r3, [sp, #16]
 800592c:	2b09      	cmp	r3, #9
 800592e:	d8e3      	bhi.n	80058f8 <prvProcessReceivedCommands+0xc>
 8005930:	e8df f003 	tbb	[pc, r3]
 8005934:	30050505 	.word	0x30050505
 8005938:	05055037 	.word	0x05055037
 800593c:	3730      	.short	0x3730
					pxTimer->ucStatus |= tmrSTATUS_IS_ACTIVE;
 800593e:	f894 3028 	ldrb.w	r3, [r4, #40]	@ 0x28
 8005942:	f043 0301 	orr.w	r3, r3, #1
 8005946:	f884 3028 	strb.w	r3, [r4, #40]	@ 0x28
					if( prvInsertTimerInActiveList( pxTimer,  xMessage.u.xTimerParameters.xMessageValue + pxTimer->xTimerPeriodInTicks, xTimeNow, xMessage.u.xTimerParameters.xMessageValue ) != pdFALSE )
 800594a:	9b05      	ldr	r3, [sp, #20]
 800594c:	69a1      	ldr	r1, [r4, #24]
 800594e:	4602      	mov	r2, r0
 8005950:	4419      	add	r1, r3
 8005952:	4620      	mov	r0, r4
 8005954:	f7ff fe42 	bl	80055dc <prvInsertTimerInActiveList>
 8005958:	2800      	cmp	r0, #0
 800595a:	d0cd      	beq.n	80058f8 <prvProcessReceivedCommands+0xc>
						pxTimer->pxCallbackFunction( ( TimerHandle_t ) pxTimer );
 800595c:	6a23      	ldr	r3, [r4, #32]
 800595e:	4620      	mov	r0, r4
 8005960:	4798      	blx	r3
						if( ( pxTimer->ucStatus & tmrSTATUS_IS_AUTORELOAD ) != 0 )
 8005962:	f894 3028 	ldrb.w	r3, [r4, #40]	@ 0x28
 8005966:	f013 0f04 	tst.w	r3, #4
 800596a:	d0c5      	beq.n	80058f8 <prvProcessReceivedCommands+0xc>
							xResult = xTimerGenericCommand( pxTimer, tmrCOMMAND_START_DONT_TRACE, xMessage.u.xTimerParameters.xMessageValue + pxTimer->xTimerPeriodInTicks, NULL, tmrNO_DELAY );
 800596c:	69a2      	ldr	r2, [r4, #24]
 800596e:	2100      	movs	r1, #0
 8005970:	9100      	str	r1, [sp, #0]
 8005972:	460b      	mov	r3, r1
 8005974:	9805      	ldr	r0, [sp, #20]
 8005976:	4402      	add	r2, r0
 8005978:	4620      	mov	r0, r4
 800597a:	f7ff febd 	bl	80056f8 <xTimerGenericCommand>
							configASSERT( xResult );
 800597e:	2800      	cmp	r0, #0
 8005980:	d1ba      	bne.n	80058f8 <prvProcessReceivedCommands+0xc>
 8005982:	f04f 0350 	mov.w	r3, #80	@ 0x50
 8005986:	f383 8811 	msr	BASEPRI, r3
 800598a:	f3bf 8f6f 	isb	sy
 800598e:	f3bf 8f4f 	dsb	sy
 8005992:	e7fe      	b.n	8005992 <prvProcessReceivedCommands+0xa6>
					pxTimer->ucStatus &= ~tmrSTATUS_IS_ACTIVE;
 8005994:	f894 3028 	ldrb.w	r3, [r4, #40]	@ 0x28
 8005998:	f023 0301 	bic.w	r3, r3, #1
 800599c:	f884 3028 	strb.w	r3, [r4, #40]	@ 0x28
					break;
 80059a0:	e7aa      	b.n	80058f8 <prvProcessReceivedCommands+0xc>
					pxTimer->ucStatus |= tmrSTATUS_IS_ACTIVE;
 80059a2:	f894 3028 	ldrb.w	r3, [r4, #40]	@ 0x28
 80059a6:	f043 0301 	orr.w	r3, r3, #1
 80059aa:	f884 3028 	strb.w	r3, [r4, #40]	@ 0x28
					pxTimer->xTimerPeriodInTicks = xMessage.u.xTimerParameters.xMessageValue;
 80059ae:	9905      	ldr	r1, [sp, #20]
 80059b0:	61a1      	str	r1, [r4, #24]
					configASSERT( ( pxTimer->xTimerPeriodInTicks > 0 ) );
 80059b2:	b131      	cbz	r1, 80059c2 <prvProcessReceivedCommands+0xd6>
					( void ) prvInsertTimerInActiveList( pxTimer, ( xTimeNow + pxTimer->xTimerPeriodInTicks ), xTimeNow, xTimeNow );
 80059b4:	4603      	mov	r3, r0
 80059b6:	4602      	mov	r2, r0
 80059b8:	4401      	add	r1, r0
 80059ba:	4620      	mov	r0, r4
 80059bc:	f7ff fe0e 	bl	80055dc <prvInsertTimerInActiveList>
					break;
 80059c0:	e79a      	b.n	80058f8 <prvProcessReceivedCommands+0xc>
 80059c2:	f04f 0350 	mov.w	r3, #80	@ 0x50
 80059c6:	f383 8811 	msr	BASEPRI, r3
 80059ca:	f3bf 8f6f 	isb	sy
 80059ce:	f3bf 8f4f 	dsb	sy
					configASSERT( ( pxTimer->xTimerPeriodInTicks > 0 ) );
 80059d2:	e7fe      	b.n	80059d2 <prvProcessReceivedCommands+0xe6>
						if( ( pxTimer->ucStatus & tmrSTATUS_IS_STATICALLY_ALLOCATED ) == ( uint8_t ) 0 )
 80059d4:	f894 3028 	ldrb.w	r3, [r4, #40]	@ 0x28
 80059d8:	f013 0f02 	tst.w	r3, #2
 80059dc:	d004      	beq.n	80059e8 <prvProcessReceivedCommands+0xfc>
							pxTimer->ucStatus &= ~tmrSTATUS_IS_ACTIVE;
 80059de:	f023 0301 	bic.w	r3, r3, #1
 80059e2:	f884 3028 	strb.w	r3, [r4, #40]	@ 0x28
 80059e6:	e787      	b.n	80058f8 <prvProcessReceivedCommands+0xc>
							vPortFree( pxTimer );
 80059e8:	4620      	mov	r0, r4
 80059ea:	f000 fab5 	bl	8005f58 <vPortFree>
 80059ee:	e783      	b.n	80058f8 <prvProcessReceivedCommands+0xc>
}
 80059f0:	b008      	add	sp, #32
 80059f2:	bd10      	pop	{r4, pc}
 80059f4:	2000144c 	.word	0x2000144c

080059f8 <prvTimerTask>:
{
 80059f8:	b500      	push	{lr}
 80059fa:	b083      	sub	sp, #12
		xNextExpireTime = prvGetNextExpireTime( &xListWasEmpty );
 80059fc:	a801      	add	r0, sp, #4
 80059fe:	f7ff fddd 	bl	80055bc <prvGetNextExpireTime>
		prvProcessTimerOrBlockTask( xNextExpireTime, xListWasEmpty );
 8005a02:	9901      	ldr	r1, [sp, #4]
 8005a04:	f7ff ff38 	bl	8005878 <prvProcessTimerOrBlockTask>
		prvProcessReceivedCommands();
 8005a08:	f7ff ff70 	bl	80058ec <prvProcessReceivedCommands>
	for( ;; )
 8005a0c:	e7f6      	b.n	80059fc <prvTimerTask+0x4>
	...

08005a10 <prvTaskExitError>:
	return pxTopOfStack;
}
/*-----------------------------------------------------------*/

static void prvTaskExitError( void )
{
 8005a10:	b082      	sub	sp, #8
volatile uint32_t ulDummy = 0;
 8005a12:	2300      	movs	r3, #0
 8005a14:	9301      	str	r3, [sp, #4]
	its caller as there is nothing to return to.  If a task wants to exit it
	should instead call vTaskDelete( NULL ).

	Artificially force an assert() to be triggered if configASSERT() is
	defined, then stop here so application writers can catch the error. */
	configASSERT( uxCriticalNesting == ~0UL );
 8005a16:	4b0d      	ldr	r3, [pc, #52]	@ (8005a4c <prvTaskExitError+0x3c>)
 8005a18:	681b      	ldr	r3, [r3, #0]
 8005a1a:	f1b3 3fff 	cmp.w	r3, #4294967295	@ 0xffffffff
 8005a1e:	d008      	beq.n	8005a32 <prvTaskExitError+0x22>
 8005a20:	f04f 0350 	mov.w	r3, #80	@ 0x50
 8005a24:	f383 8811 	msr	BASEPRI, r3
 8005a28:	f3bf 8f6f 	isb	sy
 8005a2c:	f3bf 8f4f 	dsb	sy
 8005a30:	e7fe      	b.n	8005a30 <prvTaskExitError+0x20>
 8005a32:	f04f 0350 	mov.w	r3, #80	@ 0x50
 8005a36:	f383 8811 	msr	BASEPRI, r3
 8005a3a:	f3bf 8f6f 	isb	sy
 8005a3e:	f3bf 8f4f 	dsb	sy
	portDISABLE_INTERRUPTS();
	while( ulDummy == 0 )
 8005a42:	9b01      	ldr	r3, [sp, #4]
 8005a44:	2b00      	cmp	r3, #0
 8005a46:	d0fc      	beq.n	8005a42 <prvTaskExitError+0x32>
		about code appearing after this function is called - making ulDummy
		volatile makes the compiler think the function could return and
		therefore not output an 'unreachable code' warning for code that appears
		after it. */
	}
}
 8005a48:	b002      	add	sp, #8
 8005a4a:	4770      	bx	lr
 8005a4c:	2000002c 	.word	0x2000002c

08005a50 <prvPortStartFirstTask>:
{
	/* Start the first task.  This also clears the bit that indicates the FPU is
	in use in case the FPU was used before the scheduler was started - which
	would otherwise result in the unnecessary leaving of space in the SVC stack
	for lazy saving of FPU registers. */
	__asm volatile(
 8005a50:	4808      	ldr	r0, [pc, #32]	@ (8005a74 <prvPortStartFirstTask+0x24>)
 8005a52:	6800      	ldr	r0, [r0, #0]
 8005a54:	6800      	ldr	r0, [r0, #0]
 8005a56:	f380 8808 	msr	MSP, r0
 8005a5a:	f04f 0000 	mov.w	r0, #0
 8005a5e:	f380 8814 	msr	CONTROL, r0
 8005a62:	b662      	cpsie	i
 8005a64:	b661      	cpsie	f
 8005a66:	f3bf 8f4f 	dsb	sy
 8005a6a:	f3bf 8f6f 	isb	sy
 8005a6e:	df00      	svc	0
 8005a70:	bf00      	nop
					" dsb					\n"
					" isb					\n"
					" svc 0					\n" /* System call to start first task. */
					" nop					\n"
				);
}
 8005a72:	0000      	.short	0x0000
 8005a74:	e000ed08 	.word	0xe000ed08

08005a78 <vPortEnableVFP>:
/*-----------------------------------------------------------*/

/* This is a naked function. */
static void vPortEnableVFP( void )
{
	__asm volatile
 8005a78:	f8df 000c 	ldr.w	r0, [pc, #12]	@ 8005a88 <vPortEnableVFP+0x10>
 8005a7c:	6801      	ldr	r1, [r0, #0]
 8005a7e:	f441 0170 	orr.w	r1, r1, #15728640	@ 0xf00000
 8005a82:	6001      	str	r1, [r0, #0]
 8005a84:	4770      	bx	lr
		"								\n"
		"	orr r1, r1, #( 0xf << 20 )	\n" /* Enable CP10 and CP11 coprocessors, then save back. */
		"	str r1, [r0]				\n"
		"	bx r14						"
	);
}
 8005a86:	0000      	.short	0x0000
 8005a88:	e000ed88 	.word	0xe000ed88

08005a8c <pxPortInitialiseStack>:
	*pxTopOfStack = portINITIAL_XPSR;	/* xPSR */
 8005a8c:	f04f 7380 	mov.w	r3, #16777216	@ 0x1000000
 8005a90:	f840 3c04 	str.w	r3, [r0, #-4]
	*pxTopOfStack = ( ( StackType_t ) pxCode ) & portSTART_ADDRESS_MASK;	/* PC */
 8005a94:	f021 0101 	bic.w	r1, r1, #1
 8005a98:	f840 1c08 	str.w	r1, [r0, #-8]
	*pxTopOfStack = ( StackType_t ) portTASK_RETURN_ADDRESS;	/* LR */
 8005a9c:	4b05      	ldr	r3, [pc, #20]	@ (8005ab4 <pxPortInitialiseStack+0x28>)
 8005a9e:	f840 3c0c 	str.w	r3, [r0, #-12]
	*pxTopOfStack = ( StackType_t ) pvParameters;	/* R0 */
 8005aa2:	f840 2c20 	str.w	r2, [r0, #-32]
	*pxTopOfStack = portINITIAL_EXC_RETURN;
 8005aa6:	f06f 0302 	mvn.w	r3, #2
 8005aaa:	f840 3c24 	str.w	r3, [r0, #-36]
}
 8005aae:	3844      	subs	r0, #68	@ 0x44
 8005ab0:	4770      	bx	lr
 8005ab2:	bf00      	nop
 8005ab4:	08005a11 	.word	0x08005a11
	...

08005ac0 <SVC_Handler>:
	__asm volatile (
 8005ac0:	4b07      	ldr	r3, [pc, #28]	@ (8005ae0 <pxCurrentTCBConst2>)
 8005ac2:	6819      	ldr	r1, [r3, #0]
 8005ac4:	6808      	ldr	r0, [r1, #0]
 8005ac6:	e8b0 4ff0 	ldmia.w	r0!, {r4, r5, r6, r7, r8, r9, sl, fp, lr}
 8005aca:	f380 8809 	msr	PSP, r0
 8005ace:	f3bf 8f6f 	isb	sy
 8005ad2:	f04f 0000 	mov.w	r0, #0
 8005ad6:	f380 8811 	msr	BASEPRI, r0
 8005ada:	4770      	bx	lr
 8005adc:	f3af 8000 	nop.w

08005ae0 <pxCurrentTCBConst2>:
 8005ae0:	20001350 	.word	0x20001350

08005ae4 <vPortEnterCritical>:
 8005ae4:	f04f 0350 	mov.w	r3, #80	@ 0x50
 8005ae8:	f383 8811 	msr	BASEPRI, r3
 8005aec:	f3bf 8f6f 	isb	sy
 8005af0:	f3bf 8f4f 	dsb	sy
	uxCriticalNesting++;
 8005af4:	4a0b      	ldr	r2, [pc, #44]	@ (8005b24 <vPortEnterCritical+0x40>)
 8005af6:	6813      	ldr	r3, [r2, #0]
 8005af8:	3301      	adds	r3, #1
 8005afa:	6013      	str	r3, [r2, #0]
	if( uxCriticalNesting == 1 )
 8005afc:	2b01      	cmp	r3, #1
 8005afe:	d000      	beq.n	8005b02 <vPortEnterCritical+0x1e>
}
 8005b00:	4770      	bx	lr
		configASSERT( ( portNVIC_INT_CTRL_REG & portVECTACTIVE_MASK ) == 0 );
 8005b02:	f04f 23e0 	mov.w	r3, #3758153728	@ 0xe000e000
 8005b06:	f8d3 3d04 	ldr.w	r3, [r3, #3332]	@ 0xd04
 8005b0a:	f013 0fff 	tst.w	r3, #255	@ 0xff
 8005b0e:	d0f7      	beq.n	8005b00 <vPortEnterCritical+0x1c>
 8005b10:	f04f 0350 	mov.w	r3, #80	@ 0x50
 8005b14:	f383 8811 	msr	BASEPRI, r3
 8005b18:	f3bf 8f6f 	isb	sy
 8005b1c:	f3bf 8f4f 	dsb	sy
 8005b20:	e7fe      	b.n	8005b20 <vPortEnterCritical+0x3c>
 8005b22:	bf00      	nop
 8005b24:	2000002c 	.word	0x2000002c

08005b28 <vPortExitCritical>:
	configASSERT( uxCriticalNesting );
 8005b28:	4b09      	ldr	r3, [pc, #36]	@ (8005b50 <vPortExitCritical+0x28>)
 8005b2a:	681b      	ldr	r3, [r3, #0]
 8005b2c:	b943      	cbnz	r3, 8005b40 <vPortExitCritical+0x18>
 8005b2e:	f04f 0350 	mov.w	r3, #80	@ 0x50
 8005b32:	f383 8811 	msr	BASEPRI, r3
 8005b36:	f3bf 8f6f 	isb	sy
 8005b3a:	f3bf 8f4f 	dsb	sy
 8005b3e:	e7fe      	b.n	8005b3e <vPortExitCritical+0x16>
	uxCriticalNesting--;
 8005b40:	3b01      	subs	r3, #1
 8005b42:	4a03      	ldr	r2, [pc, #12]	@ (8005b50 <vPortExitCritical+0x28>)
 8005b44:	6013      	str	r3, [r2, #0]
	if( uxCriticalNesting == 0 )
 8005b46:	b90b      	cbnz	r3, 8005b4c <vPortExitCritical+0x24>
	__asm volatile
 8005b48:	f383 8811 	msr	BASEPRI, r3
}
 8005b4c:	4770      	bx	lr
 8005b4e:	bf00      	nop
 8005b50:	2000002c 	.word	0x2000002c
	...

08005b60 <PendSV_Handler>:
	__asm volatile
 8005b60:	f3ef 8009 	mrs	r0, PSP
 8005b64:	f3bf 8f6f 	isb	sy
 8005b68:	4b15      	ldr	r3, [pc, #84]	@ (8005bc0 <pxCurrentTCBConst>)
 8005b6a:	681a      	ldr	r2, [r3, #0]
 8005b6c:	f01e 0f10 	tst.w	lr, #16
 8005b70:	bf08      	it	eq
 8005b72:	ed20 8a10 	vstmdbeq	r0!, {s16-s31}
 8005b76:	e920 4ff0 	stmdb	r0!, {r4, r5, r6, r7, r8, r9, sl, fp, lr}
 8005b7a:	6010      	str	r0, [r2, #0]
 8005b7c:	e92d 0009 	stmdb	sp!, {r0, r3}
 8005b80:	f04f 0050 	mov.w	r0, #80	@ 0x50
 8005b84:	f380 8811 	msr	BASEPRI, r0
 8005b88:	f3bf 8f4f 	dsb	sy
 8005b8c:	f3bf 8f6f 	isb	sy
 8005b90:	f7ff fa14 	bl	8004fbc <vTaskSwitchContext>
 8005b94:	f04f 0000 	mov.w	r0, #0
 8005b98:	f380 8811 	msr	BASEPRI, r0
 8005b9c:	bc09      	pop	{r0, r3}
 8005b9e:	6819      	ldr	r1, [r3, #0]
 8005ba0:	6808      	ldr	r0, [r1, #0]
 8005ba2:	e8b0 4ff0 	ldmia.w	r0!, {r4, r5, r6, r7, r8, r9, sl, fp, lr}
 8005ba6:	f01e 0f10 	tst.w	lr, #16
 8005baa:	bf08      	it	eq
 8005bac:	ecb0 8a10 	vldmiaeq	r0!, {s16-s31}
 8005bb0:	f380 8809 	msr	PSP, r0
 8005bb4:	f3bf 8f6f 	isb	sy
 8005bb8:	4770      	bx	lr
 8005bba:	bf00      	nop
 8005bbc:	f3af 8000 	nop.w

08005bc0 <pxCurrentTCBConst>:
 8005bc0:	20001350 	.word	0x20001350

08005bc4 <xPortSysTickHandler>:
{
 8005bc4:	b508      	push	{r3, lr}
	__asm volatile
 8005bc6:	f04f 0350 	mov.w	r3, #80	@ 0x50
 8005bca:	f383 8811 	msr	BASEPRI, r3
 8005bce:	f3bf 8f6f 	isb	sy
 8005bd2:	f3bf 8f4f 	dsb	sy
		if( xTaskIncrementTick() != pdFALSE )
 8005bd6:	f7ff f8c3 	bl	8004d60 <xTaskIncrementTick>
 8005bda:	b128      	cbz	r0, 8005be8 <xPortSysTickHandler+0x24>
			portNVIC_INT_CTRL_REG = portNVIC_PENDSVSET_BIT;
 8005bdc:	f04f 23e0 	mov.w	r3, #3758153728	@ 0xe000e000
 8005be0:	f04f 5280 	mov.w	r2, #268435456	@ 0x10000000
 8005be4:	f8c3 2d04 	str.w	r2, [r3, #3332]	@ 0xd04
	__asm volatile
 8005be8:	2300      	movs	r3, #0
 8005bea:	f383 8811 	msr	BASEPRI, r3
}
 8005bee:	bd08      	pop	{r3, pc}

08005bf0 <vPortSetupTimerInterrupt>:
	portNVIC_SYSTICK_CTRL_REG = 0UL;
 8005bf0:	f04f 22e0 	mov.w	r2, #3758153728	@ 0xe000e000
 8005bf4:	2300      	movs	r3, #0
 8005bf6:	6113      	str	r3, [r2, #16]
	portNVIC_SYSTICK_CURRENT_VALUE_REG = 0UL;
 8005bf8:	6193      	str	r3, [r2, #24]
	portNVIC_SYSTICK_LOAD_REG = ( configSYSTICK_CLOCK_HZ / configTICK_RATE_HZ ) - 1UL;
 8005bfa:	4b05      	ldr	r3, [pc, #20]	@ (8005c10 <vPortSetupTimerInterrupt+0x20>)
 8005bfc:	681b      	ldr	r3, [r3, #0]
 8005bfe:	4905      	ldr	r1, [pc, #20]	@ (8005c14 <vPortSetupTimerInterrupt+0x24>)
 8005c00:	fba1 1303 	umull	r1, r3, r1, r3
 8005c04:	099b      	lsrs	r3, r3, #6
 8005c06:	3b01      	subs	r3, #1
 8005c08:	6153      	str	r3, [r2, #20]
	portNVIC_SYSTICK_CTRL_REG = ( portNVIC_SYSTICK_CLK_BIT | portNVIC_SYSTICK_INT_BIT | portNVIC_SYSTICK_ENABLE_BIT );
 8005c0a:	2307      	movs	r3, #7
 8005c0c:	6113      	str	r3, [r2, #16]
}
 8005c0e:	4770      	bx	lr
 8005c10:	20000020 	.word	0x20000020
 8005c14:	10624dd3 	.word	0x10624dd3

08005c18 <xPortStartScheduler>:
	configASSERT( portCPUID != portCORTEX_M7_r0p1_ID );
 8005c18:	f04f 23e0 	mov.w	r3, #3758153728	@ 0xe000e000
 8005c1c:	f8d3 2d00 	ldr.w	r2, [r3, #3328]	@ 0xd00
 8005c20:	4b3d      	ldr	r3, [pc, #244]	@ (8005d18 <xPortStartScheduler+0x100>)
 8005c22:	429a      	cmp	r2, r3
 8005c24:	d01c      	beq.n	8005c60 <xPortStartScheduler+0x48>
	configASSERT( portCPUID != portCORTEX_M7_r0p0_ID );
 8005c26:	f04f 23e0 	mov.w	r3, #3758153728	@ 0xe000e000
 8005c2a:	f8d3 2d00 	ldr.w	r2, [r3, #3328]	@ 0xd00
 8005c2e:	4b3b      	ldr	r3, [pc, #236]	@ (8005d1c <xPortStartScheduler+0x104>)
 8005c30:	429a      	cmp	r2, r3
 8005c32:	d01e      	beq.n	8005c72 <xPortStartScheduler+0x5a>
{
 8005c34:	b530      	push	{r4, r5, lr}
 8005c36:	b083      	sub	sp, #12
		ulOriginalPriority = *pucFirstUserPriorityRegister;
 8005c38:	4b39      	ldr	r3, [pc, #228]	@ (8005d20 <xPortStartScheduler+0x108>)
 8005c3a:	781a      	ldrb	r2, [r3, #0]
 8005c3c:	b2d2      	uxtb	r2, r2
 8005c3e:	9201      	str	r2, [sp, #4]
		*pucFirstUserPriorityRegister = portMAX_8_BIT_VALUE;
 8005c40:	22ff      	movs	r2, #255	@ 0xff
 8005c42:	701a      	strb	r2, [r3, #0]
		ucMaxPriorityValue = *pucFirstUserPriorityRegister;
 8005c44:	781b      	ldrb	r3, [r3, #0]
 8005c46:	b2db      	uxtb	r3, r3
 8005c48:	f88d 3003 	strb.w	r3, [sp, #3]
		ucMaxSysCallPriority = configMAX_SYSCALL_INTERRUPT_PRIORITY & ucMaxPriorityValue;
 8005c4c:	f89d 3003 	ldrb.w	r3, [sp, #3]
 8005c50:	f003 0350 	and.w	r3, r3, #80	@ 0x50
 8005c54:	4a33      	ldr	r2, [pc, #204]	@ (8005d24 <xPortStartScheduler+0x10c>)
 8005c56:	7013      	strb	r3, [r2, #0]
		ulMaxPRIGROUPValue = portMAX_PRIGROUP_BITS;
 8005c58:	4b33      	ldr	r3, [pc, #204]	@ (8005d28 <xPortStartScheduler+0x110>)
 8005c5a:	2207      	movs	r2, #7
 8005c5c:	601a      	str	r2, [r3, #0]
		while( ( ucMaxPriorityValue & portTOP_BIT_OF_BYTE ) == portTOP_BIT_OF_BYTE )
 8005c5e:	e01b      	b.n	8005c98 <xPortStartScheduler+0x80>
	__asm volatile
 8005c60:	f04f 0350 	mov.w	r3, #80	@ 0x50
 8005c64:	f383 8811 	msr	BASEPRI, r3
 8005c68:	f3bf 8f6f 	isb	sy
 8005c6c:	f3bf 8f4f 	dsb	sy
	configASSERT( portCPUID != portCORTEX_M7_r0p1_ID );
 8005c70:	e7fe      	b.n	8005c70 <xPortStartScheduler+0x58>
 8005c72:	f04f 0350 	mov.w	r3, #80	@ 0x50
 8005c76:	f383 8811 	msr	BASEPRI, r3
 8005c7a:	f3bf 8f6f 	isb	sy
 8005c7e:	f3bf 8f4f 	dsb	sy
	configASSERT( portCPUID != portCORTEX_M7_r0p0_ID );
 8005c82:	e7fe      	b.n	8005c82 <xPortStartScheduler+0x6a>
			ulMaxPRIGROUPValue--;
 8005c84:	4a28      	ldr	r2, [pc, #160]	@ (8005d28 <xPortStartScheduler+0x110>)
 8005c86:	6813      	ldr	r3, [r2, #0]
 8005c88:	3b01      	subs	r3, #1
 8005c8a:	6013      	str	r3, [r2, #0]
			ucMaxPriorityValue <<= ( uint8_t ) 0x01;
 8005c8c:	f89d 3003 	ldrb.w	r3, [sp, #3]
 8005c90:	005b      	lsls	r3, r3, #1
 8005c92:	b2db      	uxtb	r3, r3
 8005c94:	f88d 3003 	strb.w	r3, [sp, #3]
		while( ( ucMaxPriorityValue & portTOP_BIT_OF_BYTE ) == portTOP_BIT_OF_BYTE )
 8005c98:	f89d 3003 	ldrb.w	r3, [sp, #3]
 8005c9c:	f013 0f80 	tst.w	r3, #128	@ 0x80
 8005ca0:	d1f0      	bne.n	8005c84 <xPortStartScheduler+0x6c>
			configASSERT( ( portMAX_PRIGROUP_BITS - ulMaxPRIGROUPValue ) == configPRIO_BITS );
 8005ca2:	4b21      	ldr	r3, [pc, #132]	@ (8005d28 <xPortStartScheduler+0x110>)
 8005ca4:	681b      	ldr	r3, [r3, #0]
 8005ca6:	2b03      	cmp	r3, #3
 8005ca8:	d008      	beq.n	8005cbc <xPortStartScheduler+0xa4>
 8005caa:	f04f 0350 	mov.w	r3, #80	@ 0x50
 8005cae:	f383 8811 	msr	BASEPRI, r3
 8005cb2:	f3bf 8f6f 	isb	sy
 8005cb6:	f3bf 8f4f 	dsb	sy
 8005cba:	e7fe      	b.n	8005cba <xPortStartScheduler+0xa2>
		ulMaxPRIGROUPValue <<= portPRIGROUP_SHIFT;
 8005cbc:	021b      	lsls	r3, r3, #8
 8005cbe:	4a1a      	ldr	r2, [pc, #104]	@ (8005d28 <xPortStartScheduler+0x110>)
 8005cc0:	6013      	str	r3, [r2, #0]
		ulMaxPRIGROUPValue &= portPRIORITY_GROUP_MASK;
 8005cc2:	f403 63e0 	and.w	r3, r3, #1792	@ 0x700
 8005cc6:	6013      	str	r3, [r2, #0]
		*pucFirstUserPriorityRegister = ulOriginalPriority;
 8005cc8:	9b01      	ldr	r3, [sp, #4]
 8005cca:	b2db      	uxtb	r3, r3
 8005ccc:	4a14      	ldr	r2, [pc, #80]	@ (8005d20 <xPortStartScheduler+0x108>)
 8005cce:	7013      	strb	r3, [r2, #0]
	portNVIC_SYSPRI2_REG |= portNVIC_PENDSV_PRI;
 8005cd0:	f04f 24e0 	mov.w	r4, #3758153728	@ 0xe000e000
 8005cd4:	f8d4 3d20 	ldr.w	r3, [r4, #3360]	@ 0xd20
 8005cd8:	f443 0370 	orr.w	r3, r3, #15728640	@ 0xf00000
 8005cdc:	f8c4 3d20 	str.w	r3, [r4, #3360]	@ 0xd20
	portNVIC_SYSPRI2_REG |= portNVIC_SYSTICK_PRI;
 8005ce0:	f8d4 3d20 	ldr.w	r3, [r4, #3360]	@ 0xd20
 8005ce4:	f043 4370 	orr.w	r3, r3, #4026531840	@ 0xf0000000
 8005ce8:	f8c4 3d20 	str.w	r3, [r4, #3360]	@ 0xd20
	vPortSetupTimerInterrupt();
 8005cec:	f7ff ff80 	bl	8005bf0 <vPortSetupTimerInterrupt>
	uxCriticalNesting = 0;
 8005cf0:	2500      	movs	r5, #0
 8005cf2:	4b0e      	ldr	r3, [pc, #56]	@ (8005d2c <xPortStartScheduler+0x114>)
 8005cf4:	601d      	str	r5, [r3, #0]
	vPortEnableVFP();
 8005cf6:	f7ff febf 	bl	8005a78 <vPortEnableVFP>
	*( portFPCCR ) |= portASPEN_AND_LSPEN_BITS;
 8005cfa:	f8d4 3f34 	ldr.w	r3, [r4, #3892]	@ 0xf34
 8005cfe:	f043 4340 	orr.w	r3, r3, #3221225472	@ 0xc0000000
 8005d02:	f8c4 3f34 	str.w	r3, [r4, #3892]	@ 0xf34
	prvPortStartFirstTask();
 8005d06:	f7ff fea3 	bl	8005a50 <prvPortStartFirstTask>
	vTaskSwitchContext();
 8005d0a:	f7ff f957 	bl	8004fbc <vTaskSwitchContext>
	prvTaskExitError();
 8005d0e:	f7ff fe7f 	bl	8005a10 <prvTaskExitError>
}
 8005d12:	4628      	mov	r0, r5
 8005d14:	b003      	add	sp, #12
 8005d16:	bd30      	pop	{r4, r5, pc}
 8005d18:	410fc271 	.word	0x410fc271
 8005d1c:	410fc270 	.word	0x410fc270
 8005d20:	e000e400 	.word	0xe000e400
 8005d24:	20001484 	.word	0x20001484
 8005d28:	20001480 	.word	0x20001480
 8005d2c:	2000002c 	.word	0x2000002c

08005d30 <vPortValidateInterruptPriority>:
	{
	uint32_t ulCurrentInterrupt;
	uint8_t ucCurrentPriority;

		/* Obtain the number of the currently executing interrupt. */
		__asm volatile( "mrs %0, ipsr" : "=r"( ulCurrentInterrupt ) :: "memory" );
 8005d30:	f3ef 8305 	mrs	r3, IPSR

		/* Is the interrupt number a user defined interrupt? */
		if( ulCurrentInterrupt >= portFIRST_USER_INTERRUPT_NUMBER )
 8005d34:	2b0f      	cmp	r3, #15
 8005d36:	d90f      	bls.n	8005d58 <vPortValidateInterruptPriority+0x28>
		{
			/* Look up the interrupt's priority. */
			ucCurrentPriority = pcInterruptPriorityRegisters[ ulCurrentInterrupt ];
 8005d38:	4a11      	ldr	r2, [pc, #68]	@ (8005d80 <vPortValidateInterruptPriority+0x50>)
 8005d3a:	5c9b      	ldrb	r3, [r3, r2]
 8005d3c:	b2db      	uxtb	r3, r3
			interrupt entry is as fast and simple as possible.

			The following links provide detailed information:
			http://www.freertos.org/RTOS-Cortex-M3-M4.html
			http://www.freertos.org/FAQHelp.html */
			configASSERT( ucCurrentPriority >= ucMaxSysCallPriority );
 8005d3e:	4a11      	ldr	r2, [pc, #68]	@ (8005d84 <vPortValidateInterruptPriority+0x54>)
 8005d40:	7812      	ldrb	r2, [r2, #0]
 8005d42:	429a      	cmp	r2, r3
 8005d44:	d908      	bls.n	8005d58 <vPortValidateInterruptPriority+0x28>
 8005d46:	f04f 0350 	mov.w	r3, #80	@ 0x50
 8005d4a:	f383 8811 	msr	BASEPRI, r3
 8005d4e:	f3bf 8f6f 	isb	sy
 8005d52:	f3bf 8f4f 	dsb	sy
 8005d56:	e7fe      	b.n	8005d56 <vPortValidateInterruptPriority+0x26>
		configuration then the correct setting can be achieved on all Cortex-M
		devices by calling NVIC_SetPriorityGrouping( 0 ); before starting the
		scheduler.  Note however that some vendor specific peripheral libraries
		assume a non-zero priority group setting, in which cases using a value
		of zero will result in unpredictable behaviour. */
		configASSERT( ( portAIRCR_REG & portPRIORITY_GROUP_MASK ) <= ulMaxPRIGROUPValue );
 8005d58:	f04f 23e0 	mov.w	r3, #3758153728	@ 0xe000e000
 8005d5c:	f8d3 3d0c 	ldr.w	r3, [r3, #3340]	@ 0xd0c
 8005d60:	f403 63e0 	and.w	r3, r3, #1792	@ 0x700
 8005d64:	4a08      	ldr	r2, [pc, #32]	@ (8005d88 <vPortValidateInterruptPriority+0x58>)
 8005d66:	6812      	ldr	r2, [r2, #0]
 8005d68:	4293      	cmp	r3, r2
 8005d6a:	d908      	bls.n	8005d7e <vPortValidateInterruptPriority+0x4e>
 8005d6c:	f04f 0350 	mov.w	r3, #80	@ 0x50
 8005d70:	f383 8811 	msr	BASEPRI, r3
 8005d74:	f3bf 8f6f 	isb	sy
 8005d78:	f3bf 8f4f 	dsb	sy
 8005d7c:	e7fe      	b.n	8005d7c <vPortValidateInterruptPriority+0x4c>
	}
 8005d7e:	4770      	bx	lr
 8005d80:	e000e3f0 	.word	0xe000e3f0
 8005d84:	20001484 	.word	0x20001484
 8005d88:	20001480 	.word	0x20001480

08005d8c <prvHeapInit>:
uint8_t *pucAlignedHeap;
size_t uxAddress;
size_t xTotalHeapSize = configTOTAL_HEAP_SIZE;

	/* Ensure the heap starts on a correctly aligned boundary. */
	uxAddress = ( size_t ) ucHeap;
 8005d8c:	4a12      	ldr	r2, [pc, #72]	@ (8005dd8 <prvHeapInit+0x4c>)

	if( ( uxAddress & portBYTE_ALIGNMENT_MASK ) != 0 )
 8005d8e:	f012 0f07 	tst.w	r2, #7
 8005d92:	d01e      	beq.n	8005dd2 <prvHeapInit+0x46>
	{
		uxAddress += ( portBYTE_ALIGNMENT - 1 );
 8005d94:	1dd1      	adds	r1, r2, #7
		uxAddress &= ~( ( size_t ) portBYTE_ALIGNMENT_MASK );
 8005d96:	f021 0107 	bic.w	r1, r1, #7
		xTotalHeapSize -= uxAddress - ( size_t ) ucHeap;
 8005d9a:	f5c1 3380 	rsb	r3, r1, #65536	@ 0x10000
 8005d9e:	4413      	add	r3, r2
		uxAddress &= ~( ( size_t ) portBYTE_ALIGNMENT_MASK );
 8005da0:	460a      	mov	r2, r1

	pucAlignedHeap = ( uint8_t * ) uxAddress;

	/* xStart is used to hold a pointer to the first item in the list of free
	blocks.  The void cast is used to prevent compiler warnings. */
	xStart.pxNextFreeBlock = ( void * ) pucAlignedHeap;
 8005da2:	480e      	ldr	r0, [pc, #56]	@ (8005ddc <prvHeapInit+0x50>)
 8005da4:	6002      	str	r2, [r0, #0]
	xStart.xBlockSize = ( size_t ) 0;
 8005da6:	2100      	movs	r1, #0
 8005da8:	6041      	str	r1, [r0, #4]

	/* pxEnd is used to mark the end of the list of free blocks and is inserted
	at the end of the heap space. */
	uxAddress = ( ( size_t ) pucAlignedHeap ) + xTotalHeapSize;
 8005daa:	4413      	add	r3, r2
	uxAddress -= xHeapStructSize;
 8005dac:	3b08      	subs	r3, #8
	uxAddress &= ~( ( size_t ) portBYTE_ALIGNMENT_MASK );
 8005dae:	f023 0307 	bic.w	r3, r3, #7
	pxEnd = ( void * ) uxAddress;
 8005db2:	480b      	ldr	r0, [pc, #44]	@ (8005de0 <prvHeapInit+0x54>)
 8005db4:	6003      	str	r3, [r0, #0]
	pxEnd->xBlockSize = 0;
 8005db6:	6059      	str	r1, [r3, #4]
	pxEnd->pxNextFreeBlock = NULL;
 8005db8:	6019      	str	r1, [r3, #0]

	/* To start with there is a single free block that is sized to take up the
	entire heap space, minus the space taken by pxEnd. */
	pxFirstFreeBlock = ( void * ) pucAlignedHeap;
	pxFirstFreeBlock->xBlockSize = uxAddress - ( size_t ) pxFirstFreeBlock;
 8005dba:	1a99      	subs	r1, r3, r2
 8005dbc:	6051      	str	r1, [r2, #4]
	pxFirstFreeBlock->pxNextFreeBlock = pxEnd;
 8005dbe:	6013      	str	r3, [r2, #0]

	/* Only one block exists - and it covers the entire usable heap space. */
	xMinimumEverFreeBytesRemaining = pxFirstFreeBlock->xBlockSize;
 8005dc0:	4b08      	ldr	r3, [pc, #32]	@ (8005de4 <prvHeapInit+0x58>)
 8005dc2:	6019      	str	r1, [r3, #0]
	xFreeBytesRemaining = pxFirstFreeBlock->xBlockSize;
 8005dc4:	4b08      	ldr	r3, [pc, #32]	@ (8005de8 <prvHeapInit+0x5c>)
 8005dc6:	6019      	str	r1, [r3, #0]

	/* Work out the position of the top bit in a size_t variable. */
	xBlockAllocatedBit = ( ( size_t ) 1 ) << ( ( sizeof( size_t ) * heapBITS_PER_BYTE ) - 1 );
 8005dc8:	4b08      	ldr	r3, [pc, #32]	@ (8005dec <prvHeapInit+0x60>)
 8005dca:	f04f 4200 	mov.w	r2, #2147483648	@ 0x80000000
 8005dce:	601a      	str	r2, [r3, #0]
}
 8005dd0:	4770      	bx	lr
size_t xTotalHeapSize = configTOTAL_HEAP_SIZE;
 8005dd2:	f44f 3380 	mov.w	r3, #65536	@ 0x10000
 8005dd6:	e7e4      	b.n	8005da2 <prvHeapInit+0x16>
 8005dd8:	10000000 	.word	0x10000000
 8005ddc:	200014a0 	.word	0x200014a0
 8005de0:	2000149c 	.word	0x2000149c
 8005de4:	20001494 	.word	0x20001494
 8005de8:	20001498 	.word	0x20001498
 8005dec:	20001488 	.word	0x20001488

08005df0 <prvInsertBlockIntoFreeList>:
BlockLink_t *pxIterator;
uint8_t *puc;

	/* Iterate through the list until a block is found that has a higher address
	than the block being inserted. */
	for( pxIterator = &xStart; pxIterator->pxNextFreeBlock < pxBlockToInsert; pxIterator = pxIterator->pxNextFreeBlock )
 8005df0:	4b16      	ldr	r3, [pc, #88]	@ (8005e4c <prvInsertBlockIntoFreeList+0x5c>)
 8005df2:	461a      	mov	r2, r3
 8005df4:	681b      	ldr	r3, [r3, #0]
 8005df6:	4283      	cmp	r3, r0
 8005df8:	d3fb      	bcc.n	8005df2 <prvInsertBlockIntoFreeList+0x2>
	}

	/* Do the block being inserted, and the block it is being inserted after
	make a contiguous block of memory? */
	puc = ( uint8_t * ) pxIterator;
	if( ( puc + pxIterator->xBlockSize ) == ( uint8_t * ) pxBlockToInsert )
 8005dfa:	6851      	ldr	r1, [r2, #4]
 8005dfc:	eb02 0c01 	add.w	ip, r2, r1
 8005e00:	4584      	cmp	ip, r0
 8005e02:	d009      	beq.n	8005e18 <prvInsertBlockIntoFreeList+0x28>
	}

	/* Do the block being inserted, and the block it is being inserted before
	make a contiguous block of memory? */
	puc = ( uint8_t * ) pxBlockToInsert;
	if( ( puc + pxBlockToInsert->xBlockSize ) == ( uint8_t * ) pxIterator->pxNextFreeBlock )
 8005e04:	6841      	ldr	r1, [r0, #4]
 8005e06:	eb00 0c01 	add.w	ip, r0, r1
 8005e0a:	4563      	cmp	r3, ip
 8005e0c:	d009      	beq.n	8005e22 <prvInsertBlockIntoFreeList+0x32>
			pxBlockToInsert->pxNextFreeBlock = pxEnd;
		}
	}
	else
	{
		pxBlockToInsert->pxNextFreeBlock = pxIterator->pxNextFreeBlock;
 8005e0e:	6003      	str	r3, [r0, #0]

	/* If the block being inserted plugged a gab, so was merged with the block
	before and the block after, then it's pxNextFreeBlock pointer will have
	already been set, and should not be set here as that would make it point
	to itself. */
	if( pxIterator != pxBlockToInsert )
 8005e10:	4290      	cmp	r0, r2
 8005e12:	d019      	beq.n	8005e48 <prvInsertBlockIntoFreeList+0x58>
	{
		pxIterator->pxNextFreeBlock = pxBlockToInsert;
 8005e14:	6010      	str	r0, [r2, #0]
	}
	else
	{
		mtCOVERAGE_TEST_MARKER();
 8005e16:	4770      	bx	lr
		pxIterator->xBlockSize += pxBlockToInsert->xBlockSize;
 8005e18:	6840      	ldr	r0, [r0, #4]
 8005e1a:	4401      	add	r1, r0
 8005e1c:	6051      	str	r1, [r2, #4]
		pxBlockToInsert = pxIterator;
 8005e1e:	4610      	mov	r0, r2
 8005e20:	e7f0      	b.n	8005e04 <prvInsertBlockIntoFreeList+0x14>
{
 8005e22:	b410      	push	{r4}
		if( pxIterator->pxNextFreeBlock != pxEnd )
 8005e24:	4c0a      	ldr	r4, [pc, #40]	@ (8005e50 <prvInsertBlockIntoFreeList+0x60>)
 8005e26:	6824      	ldr	r4, [r4, #0]
 8005e28:	42a3      	cmp	r3, r4
 8005e2a:	d00b      	beq.n	8005e44 <prvInsertBlockIntoFreeList+0x54>
			pxBlockToInsert->xBlockSize += pxIterator->pxNextFreeBlock->xBlockSize;
 8005e2c:	685b      	ldr	r3, [r3, #4]
 8005e2e:	4419      	add	r1, r3
 8005e30:	6041      	str	r1, [r0, #4]
			pxBlockToInsert->pxNextFreeBlock = pxIterator->pxNextFreeBlock->pxNextFreeBlock;
 8005e32:	6813      	ldr	r3, [r2, #0]
 8005e34:	681b      	ldr	r3, [r3, #0]
 8005e36:	6003      	str	r3, [r0, #0]
	if( pxIterator != pxBlockToInsert )
 8005e38:	4290      	cmp	r0, r2
 8005e3a:	d000      	beq.n	8005e3e <prvInsertBlockIntoFreeList+0x4e>
		pxIterator->pxNextFreeBlock = pxBlockToInsert;
 8005e3c:	6010      	str	r0, [r2, #0]
	}
}
 8005e3e:	f85d 4b04 	ldr.w	r4, [sp], #4
 8005e42:	4770      	bx	lr
			pxBlockToInsert->pxNextFreeBlock = pxEnd;
 8005e44:	6004      	str	r4, [r0, #0]
 8005e46:	e7f7      	b.n	8005e38 <prvInsertBlockIntoFreeList+0x48>
 8005e48:	4770      	bx	lr
 8005e4a:	bf00      	nop
 8005e4c:	200014a0 	.word	0x200014a0
 8005e50:	2000149c 	.word	0x2000149c

08005e54 <pvPortMalloc>:
{
 8005e54:	b538      	push	{r3, r4, r5, lr}
 8005e56:	4604      	mov	r4, r0
	vTaskSuspendAll();
 8005e58:	f7fe ff66 	bl	8004d28 <vTaskSuspendAll>
		if( pxEnd == NULL )
 8005e5c:	4b38      	ldr	r3, [pc, #224]	@ (8005f40 <pvPortMalloc+0xec>)
 8005e5e:	681b      	ldr	r3, [r3, #0]
 8005e60:	b1b3      	cbz	r3, 8005e90 <pvPortMalloc+0x3c>
		if( ( xWantedSize & xBlockAllocatedBit ) == 0 )
 8005e62:	4b38      	ldr	r3, [pc, #224]	@ (8005f44 <pvPortMalloc+0xf0>)
 8005e64:	681b      	ldr	r3, [r3, #0]
 8005e66:	421c      	tst	r4, r3
 8005e68:	d150      	bne.n	8005f0c <pvPortMalloc+0xb8>
			if( xWantedSize > 0 )
 8005e6a:	2c00      	cmp	r4, #0
 8005e6c:	d050      	beq.n	8005f10 <pvPortMalloc+0xbc>
				xWantedSize += xHeapStructSize;
 8005e6e:	f104 0208 	add.w	r2, r4, #8
				if( ( xWantedSize & portBYTE_ALIGNMENT_MASK ) != 0x00 )
 8005e72:	f014 0f07 	tst.w	r4, #7
 8005e76:	d002      	beq.n	8005e7e <pvPortMalloc+0x2a>
					xWantedSize += ( portBYTE_ALIGNMENT - ( xWantedSize & portBYTE_ALIGNMENT_MASK ) );
 8005e78:	f022 0207 	bic.w	r2, r2, #7
 8005e7c:	3208      	adds	r2, #8
			if( ( xWantedSize > 0 ) && ( xWantedSize <= xFreeBytesRemaining ) )
 8005e7e:	2a00      	cmp	r2, #0
 8005e80:	d055      	beq.n	8005f2e <pvPortMalloc+0xda>
 8005e82:	4b31      	ldr	r3, [pc, #196]	@ (8005f48 <pvPortMalloc+0xf4>)
 8005e84:	681b      	ldr	r3, [r3, #0]
 8005e86:	4293      	cmp	r3, r2
 8005e88:	d353      	bcc.n	8005f32 <pvPortMalloc+0xde>
				pxBlock = xStart.pxNextFreeBlock;
 8005e8a:	4930      	ldr	r1, [pc, #192]	@ (8005f4c <pvPortMalloc+0xf8>)
 8005e8c:	680c      	ldr	r4, [r1, #0]
				while( ( pxBlock->xBlockSize < xWantedSize ) && ( pxBlock->pxNextFreeBlock != NULL ) )
 8005e8e:	e004      	b.n	8005e9a <pvPortMalloc+0x46>
			prvHeapInit();
 8005e90:	f7ff ff7c 	bl	8005d8c <prvHeapInit>
 8005e94:	e7e5      	b.n	8005e62 <pvPortMalloc+0xe>
					pxPreviousBlock = pxBlock;
 8005e96:	4621      	mov	r1, r4
					pxBlock = pxBlock->pxNextFreeBlock;
 8005e98:	461c      	mov	r4, r3
				while( ( pxBlock->xBlockSize < xWantedSize ) && ( pxBlock->pxNextFreeBlock != NULL ) )
 8005e9a:	6863      	ldr	r3, [r4, #4]
 8005e9c:	4293      	cmp	r3, r2
 8005e9e:	d202      	bcs.n	8005ea6 <pvPortMalloc+0x52>
 8005ea0:	6823      	ldr	r3, [r4, #0]
 8005ea2:	2b00      	cmp	r3, #0
 8005ea4:	d1f7      	bne.n	8005e96 <pvPortMalloc+0x42>
				if( pxBlock != pxEnd )
 8005ea6:	4b26      	ldr	r3, [pc, #152]	@ (8005f40 <pvPortMalloc+0xec>)
 8005ea8:	681b      	ldr	r3, [r3, #0]
 8005eaa:	42a3      	cmp	r3, r4
 8005eac:	d043      	beq.n	8005f36 <pvPortMalloc+0xe2>
					pvReturn = ( void * ) ( ( ( uint8_t * ) pxPreviousBlock->pxNextFreeBlock ) + xHeapStructSize );
 8005eae:	680d      	ldr	r5, [r1, #0]
 8005eb0:	3508      	adds	r5, #8
					pxPreviousBlock->pxNextFreeBlock = pxBlock->pxNextFreeBlock;
 8005eb2:	6823      	ldr	r3, [r4, #0]
 8005eb4:	600b      	str	r3, [r1, #0]
					if( ( pxBlock->xBlockSize - xWantedSize ) > heapMINIMUM_BLOCK_SIZE )
 8005eb6:	6863      	ldr	r3, [r4, #4]
 8005eb8:	1a9b      	subs	r3, r3, r2
 8005eba:	2b10      	cmp	r3, #16
 8005ebc:	d910      	bls.n	8005ee0 <pvPortMalloc+0x8c>
						pxNewBlockLink = ( void * ) ( ( ( uint8_t * ) pxBlock ) + xWantedSize );
 8005ebe:	18a0      	adds	r0, r4, r2
						configASSERT( ( ( ( size_t ) pxNewBlockLink ) & portBYTE_ALIGNMENT_MASK ) == 0 );
 8005ec0:	f010 0f07 	tst.w	r0, #7
 8005ec4:	d008      	beq.n	8005ed8 <pvPortMalloc+0x84>
 8005ec6:	f04f 0350 	mov.w	r3, #80	@ 0x50
 8005eca:	f383 8811 	msr	BASEPRI, r3
 8005ece:	f3bf 8f6f 	isb	sy
 8005ed2:	f3bf 8f4f 	dsb	sy
 8005ed6:	e7fe      	b.n	8005ed6 <pvPortMalloc+0x82>
						pxNewBlockLink->xBlockSize = pxBlock->xBlockSize - xWantedSize;
 8005ed8:	6043      	str	r3, [r0, #4]
						pxBlock->xBlockSize = xWantedSize;
 8005eda:	6062      	str	r2, [r4, #4]
						prvInsertBlockIntoFreeList( pxNewBlockLink );
 8005edc:	f7ff ff88 	bl	8005df0 <prvInsertBlockIntoFreeList>
					xFreeBytesRemaining -= pxBlock->xBlockSize;
 8005ee0:	6862      	ldr	r2, [r4, #4]
 8005ee2:	4919      	ldr	r1, [pc, #100]	@ (8005f48 <pvPortMalloc+0xf4>)
 8005ee4:	680b      	ldr	r3, [r1, #0]
 8005ee6:	1a9b      	subs	r3, r3, r2
 8005ee8:	600b      	str	r3, [r1, #0]
					if( xFreeBytesRemaining < xMinimumEverFreeBytesRemaining )
 8005eea:	4919      	ldr	r1, [pc, #100]	@ (8005f50 <pvPortMalloc+0xfc>)
 8005eec:	6809      	ldr	r1, [r1, #0]
 8005eee:	428b      	cmp	r3, r1
 8005ef0:	d201      	bcs.n	8005ef6 <pvPortMalloc+0xa2>
						xMinimumEverFreeBytesRemaining = xFreeBytesRemaining;
 8005ef2:	4917      	ldr	r1, [pc, #92]	@ (8005f50 <pvPortMalloc+0xfc>)
 8005ef4:	600b      	str	r3, [r1, #0]
					pxBlock->xBlockSize |= xBlockAllocatedBit;
 8005ef6:	4b13      	ldr	r3, [pc, #76]	@ (8005f44 <pvPortMalloc+0xf0>)
 8005ef8:	681b      	ldr	r3, [r3, #0]
 8005efa:	4313      	orrs	r3, r2
 8005efc:	6063      	str	r3, [r4, #4]
					pxBlock->pxNextFreeBlock = NULL;
 8005efe:	2300      	movs	r3, #0
 8005f00:	6023      	str	r3, [r4, #0]
					xNumberOfSuccessfulAllocations++;
 8005f02:	4a14      	ldr	r2, [pc, #80]	@ (8005f54 <pvPortMalloc+0x100>)
 8005f04:	6813      	ldr	r3, [r2, #0]
 8005f06:	3301      	adds	r3, #1
 8005f08:	6013      	str	r3, [r2, #0]
 8005f0a:	e002      	b.n	8005f12 <pvPortMalloc+0xbe>
void *pvReturn = NULL;
 8005f0c:	2500      	movs	r5, #0
 8005f0e:	e000      	b.n	8005f12 <pvPortMalloc+0xbe>
 8005f10:	2500      	movs	r5, #0
	( void ) xTaskResumeAll();
 8005f12:	f7fe ffb1 	bl	8004e78 <xTaskResumeAll>
	configASSERT( ( ( ( size_t ) pvReturn ) & ( size_t ) portBYTE_ALIGNMENT_MASK ) == 0 );
 8005f16:	f015 0f07 	tst.w	r5, #7
 8005f1a:	d00e      	beq.n	8005f3a <pvPortMalloc+0xe6>
 8005f1c:	f04f 0350 	mov.w	r3, #80	@ 0x50
 8005f20:	f383 8811 	msr	BASEPRI, r3
 8005f24:	f3bf 8f6f 	isb	sy
 8005f28:	f3bf 8f4f 	dsb	sy
 8005f2c:	e7fe      	b.n	8005f2c <pvPortMalloc+0xd8>
void *pvReturn = NULL;
 8005f2e:	2500      	movs	r5, #0
 8005f30:	e7ef      	b.n	8005f12 <pvPortMalloc+0xbe>
 8005f32:	2500      	movs	r5, #0
 8005f34:	e7ed      	b.n	8005f12 <pvPortMalloc+0xbe>
 8005f36:	2500      	movs	r5, #0
 8005f38:	e7eb      	b.n	8005f12 <pvPortMalloc+0xbe>
}
 8005f3a:	4628      	mov	r0, r5
 8005f3c:	bd38      	pop	{r3, r4, r5, pc}
 8005f3e:	bf00      	nop
 8005f40:	2000149c 	.word	0x2000149c
 8005f44:	20001488 	.word	0x20001488
 8005f48:	20001498 	.word	0x20001498
 8005f4c:	200014a0 	.word	0x200014a0
 8005f50:	20001494 	.word	0x20001494
 8005f54:	20001490 	.word	0x20001490

08005f58 <vPortFree>:
	if( pv != NULL )
 8005f58:	2800      	cmp	r0, #0
 8005f5a:	d034      	beq.n	8005fc6 <vPortFree+0x6e>
{
 8005f5c:	b538      	push	{r3, r4, r5, lr}
 8005f5e:	4604      	mov	r4, r0
		puc -= xHeapStructSize;
 8005f60:	f1a0 0508 	sub.w	r5, r0, #8
		configASSERT( ( pxLink->xBlockSize & xBlockAllocatedBit ) != 0 );
 8005f64:	f850 3c04 	ldr.w	r3, [r0, #-4]
 8005f68:	4a17      	ldr	r2, [pc, #92]	@ (8005fc8 <vPortFree+0x70>)
 8005f6a:	6812      	ldr	r2, [r2, #0]
 8005f6c:	4213      	tst	r3, r2
 8005f6e:	d108      	bne.n	8005f82 <vPortFree+0x2a>
 8005f70:	f04f 0350 	mov.w	r3, #80	@ 0x50
 8005f74:	f383 8811 	msr	BASEPRI, r3
 8005f78:	f3bf 8f6f 	isb	sy
 8005f7c:	f3bf 8f4f 	dsb	sy
 8005f80:	e7fe      	b.n	8005f80 <vPortFree+0x28>
		configASSERT( pxLink->pxNextFreeBlock == NULL );
 8005f82:	f850 1c08 	ldr.w	r1, [r0, #-8]
 8005f86:	b141      	cbz	r1, 8005f9a <vPortFree+0x42>
 8005f88:	f04f 0350 	mov.w	r3, #80	@ 0x50
 8005f8c:	f383 8811 	msr	BASEPRI, r3
 8005f90:	f3bf 8f6f 	isb	sy
 8005f94:	f3bf 8f4f 	dsb	sy
 8005f98:	e7fe      	b.n	8005f98 <vPortFree+0x40>
				pxLink->xBlockSize &= ~xBlockAllocatedBit;
 8005f9a:	ea23 0302 	bic.w	r3, r3, r2
 8005f9e:	f840 3c04 	str.w	r3, [r0, #-4]
				vTaskSuspendAll();
 8005fa2:	f7fe fec1 	bl	8004d28 <vTaskSuspendAll>
					xFreeBytesRemaining += pxLink->xBlockSize;
 8005fa6:	f854 1c04 	ldr.w	r1, [r4, #-4]
 8005faa:	4a08      	ldr	r2, [pc, #32]	@ (8005fcc <vPortFree+0x74>)
 8005fac:	6813      	ldr	r3, [r2, #0]
 8005fae:	440b      	add	r3, r1
 8005fb0:	6013      	str	r3, [r2, #0]
					prvInsertBlockIntoFreeList( ( ( BlockLink_t * ) pxLink ) );
 8005fb2:	4628      	mov	r0, r5
 8005fb4:	f7ff ff1c 	bl	8005df0 <prvInsertBlockIntoFreeList>
					xNumberOfSuccessfulFrees++;
 8005fb8:	4a05      	ldr	r2, [pc, #20]	@ (8005fd0 <vPortFree+0x78>)
 8005fba:	6813      	ldr	r3, [r2, #0]
 8005fbc:	3301      	adds	r3, #1
 8005fbe:	6013      	str	r3, [r2, #0]
				( void ) xTaskResumeAll();
 8005fc0:	f7fe ff5a 	bl	8004e78 <xTaskResumeAll>
}
 8005fc4:	bd38      	pop	{r3, r4, r5, pc}
 8005fc6:	4770      	bx	lr
 8005fc8:	20001488 	.word	0x20001488
 8005fcc:	20001498 	.word	0x20001498
 8005fd0:	2000148c 	.word	0x2000148c

08005fd4 <arm_cos_f32>:
 8005fd4:	eddf 7a21 	vldr	s15, [pc, #132]	@ 800605c <arm_cos_f32+0x88>
 8005fd8:	ee20 0a27 	vmul.f32	s0, s0, s15
 8005fdc:	eef5 7a00 	vmov.f32	s15, #80	@ 0x3e800000  0.250
 8005fe0:	ee30 0a27 	vadd.f32	s0, s0, s15
 8005fe4:	eeb5 0ac0 	vcmpe.f32	s0, #0.0
 8005fe8:	eef1 fa10 	vmrs	APSR_nzcv, fpscr
 8005fec:	eefd 7ac0 	vcvt.s32.f32	s15, s0
 8005ff0:	d504      	bpl.n	8005ffc <arm_cos_f32+0x28>
 8005ff2:	ee17 3a90 	vmov	r3, s15
 8005ff6:	3b01      	subs	r3, #1
 8005ff8:	ee07 3a90 	vmov	s15, r3
 8005ffc:	eef8 7ae7 	vcvt.f32.s32	s15, s15
 8006000:	ed9f 7a17 	vldr	s14, [pc, #92]	@ 8006060 <arm_cos_f32+0x8c>
 8006004:	ee30 0a67 	vsub.f32	s0, s0, s15
 8006008:	ee20 0a07 	vmul.f32	s0, s0, s14
 800600c:	eefc 7ac0 	vcvt.u32.f32	s15, s0
 8006010:	ee17 3a90 	vmov	r3, s15
 8006014:	b29b      	uxth	r3, r3
 8006016:	f5b3 7f00 	cmp.w	r3, #512	@ 0x200
 800601a:	d21a      	bcs.n	8006052 <arm_cos_f32+0x7e>
 800601c:	ee07 3a90 	vmov	s15, r3
 8006020:	eef8 7a67 	vcvt.f32.u32	s15, s15
 8006024:	1c59      	adds	r1, r3, #1
 8006026:	ee30 0a67 	vsub.f32	s0, s0, s15
 800602a:	4a0e      	ldr	r2, [pc, #56]	@ (8006064 <arm_cos_f32+0x90>)
 800602c:	eef7 7a00 	vmov.f32	s15, #112	@ 0x3f800000  1.0
 8006030:	eb02 0383 	add.w	r3, r2, r3, lsl #2
 8006034:	eb02 0281 	add.w	r2, r2, r1, lsl #2
 8006038:	ed93 7a00 	vldr	s14, [r3]
 800603c:	edd2 6a00 	vldr	s13, [r2]
 8006040:	ee77 7ac0 	vsub.f32	s15, s15, s0
 8006044:	ee20 0a26 	vmul.f32	s0, s0, s13
 8006048:	ee67 7a87 	vmul.f32	s15, s15, s14
 800604c:	ee37 0a80 	vadd.f32	s0, s15, s0
 8006050:	4770      	bx	lr
 8006052:	ee30 0a47 	vsub.f32	s0, s0, s14
 8006056:	2101      	movs	r1, #1
 8006058:	2300      	movs	r3, #0
 800605a:	e7e6      	b.n	800602a <arm_cos_f32+0x56>
 800605c:	3e22f983 	.word	0x3e22f983
 8006060:	44000000 	.word	0x44000000
 8006064:	08008ef0 	.word	0x08008ef0

08006068 <__cvt>:
 8006068:	e92d 47ff 	stmdb	sp!, {r0, r1, r2, r3, r4, r5, r6, r7, r8, r9, sl, lr}
 800606c:	ec57 6b10 	vmov	r6, r7, d0
 8006070:	2f00      	cmp	r7, #0
 8006072:	460c      	mov	r4, r1
 8006074:	4619      	mov	r1, r3
 8006076:	463b      	mov	r3, r7
 8006078:	bfbb      	ittet	lt
 800607a:	f107 4300 	addlt.w	r3, r7, #2147483648	@ 0x80000000
 800607e:	461f      	movlt	r7, r3
 8006080:	2300      	movge	r3, #0
 8006082:	232d      	movlt	r3, #45	@ 0x2d
 8006084:	700b      	strb	r3, [r1, #0]
 8006086:	9b0d      	ldr	r3, [sp, #52]	@ 0x34
 8006088:	f8dd a030 	ldr.w	sl, [sp, #48]	@ 0x30
 800608c:	4691      	mov	r9, r2
 800608e:	f023 0820 	bic.w	r8, r3, #32
 8006092:	bfbc      	itt	lt
 8006094:	4632      	movlt	r2, r6
 8006096:	4616      	movlt	r6, r2
 8006098:	f1b8 0f46 	cmp.w	r8, #70	@ 0x46
 800609c:	d005      	beq.n	80060aa <__cvt+0x42>
 800609e:	f1b8 0f45 	cmp.w	r8, #69	@ 0x45
 80060a2:	d100      	bne.n	80060a6 <__cvt+0x3e>
 80060a4:	3401      	adds	r4, #1
 80060a6:	2102      	movs	r1, #2
 80060a8:	e000      	b.n	80060ac <__cvt+0x44>
 80060aa:	2103      	movs	r1, #3
 80060ac:	ab03      	add	r3, sp, #12
 80060ae:	9301      	str	r3, [sp, #4]
 80060b0:	ab02      	add	r3, sp, #8
 80060b2:	9300      	str	r3, [sp, #0]
 80060b4:	ec47 6b10 	vmov	d0, r6, r7
 80060b8:	4653      	mov	r3, sl
 80060ba:	4622      	mov	r2, r4
 80060bc:	f000 ffa4 	bl	8007008 <_dtoa_r>
 80060c0:	f1b8 0f47 	cmp.w	r8, #71	@ 0x47
 80060c4:	4605      	mov	r5, r0
 80060c6:	d119      	bne.n	80060fc <__cvt+0x94>
 80060c8:	f019 0f01 	tst.w	r9, #1
 80060cc:	d00e      	beq.n	80060ec <__cvt+0x84>
 80060ce:	eb00 0904 	add.w	r9, r0, r4
 80060d2:	2200      	movs	r2, #0
 80060d4:	2300      	movs	r3, #0
 80060d6:	4630      	mov	r0, r6
 80060d8:	4639      	mov	r1, r7
 80060da:	f7fa fcf5 	bl	8000ac8 <__aeabi_dcmpeq>
 80060de:	b108      	cbz	r0, 80060e4 <__cvt+0x7c>
 80060e0:	f8cd 900c 	str.w	r9, [sp, #12]
 80060e4:	2230      	movs	r2, #48	@ 0x30
 80060e6:	9b03      	ldr	r3, [sp, #12]
 80060e8:	454b      	cmp	r3, r9
 80060ea:	d31e      	bcc.n	800612a <__cvt+0xc2>
 80060ec:	9b03      	ldr	r3, [sp, #12]
 80060ee:	9a0e      	ldr	r2, [sp, #56]	@ 0x38
 80060f0:	1b5b      	subs	r3, r3, r5
 80060f2:	4628      	mov	r0, r5
 80060f4:	6013      	str	r3, [r2, #0]
 80060f6:	b004      	add	sp, #16
 80060f8:	e8bd 87f0 	ldmia.w	sp!, {r4, r5, r6, r7, r8, r9, sl, pc}
 80060fc:	f1b8 0f46 	cmp.w	r8, #70	@ 0x46
 8006100:	eb00 0904 	add.w	r9, r0, r4
 8006104:	d1e5      	bne.n	80060d2 <__cvt+0x6a>
 8006106:	7803      	ldrb	r3, [r0, #0]
 8006108:	2b30      	cmp	r3, #48	@ 0x30
 800610a:	d10a      	bne.n	8006122 <__cvt+0xba>
 800610c:	2200      	movs	r2, #0
 800610e:	2300      	movs	r3, #0
 8006110:	4630      	mov	r0, r6
 8006112:	4639      	mov	r1, r7
 8006114:	f7fa fcd8 	bl	8000ac8 <__aeabi_dcmpeq>
 8006118:	b918      	cbnz	r0, 8006122 <__cvt+0xba>
 800611a:	f1c4 0401 	rsb	r4, r4, #1
 800611e:	f8ca 4000 	str.w	r4, [sl]
 8006122:	f8da 3000 	ldr.w	r3, [sl]
 8006126:	4499      	add	r9, r3
 8006128:	e7d3      	b.n	80060d2 <__cvt+0x6a>
 800612a:	1c59      	adds	r1, r3, #1
 800612c:	9103      	str	r1, [sp, #12]
 800612e:	701a      	strb	r2, [r3, #0]
 8006130:	e7d9      	b.n	80060e6 <__cvt+0x7e>

08006132 <__exponent>:
 8006132:	b5f7      	push	{r0, r1, r2, r4, r5, r6, r7, lr}
 8006134:	2900      	cmp	r1, #0
 8006136:	bfba      	itte	lt
 8006138:	4249      	neglt	r1, r1
 800613a:	232d      	movlt	r3, #45	@ 0x2d
 800613c:	232b      	movge	r3, #43	@ 0x2b
 800613e:	2909      	cmp	r1, #9
 8006140:	7002      	strb	r2, [r0, #0]
 8006142:	7043      	strb	r3, [r0, #1]
 8006144:	dd29      	ble.n	800619a <__exponent+0x68>
 8006146:	f10d 0307 	add.w	r3, sp, #7
 800614a:	461d      	mov	r5, r3
 800614c:	270a      	movs	r7, #10
 800614e:	461a      	mov	r2, r3
 8006150:	fbb1 f6f7 	udiv	r6, r1, r7
 8006154:	fb07 1416 	mls	r4, r7, r6, r1
 8006158:	3430      	adds	r4, #48	@ 0x30
 800615a:	f802 4c01 	strb.w	r4, [r2, #-1]
 800615e:	460c      	mov	r4, r1
 8006160:	2c63      	cmp	r4, #99	@ 0x63
 8006162:	f103 33ff 	add.w	r3, r3, #4294967295	@ 0xffffffff
 8006166:	4631      	mov	r1, r6
 8006168:	dcf1      	bgt.n	800614e <__exponent+0x1c>
 800616a:	3130      	adds	r1, #48	@ 0x30
 800616c:	1e94      	subs	r4, r2, #2
 800616e:	f803 1c01 	strb.w	r1, [r3, #-1]
 8006172:	1c41      	adds	r1, r0, #1
 8006174:	4623      	mov	r3, r4
 8006176:	42ab      	cmp	r3, r5
 8006178:	d30a      	bcc.n	8006190 <__exponent+0x5e>
 800617a:	f10d 0309 	add.w	r3, sp, #9
 800617e:	1a9b      	subs	r3, r3, r2
 8006180:	42ac      	cmp	r4, r5
 8006182:	bf88      	it	hi
 8006184:	2300      	movhi	r3, #0
 8006186:	3302      	adds	r3, #2
 8006188:	4403      	add	r3, r0
 800618a:	1a18      	subs	r0, r3, r0
 800618c:	b003      	add	sp, #12
 800618e:	bdf0      	pop	{r4, r5, r6, r7, pc}
 8006190:	f813 6b01 	ldrb.w	r6, [r3], #1
 8006194:	f801 6f01 	strb.w	r6, [r1, #1]!
 8006198:	e7ed      	b.n	8006176 <__exponent+0x44>
 800619a:	2330      	movs	r3, #48	@ 0x30
 800619c:	3130      	adds	r1, #48	@ 0x30
 800619e:	7083      	strb	r3, [r0, #2]
 80061a0:	70c1      	strb	r1, [r0, #3]
 80061a2:	1d03      	adds	r3, r0, #4
 80061a4:	e7f1      	b.n	800618a <__exponent+0x58>
	...

080061a8 <_printf_float>:
 80061a8:	e92d 4ff0 	stmdb	sp!, {r4, r5, r6, r7, r8, r9, sl, fp, lr}
 80061ac:	b08d      	sub	sp, #52	@ 0x34
 80061ae:	460c      	mov	r4, r1
 80061b0:	f8dd 8058 	ldr.w	r8, [sp, #88]	@ 0x58
 80061b4:	4616      	mov	r6, r2
 80061b6:	461f      	mov	r7, r3
 80061b8:	4605      	mov	r5, r0
 80061ba:	f000 fdbf 	bl	8006d3c <_localeconv_r>
 80061be:	6803      	ldr	r3, [r0, #0]
 80061c0:	9304      	str	r3, [sp, #16]
 80061c2:	4618      	mov	r0, r3
 80061c4:	f7fa f854 	bl	8000270 <strlen>
 80061c8:	2300      	movs	r3, #0
 80061ca:	930a      	str	r3, [sp, #40]	@ 0x28
 80061cc:	f8d8 3000 	ldr.w	r3, [r8]
 80061d0:	9005      	str	r0, [sp, #20]
 80061d2:	3307      	adds	r3, #7
 80061d4:	f023 0307 	bic.w	r3, r3, #7
 80061d8:	f103 0208 	add.w	r2, r3, #8
 80061dc:	f894 a018 	ldrb.w	sl, [r4, #24]
 80061e0:	f8d4 b000 	ldr.w	fp, [r4]
 80061e4:	f8c8 2000 	str.w	r2, [r8]
 80061e8:	e9d3 8900 	ldrd	r8, r9, [r3]
 80061ec:	f029 4300 	bic.w	r3, r9, #2147483648	@ 0x80000000
 80061f0:	9307      	str	r3, [sp, #28]
 80061f2:	f8cd 8018 	str.w	r8, [sp, #24]
 80061f6:	e9c4 8912 	strd	r8, r9, [r4, #72]	@ 0x48
 80061fa:	e9dd 0106 	ldrd	r0, r1, [sp, #24]
 80061fe:	4b9c      	ldr	r3, [pc, #624]	@ (8006470 <_printf_float+0x2c8>)
 8006200:	f04f 32ff 	mov.w	r2, #4294967295	@ 0xffffffff
 8006204:	f7fa fc92 	bl	8000b2c <__aeabi_dcmpun>
 8006208:	bb70      	cbnz	r0, 8006268 <_printf_float+0xc0>
 800620a:	e9dd 0106 	ldrd	r0, r1, [sp, #24]
 800620e:	4b98      	ldr	r3, [pc, #608]	@ (8006470 <_printf_float+0x2c8>)
 8006210:	f04f 32ff 	mov.w	r2, #4294967295	@ 0xffffffff
 8006214:	f7fa fc6c 	bl	8000af0 <__aeabi_dcmple>
 8006218:	bb30      	cbnz	r0, 8006268 <_printf_float+0xc0>
 800621a:	2200      	movs	r2, #0
 800621c:	2300      	movs	r3, #0
 800621e:	4640      	mov	r0, r8
 8006220:	4649      	mov	r1, r9
 8006222:	f7fa fc5b 	bl	8000adc <__aeabi_dcmplt>
 8006226:	b110      	cbz	r0, 800622e <_printf_float+0x86>
 8006228:	232d      	movs	r3, #45	@ 0x2d
 800622a:	f884 3043 	strb.w	r3, [r4, #67]	@ 0x43
 800622e:	4a91      	ldr	r2, [pc, #580]	@ (8006474 <_printf_float+0x2cc>)
 8006230:	4b91      	ldr	r3, [pc, #580]	@ (8006478 <_printf_float+0x2d0>)
 8006232:	f1ba 0f47 	cmp.w	sl, #71	@ 0x47
 8006236:	bf94      	ite	ls
 8006238:	4690      	movls	r8, r2
 800623a:	4698      	movhi	r8, r3
 800623c:	2303      	movs	r3, #3
 800623e:	6123      	str	r3, [r4, #16]
 8006240:	f02b 0304 	bic.w	r3, fp, #4
 8006244:	6023      	str	r3, [r4, #0]
 8006246:	f04f 0900 	mov.w	r9, #0
 800624a:	9700      	str	r7, [sp, #0]
 800624c:	4633      	mov	r3, r6
 800624e:	aa0b      	add	r2, sp, #44	@ 0x2c
 8006250:	4621      	mov	r1, r4
 8006252:	4628      	mov	r0, r5
 8006254:	f000 f9d2 	bl	80065fc <_printf_common>
 8006258:	3001      	adds	r0, #1
 800625a:	f040 808d 	bne.w	8006378 <_printf_float+0x1d0>
 800625e:	f04f 30ff 	mov.w	r0, #4294967295	@ 0xffffffff
 8006262:	b00d      	add	sp, #52	@ 0x34
 8006264:	e8bd 8ff0 	ldmia.w	sp!, {r4, r5, r6, r7, r8, r9, sl, fp, pc}
 8006268:	4642      	mov	r2, r8
 800626a:	464b      	mov	r3, r9
 800626c:	4640      	mov	r0, r8
 800626e:	4649      	mov	r1, r9
 8006270:	f7fa fc5c 	bl	8000b2c <__aeabi_dcmpun>
 8006274:	b140      	cbz	r0, 8006288 <_printf_float+0xe0>
 8006276:	464b      	mov	r3, r9
 8006278:	2b00      	cmp	r3, #0
 800627a:	bfbc      	itt	lt
 800627c:	232d      	movlt	r3, #45	@ 0x2d
 800627e:	f884 3043 	strblt.w	r3, [r4, #67]	@ 0x43
 8006282:	4a7e      	ldr	r2, [pc, #504]	@ (800647c <_printf_float+0x2d4>)
 8006284:	4b7e      	ldr	r3, [pc, #504]	@ (8006480 <_printf_float+0x2d8>)
 8006286:	e7d4      	b.n	8006232 <_printf_float+0x8a>
 8006288:	6863      	ldr	r3, [r4, #4]
 800628a:	f00a 02df 	and.w	r2, sl, #223	@ 0xdf
 800628e:	9206      	str	r2, [sp, #24]
 8006290:	1c5a      	adds	r2, r3, #1
 8006292:	d13b      	bne.n	800630c <_printf_float+0x164>
 8006294:	2306      	movs	r3, #6
 8006296:	6063      	str	r3, [r4, #4]
 8006298:	f44b 6280 	orr.w	r2, fp, #1024	@ 0x400
 800629c:	2300      	movs	r3, #0
 800629e:	6022      	str	r2, [r4, #0]
 80062a0:	9303      	str	r3, [sp, #12]
 80062a2:	ab0a      	add	r3, sp, #40	@ 0x28
 80062a4:	e9cd a301 	strd	sl, r3, [sp, #4]
 80062a8:	ab09      	add	r3, sp, #36	@ 0x24
 80062aa:	9300      	str	r3, [sp, #0]
 80062ac:	6861      	ldr	r1, [r4, #4]
 80062ae:	ec49 8b10 	vmov	d0, r8, r9
 80062b2:	f10d 0323 	add.w	r3, sp, #35	@ 0x23
 80062b6:	4628      	mov	r0, r5
 80062b8:	f7ff fed6 	bl	8006068 <__cvt>
 80062bc:	9b06      	ldr	r3, [sp, #24]
 80062be:	9909      	ldr	r1, [sp, #36]	@ 0x24
 80062c0:	2b47      	cmp	r3, #71	@ 0x47
 80062c2:	4680      	mov	r8, r0
 80062c4:	d129      	bne.n	800631a <_printf_float+0x172>
 80062c6:	1cc8      	adds	r0, r1, #3
 80062c8:	db02      	blt.n	80062d0 <_printf_float+0x128>
 80062ca:	6863      	ldr	r3, [r4, #4]
 80062cc:	4299      	cmp	r1, r3
 80062ce:	dd41      	ble.n	8006354 <_printf_float+0x1ac>
 80062d0:	f1aa 0a02 	sub.w	sl, sl, #2
 80062d4:	fa5f fa8a 	uxtb.w	sl, sl
 80062d8:	3901      	subs	r1, #1
 80062da:	4652      	mov	r2, sl
 80062dc:	f104 0050 	add.w	r0, r4, #80	@ 0x50
 80062e0:	9109      	str	r1, [sp, #36]	@ 0x24
 80062e2:	f7ff ff26 	bl	8006132 <__exponent>
 80062e6:	9a0a      	ldr	r2, [sp, #40]	@ 0x28
 80062e8:	1813      	adds	r3, r2, r0
 80062ea:	2a01      	cmp	r2, #1
 80062ec:	4681      	mov	r9, r0
 80062ee:	6123      	str	r3, [r4, #16]
 80062f0:	dc02      	bgt.n	80062f8 <_printf_float+0x150>
 80062f2:	6822      	ldr	r2, [r4, #0]
 80062f4:	07d2      	lsls	r2, r2, #31
 80062f6:	d501      	bpl.n	80062fc <_printf_float+0x154>
 80062f8:	3301      	adds	r3, #1
 80062fa:	6123      	str	r3, [r4, #16]
 80062fc:	f89d 3023 	ldrb.w	r3, [sp, #35]	@ 0x23
 8006300:	2b00      	cmp	r3, #0
 8006302:	d0a2      	beq.n	800624a <_printf_float+0xa2>
 8006304:	232d      	movs	r3, #45	@ 0x2d
 8006306:	f884 3043 	strb.w	r3, [r4, #67]	@ 0x43
 800630a:	e79e      	b.n	800624a <_printf_float+0xa2>
 800630c:	9a06      	ldr	r2, [sp, #24]
 800630e:	2a47      	cmp	r2, #71	@ 0x47
 8006310:	d1c2      	bne.n	8006298 <_printf_float+0xf0>
 8006312:	2b00      	cmp	r3, #0
 8006314:	d1c0      	bne.n	8006298 <_printf_float+0xf0>
 8006316:	2301      	movs	r3, #1
 8006318:	e7bd      	b.n	8006296 <_printf_float+0xee>
 800631a:	f1ba 0f65 	cmp.w	sl, #101	@ 0x65
 800631e:	d9db      	bls.n	80062d8 <_printf_float+0x130>
 8006320:	f1ba 0f66 	cmp.w	sl, #102	@ 0x66
 8006324:	d118      	bne.n	8006358 <_printf_float+0x1b0>
 8006326:	2900      	cmp	r1, #0
 8006328:	6863      	ldr	r3, [r4, #4]
 800632a:	dd0b      	ble.n	8006344 <_printf_float+0x19c>
 800632c:	6121      	str	r1, [r4, #16]
 800632e:	b913      	cbnz	r3, 8006336 <_printf_float+0x18e>
 8006330:	6822      	ldr	r2, [r4, #0]
 8006332:	07d0      	lsls	r0, r2, #31
 8006334:	d502      	bpl.n	800633c <_printf_float+0x194>
 8006336:	3301      	adds	r3, #1
 8006338:	440b      	add	r3, r1
 800633a:	6123      	str	r3, [r4, #16]
 800633c:	65a1      	str	r1, [r4, #88]	@ 0x58
 800633e:	f04f 0900 	mov.w	r9, #0
 8006342:	e7db      	b.n	80062fc <_printf_float+0x154>
 8006344:	b913      	cbnz	r3, 800634c <_printf_float+0x1a4>
 8006346:	6822      	ldr	r2, [r4, #0]
 8006348:	07d2      	lsls	r2, r2, #31
 800634a:	d501      	bpl.n	8006350 <_printf_float+0x1a8>
 800634c:	3302      	adds	r3, #2
 800634e:	e7f4      	b.n	800633a <_printf_float+0x192>
 8006350:	2301      	movs	r3, #1
 8006352:	e7f2      	b.n	800633a <_printf_float+0x192>
 8006354:	f04f 0a67 	mov.w	sl, #103	@ 0x67
 8006358:	9b0a      	ldr	r3, [sp, #40]	@ 0x28
 800635a:	4299      	cmp	r1, r3
 800635c:	db05      	blt.n	800636a <_printf_float+0x1c2>
 800635e:	6823      	ldr	r3, [r4, #0]
 8006360:	6121      	str	r1, [r4, #16]
 8006362:	07d8      	lsls	r0, r3, #31
 8006364:	d5ea      	bpl.n	800633c <_printf_float+0x194>
 8006366:	1c4b      	adds	r3, r1, #1
 8006368:	e7e7      	b.n	800633a <_printf_float+0x192>
 800636a:	2900      	cmp	r1, #0
 800636c:	bfd4      	ite	le
 800636e:	f1c1 0202 	rsble	r2, r1, #2
 8006372:	2201      	movgt	r2, #1
 8006374:	4413      	add	r3, r2
 8006376:	e7e0      	b.n	800633a <_printf_float+0x192>
 8006378:	6823      	ldr	r3, [r4, #0]
 800637a:	055a      	lsls	r2, r3, #21
 800637c:	d407      	bmi.n	800638e <_printf_float+0x1e6>
 800637e:	6923      	ldr	r3, [r4, #16]
 8006380:	4642      	mov	r2, r8
 8006382:	4631      	mov	r1, r6
 8006384:	4628      	mov	r0, r5
 8006386:	47b8      	blx	r7
 8006388:	3001      	adds	r0, #1
 800638a:	d12b      	bne.n	80063e4 <_printf_float+0x23c>
 800638c:	e767      	b.n	800625e <_printf_float+0xb6>
 800638e:	f1ba 0f65 	cmp.w	sl, #101	@ 0x65
 8006392:	f240 80dd 	bls.w	8006550 <_printf_float+0x3a8>
 8006396:	e9d4 0112 	ldrd	r0, r1, [r4, #72]	@ 0x48
 800639a:	2200      	movs	r2, #0
 800639c:	2300      	movs	r3, #0
 800639e:	f7fa fb93 	bl	8000ac8 <__aeabi_dcmpeq>
 80063a2:	2800      	cmp	r0, #0
 80063a4:	d033      	beq.n	800640e <_printf_float+0x266>
 80063a6:	4a37      	ldr	r2, [pc, #220]	@ (8006484 <_printf_float+0x2dc>)
 80063a8:	2301      	movs	r3, #1
 80063aa:	4631      	mov	r1, r6
 80063ac:	4628      	mov	r0, r5
 80063ae:	47b8      	blx	r7
 80063b0:	3001      	adds	r0, #1
 80063b2:	f43f af54 	beq.w	800625e <_printf_float+0xb6>
 80063b6:	e9dd 3809 	ldrd	r3, r8, [sp, #36]	@ 0x24
 80063ba:	4543      	cmp	r3, r8
 80063bc:	db02      	blt.n	80063c4 <_printf_float+0x21c>
 80063be:	6823      	ldr	r3, [r4, #0]
 80063c0:	07d8      	lsls	r0, r3, #31
 80063c2:	d50f      	bpl.n	80063e4 <_printf_float+0x23c>
 80063c4:	e9dd 2304 	ldrd	r2, r3, [sp, #16]
 80063c8:	4631      	mov	r1, r6
 80063ca:	4628      	mov	r0, r5
 80063cc:	47b8      	blx	r7
 80063ce:	3001      	adds	r0, #1
 80063d0:	f43f af45 	beq.w	800625e <_printf_float+0xb6>
 80063d4:	f04f 0900 	mov.w	r9, #0
 80063d8:	f108 38ff 	add.w	r8, r8, #4294967295	@ 0xffffffff
 80063dc:	f104 0a1a 	add.w	sl, r4, #26
 80063e0:	45c8      	cmp	r8, r9
 80063e2:	dc09      	bgt.n	80063f8 <_printf_float+0x250>
 80063e4:	6823      	ldr	r3, [r4, #0]
 80063e6:	079b      	lsls	r3, r3, #30
 80063e8:	f100 8103 	bmi.w	80065f2 <_printf_float+0x44a>
 80063ec:	68e0      	ldr	r0, [r4, #12]
 80063ee:	9b0b      	ldr	r3, [sp, #44]	@ 0x2c
 80063f0:	4298      	cmp	r0, r3
 80063f2:	bfb8      	it	lt
 80063f4:	4618      	movlt	r0, r3
 80063f6:	e734      	b.n	8006262 <_printf_float+0xba>
 80063f8:	2301      	movs	r3, #1
 80063fa:	4652      	mov	r2, sl
 80063fc:	4631      	mov	r1, r6
 80063fe:	4628      	mov	r0, r5
 8006400:	47b8      	blx	r7
 8006402:	3001      	adds	r0, #1
 8006404:	f43f af2b 	beq.w	800625e <_printf_float+0xb6>
 8006408:	f109 0901 	add.w	r9, r9, #1
 800640c:	e7e8      	b.n	80063e0 <_printf_float+0x238>
 800640e:	9b09      	ldr	r3, [sp, #36]	@ 0x24
 8006410:	2b00      	cmp	r3, #0
 8006412:	dc39      	bgt.n	8006488 <_printf_float+0x2e0>
 8006414:	4a1b      	ldr	r2, [pc, #108]	@ (8006484 <_printf_float+0x2dc>)
 8006416:	2301      	movs	r3, #1
 8006418:	4631      	mov	r1, r6
 800641a:	4628      	mov	r0, r5
 800641c:	47b8      	blx	r7
 800641e:	3001      	adds	r0, #1
 8006420:	f43f af1d 	beq.w	800625e <_printf_float+0xb6>
 8006424:	e9dd 3909 	ldrd	r3, r9, [sp, #36]	@ 0x24
 8006428:	ea59 0303 	orrs.w	r3, r9, r3
 800642c:	d102      	bne.n	8006434 <_printf_float+0x28c>
 800642e:	6823      	ldr	r3, [r4, #0]
 8006430:	07d9      	lsls	r1, r3, #31
 8006432:	d5d7      	bpl.n	80063e4 <_printf_float+0x23c>
 8006434:	e9dd 2304 	ldrd	r2, r3, [sp, #16]
 8006438:	4631      	mov	r1, r6
 800643a:	4628      	mov	r0, r5
 800643c:	47b8      	blx	r7
 800643e:	3001      	adds	r0, #1
 8006440:	f43f af0d 	beq.w	800625e <_printf_float+0xb6>
 8006444:	f04f 0a00 	mov.w	sl, #0
 8006448:	f104 0b1a 	add.w	fp, r4, #26
 800644c:	9b09      	ldr	r3, [sp, #36]	@ 0x24
 800644e:	425b      	negs	r3, r3
 8006450:	4553      	cmp	r3, sl
 8006452:	dc01      	bgt.n	8006458 <_printf_float+0x2b0>
 8006454:	464b      	mov	r3, r9
 8006456:	e793      	b.n	8006380 <_printf_float+0x1d8>
 8006458:	2301      	movs	r3, #1
 800645a:	465a      	mov	r2, fp
 800645c:	4631      	mov	r1, r6
 800645e:	4628      	mov	r0, r5
 8006460:	47b8      	blx	r7
 8006462:	3001      	adds	r0, #1
 8006464:	f43f aefb 	beq.w	800625e <_printf_float+0xb6>
 8006468:	f10a 0a01 	add.w	sl, sl, #1
 800646c:	e7ee      	b.n	800644c <_printf_float+0x2a4>
 800646e:	bf00      	nop
 8006470:	7fefffff 	.word	0x7fefffff
 8006474:	080096f4 	.word	0x080096f4
 8006478:	080096f8 	.word	0x080096f8
 800647c:	080096fc 	.word	0x080096fc
 8006480:	08009700 	.word	0x08009700
 8006484:	08009704 	.word	0x08009704
 8006488:	6da3      	ldr	r3, [r4, #88]	@ 0x58
 800648a:	f8dd a028 	ldr.w	sl, [sp, #40]	@ 0x28
 800648e:	4553      	cmp	r3, sl
 8006490:	bfa8      	it	ge
 8006492:	4653      	movge	r3, sl
 8006494:	2b00      	cmp	r3, #0
 8006496:	4699      	mov	r9, r3
 8006498:	dc36      	bgt.n	8006508 <_printf_float+0x360>
 800649a:	f04f 0b00 	mov.w	fp, #0
 800649e:	ea29 79e9 	bic.w	r9, r9, r9, asr #31
 80064a2:	f104 021a 	add.w	r2, r4, #26
 80064a6:	6da3      	ldr	r3, [r4, #88]	@ 0x58
 80064a8:	9306      	str	r3, [sp, #24]
 80064aa:	eba3 0309 	sub.w	r3, r3, r9
 80064ae:	455b      	cmp	r3, fp
 80064b0:	dc31      	bgt.n	8006516 <_printf_float+0x36e>
 80064b2:	9b09      	ldr	r3, [sp, #36]	@ 0x24
 80064b4:	459a      	cmp	sl, r3
 80064b6:	dc3a      	bgt.n	800652e <_printf_float+0x386>
 80064b8:	6823      	ldr	r3, [r4, #0]
 80064ba:	07da      	lsls	r2, r3, #31
 80064bc:	d437      	bmi.n	800652e <_printf_float+0x386>
 80064be:	9b09      	ldr	r3, [sp, #36]	@ 0x24
 80064c0:	ebaa 0903 	sub.w	r9, sl, r3
 80064c4:	9b06      	ldr	r3, [sp, #24]
 80064c6:	ebaa 0303 	sub.w	r3, sl, r3
 80064ca:	4599      	cmp	r9, r3
 80064cc:	bfa8      	it	ge
 80064ce:	4699      	movge	r9, r3
 80064d0:	f1b9 0f00 	cmp.w	r9, #0
 80064d4:	dc33      	bgt.n	800653e <_printf_float+0x396>
 80064d6:	f04f 0800 	mov.w	r8, #0
 80064da:	ea29 79e9 	bic.w	r9, r9, r9, asr #31
 80064de:	f104 0b1a 	add.w	fp, r4, #26
 80064e2:	9b09      	ldr	r3, [sp, #36]	@ 0x24
 80064e4:	ebaa 0303 	sub.w	r3, sl, r3
 80064e8:	eba3 0309 	sub.w	r3, r3, r9
 80064ec:	4543      	cmp	r3, r8
 80064ee:	f77f af79 	ble.w	80063e4 <_printf_float+0x23c>
 80064f2:	2301      	movs	r3, #1
 80064f4:	465a      	mov	r2, fp
 80064f6:	4631      	mov	r1, r6
 80064f8:	4628      	mov	r0, r5
 80064fa:	47b8      	blx	r7
 80064fc:	3001      	adds	r0, #1
 80064fe:	f43f aeae 	beq.w	800625e <_printf_float+0xb6>
 8006502:	f108 0801 	add.w	r8, r8, #1
 8006506:	e7ec      	b.n	80064e2 <_printf_float+0x33a>
 8006508:	4642      	mov	r2, r8
 800650a:	4631      	mov	r1, r6
 800650c:	4628      	mov	r0, r5
 800650e:	47b8      	blx	r7
 8006510:	3001      	adds	r0, #1
 8006512:	d1c2      	bne.n	800649a <_printf_float+0x2f2>
 8006514:	e6a3      	b.n	800625e <_printf_float+0xb6>
 8006516:	2301      	movs	r3, #1
 8006518:	4631      	mov	r1, r6
 800651a:	4628      	mov	r0, r5
 800651c:	9206      	str	r2, [sp, #24]
 800651e:	47b8      	blx	r7
 8006520:	3001      	adds	r0, #1
 8006522:	f43f ae9c 	beq.w	800625e <_printf_float+0xb6>
 8006526:	9a06      	ldr	r2, [sp, #24]
 8006528:	f10b 0b01 	add.w	fp, fp, #1
 800652c:	e7bb      	b.n	80064a6 <_printf_float+0x2fe>
 800652e:	e9dd 2304 	ldrd	r2, r3, [sp, #16]
 8006532:	4631      	mov	r1, r6
 8006534:	4628      	mov	r0, r5
 8006536:	47b8      	blx	r7
 8006538:	3001      	adds	r0, #1
 800653a:	d1c0      	bne.n	80064be <_printf_float+0x316>
 800653c:	e68f      	b.n	800625e <_printf_float+0xb6>
 800653e:	9a06      	ldr	r2, [sp, #24]
 8006540:	464b      	mov	r3, r9
 8006542:	4442      	add	r2, r8
 8006544:	4631      	mov	r1, r6
 8006546:	4628      	mov	r0, r5
 8006548:	47b8      	blx	r7
 800654a:	3001      	adds	r0, #1
 800654c:	d1c3      	bne.n	80064d6 <_printf_float+0x32e>
 800654e:	e686      	b.n	800625e <_printf_float+0xb6>
 8006550:	f8dd a028 	ldr.w	sl, [sp, #40]	@ 0x28
 8006554:	f1ba 0f01 	cmp.w	sl, #1
 8006558:	dc01      	bgt.n	800655e <_printf_float+0x3b6>
 800655a:	07db      	lsls	r3, r3, #31
 800655c:	d536      	bpl.n	80065cc <_printf_float+0x424>
 800655e:	2301      	movs	r3, #1
 8006560:	4642      	mov	r2, r8
 8006562:	4631      	mov	r1, r6
 8006564:	4628      	mov	r0, r5
 8006566:	47b8      	blx	r7
 8006568:	3001      	adds	r0, #1
 800656a:	f43f ae78 	beq.w	800625e <_printf_float+0xb6>
 800656e:	e9dd 2304 	ldrd	r2, r3, [sp, #16]
 8006572:	4631      	mov	r1, r6
 8006574:	4628      	mov	r0, r5
 8006576:	47b8      	blx	r7
 8006578:	3001      	adds	r0, #1
 800657a:	f43f ae70 	beq.w	800625e <_printf_float+0xb6>
 800657e:	e9d4 0112 	ldrd	r0, r1, [r4, #72]	@ 0x48
 8006582:	2200      	movs	r2, #0
 8006584:	2300      	movs	r3, #0
 8006586:	f10a 3aff 	add.w	sl, sl, #4294967295	@ 0xffffffff
 800658a:	f7fa fa9d 	bl	8000ac8 <__aeabi_dcmpeq>
 800658e:	b9c0      	cbnz	r0, 80065c2 <_printf_float+0x41a>
 8006590:	4653      	mov	r3, sl
 8006592:	f108 0201 	add.w	r2, r8, #1
 8006596:	4631      	mov	r1, r6
 8006598:	4628      	mov	r0, r5
 800659a:	47b8      	blx	r7
 800659c:	3001      	adds	r0, #1
 800659e:	d10c      	bne.n	80065ba <_printf_float+0x412>
 80065a0:	e65d      	b.n	800625e <_printf_float+0xb6>
 80065a2:	2301      	movs	r3, #1
 80065a4:	465a      	mov	r2, fp
 80065a6:	4631      	mov	r1, r6
 80065a8:	4628      	mov	r0, r5
 80065aa:	47b8      	blx	r7
 80065ac:	3001      	adds	r0, #1
 80065ae:	f43f ae56 	beq.w	800625e <_printf_float+0xb6>
 80065b2:	f108 0801 	add.w	r8, r8, #1
 80065b6:	45d0      	cmp	r8, sl
 80065b8:	dbf3      	blt.n	80065a2 <_printf_float+0x3fa>
 80065ba:	464b      	mov	r3, r9
 80065bc:	f104 0250 	add.w	r2, r4, #80	@ 0x50
 80065c0:	e6df      	b.n	8006382 <_printf_float+0x1da>
 80065c2:	f04f 0800 	mov.w	r8, #0
 80065c6:	f104 0b1a 	add.w	fp, r4, #26
 80065ca:	e7f4      	b.n	80065b6 <_printf_float+0x40e>
 80065cc:	2301      	movs	r3, #1
 80065ce:	4642      	mov	r2, r8
 80065d0:	e7e1      	b.n	8006596 <_printf_float+0x3ee>
 80065d2:	2301      	movs	r3, #1
 80065d4:	464a      	mov	r2, r9
 80065d6:	4631      	mov	r1, r6
 80065d8:	4628      	mov	r0, r5
 80065da:	47b8      	blx	r7
 80065dc:	3001      	adds	r0, #1
 80065de:	f43f ae3e 	beq.w	800625e <_printf_float+0xb6>
 80065e2:	f108 0801 	add.w	r8, r8, #1
 80065e6:	68e3      	ldr	r3, [r4, #12]
 80065e8:	990b      	ldr	r1, [sp, #44]	@ 0x2c
 80065ea:	1a5b      	subs	r3, r3, r1
 80065ec:	4543      	cmp	r3, r8
 80065ee:	dcf0      	bgt.n	80065d2 <_printf_float+0x42a>
 80065f0:	e6fc      	b.n	80063ec <_printf_float+0x244>
 80065f2:	f04f 0800 	mov.w	r8, #0
 80065f6:	f104 0919 	add.w	r9, r4, #25
 80065fa:	e7f4      	b.n	80065e6 <_printf_float+0x43e>

080065fc <_printf_common>:
 80065fc:	e92d 47f0 	stmdb	sp!, {r4, r5, r6, r7, r8, r9, sl, lr}
 8006600:	4616      	mov	r6, r2
 8006602:	4698      	mov	r8, r3
 8006604:	688a      	ldr	r2, [r1, #8]
 8006606:	690b      	ldr	r3, [r1, #16]
 8006608:	f8dd 9020 	ldr.w	r9, [sp, #32]
 800660c:	4293      	cmp	r3, r2
 800660e:	bfb8      	it	lt
 8006610:	4613      	movlt	r3, r2
 8006612:	6033      	str	r3, [r6, #0]
 8006614:	f891 2043 	ldrb.w	r2, [r1, #67]	@ 0x43
 8006618:	4607      	mov	r7, r0
 800661a:	460c      	mov	r4, r1
 800661c:	b10a      	cbz	r2, 8006622 <_printf_common+0x26>
 800661e:	3301      	adds	r3, #1
 8006620:	6033      	str	r3, [r6, #0]
 8006622:	6823      	ldr	r3, [r4, #0]
 8006624:	0699      	lsls	r1, r3, #26
 8006626:	bf42      	ittt	mi
 8006628:	6833      	ldrmi	r3, [r6, #0]
 800662a:	3302      	addmi	r3, #2
 800662c:	6033      	strmi	r3, [r6, #0]
 800662e:	6825      	ldr	r5, [r4, #0]
 8006630:	f015 0506 	ands.w	r5, r5, #6
 8006634:	d106      	bne.n	8006644 <_printf_common+0x48>
 8006636:	f104 0a19 	add.w	sl, r4, #25
 800663a:	68e3      	ldr	r3, [r4, #12]
 800663c:	6832      	ldr	r2, [r6, #0]
 800663e:	1a9b      	subs	r3, r3, r2
 8006640:	42ab      	cmp	r3, r5
 8006642:	dc26      	bgt.n	8006692 <_printf_common+0x96>
 8006644:	f894 3043 	ldrb.w	r3, [r4, #67]	@ 0x43
 8006648:	6822      	ldr	r2, [r4, #0]
 800664a:	3b00      	subs	r3, #0
 800664c:	bf18      	it	ne
 800664e:	2301      	movne	r3, #1
 8006650:	0692      	lsls	r2, r2, #26
 8006652:	d42b      	bmi.n	80066ac <_printf_common+0xb0>
 8006654:	f104 0243 	add.w	r2, r4, #67	@ 0x43
 8006658:	4641      	mov	r1, r8
 800665a:	4638      	mov	r0, r7
 800665c:	47c8      	blx	r9
 800665e:	3001      	adds	r0, #1
 8006660:	d01e      	beq.n	80066a0 <_printf_common+0xa4>
 8006662:	6823      	ldr	r3, [r4, #0]
 8006664:	6922      	ldr	r2, [r4, #16]
 8006666:	f003 0306 	and.w	r3, r3, #6
 800666a:	2b04      	cmp	r3, #4
 800666c:	bf02      	ittt	eq
 800666e:	68e5      	ldreq	r5, [r4, #12]
 8006670:	6833      	ldreq	r3, [r6, #0]
 8006672:	1aed      	subeq	r5, r5, r3
 8006674:	68a3      	ldr	r3, [r4, #8]
 8006676:	bf0c      	ite	eq
 8006678:	ea25 75e5 	biceq.w	r5, r5, r5, asr #31
 800667c:	2500      	movne	r5, #0
 800667e:	4293      	cmp	r3, r2
 8006680:	bfc4      	itt	gt
 8006682:	1a9b      	subgt	r3, r3, r2
 8006684:	18ed      	addgt	r5, r5, r3
 8006686:	2600      	movs	r6, #0
 8006688:	341a      	adds	r4, #26
 800668a:	42b5      	cmp	r5, r6
 800668c:	d11a      	bne.n	80066c4 <_printf_common+0xc8>
 800668e:	2000      	movs	r0, #0
 8006690:	e008      	b.n	80066a4 <_printf_common+0xa8>
 8006692:	2301      	movs	r3, #1
 8006694:	4652      	mov	r2, sl
 8006696:	4641      	mov	r1, r8
 8006698:	4638      	mov	r0, r7
 800669a:	47c8      	blx	r9
 800669c:	3001      	adds	r0, #1
 800669e:	d103      	bne.n	80066a8 <_printf_common+0xac>
 80066a0:	f04f 30ff 	mov.w	r0, #4294967295	@ 0xffffffff
 80066a4:	e8bd 87f0 	ldmia.w	sp!, {r4, r5, r6, r7, r8, r9, sl, pc}
 80066a8:	3501      	adds	r5, #1
 80066aa:	e7c6      	b.n	800663a <_printf_common+0x3e>
 80066ac:	18e1      	adds	r1, r4, r3
 80066ae:	1c5a      	adds	r2, r3, #1
 80066b0:	2030      	movs	r0, #48	@ 0x30
 80066b2:	f881 0043 	strb.w	r0, [r1, #67]	@ 0x43
 80066b6:	4422      	add	r2, r4
 80066b8:	f894 1045 	ldrb.w	r1, [r4, #69]	@ 0x45
 80066bc:	f882 1043 	strb.w	r1, [r2, #67]	@ 0x43
 80066c0:	3302      	adds	r3, #2
 80066c2:	e7c7      	b.n	8006654 <_printf_common+0x58>
 80066c4:	2301      	movs	r3, #1
 80066c6:	4622      	mov	r2, r4
 80066c8:	4641      	mov	r1, r8
 80066ca:	4638      	mov	r0, r7
 80066cc:	47c8      	blx	r9
 80066ce:	3001      	adds	r0, #1
 80066d0:	d0e6      	beq.n	80066a0 <_printf_common+0xa4>
 80066d2:	3601      	adds	r6, #1
 80066d4:	e7d9      	b.n	800668a <_printf_common+0x8e>
	...

080066d8 <_printf_i>:
 80066d8:	e92d 47ff 	stmdb	sp!, {r0, r1, r2, r3, r4, r5, r6, r7, r8, r9, sl, lr}
 80066dc:	7e0f      	ldrb	r7, [r1, #24]
 80066de:	9e0c      	ldr	r6, [sp, #48]	@ 0x30
 80066e0:	2f78      	cmp	r7, #120	@ 0x78
 80066e2:	4691      	mov	r9, r2
 80066e4:	4680      	mov	r8, r0
 80066e6:	460c      	mov	r4, r1
 80066e8:	469a      	mov	sl, r3
 80066ea:	f101 0243 	add.w	r2, r1, #67	@ 0x43
 80066ee:	d807      	bhi.n	8006700 <_printf_i+0x28>
 80066f0:	2f62      	cmp	r7, #98	@ 0x62
 80066f2:	d80a      	bhi.n	800670a <_printf_i+0x32>
 80066f4:	2f00      	cmp	r7, #0
 80066f6:	f000 80d2 	beq.w	800689e <_printf_i+0x1c6>
 80066fa:	2f58      	cmp	r7, #88	@ 0x58
 80066fc:	f000 80b9 	beq.w	8006872 <_printf_i+0x19a>
 8006700:	f104 0642 	add.w	r6, r4, #66	@ 0x42
 8006704:	f884 7042 	strb.w	r7, [r4, #66]	@ 0x42
 8006708:	e03a      	b.n	8006780 <_printf_i+0xa8>
 800670a:	f1a7 0363 	sub.w	r3, r7, #99	@ 0x63
 800670e:	2b15      	cmp	r3, #21
 8006710:	d8f6      	bhi.n	8006700 <_printf_i+0x28>
 8006712:	a101      	add	r1, pc, #4	@ (adr r1, 8006718 <_printf_i+0x40>)
 8006714:	f851 f023 	ldr.w	pc, [r1, r3, lsl #2]
 8006718:	08006771 	.word	0x08006771
 800671c:	08006785 	.word	0x08006785
 8006720:	08006701 	.word	0x08006701
 8006724:	08006701 	.word	0x08006701
 8006728:	08006701 	.word	0x08006701
 800672c:	08006701 	.word	0x08006701
 8006730:	08006785 	.word	0x08006785
 8006734:	08006701 	.word	0x08006701
 8006738:	08006701 	.word	0x08006701
 800673c:	08006701 	.word	0x08006701
 8006740:	08006701 	.word	0x08006701
 8006744:	08006885 	.word	0x08006885
 8006748:	080067af 	.word	0x080067af
 800674c:	0800683f 	.word	0x0800683f
 8006750:	08006701 	.word	0x08006701
 8006754:	08006701 	.word	0x08006701
 8006758:	080068a7 	.word	0x080068a7
 800675c:	08006701 	.word	0x08006701
 8006760:	080067af 	.word	0x080067af
 8006764:	08006701 	.word	0x08006701
 8006768:	08006701 	.word	0x08006701
 800676c:	08006847 	.word	0x08006847
 8006770:	6833      	ldr	r3, [r6, #0]
 8006772:	1d1a      	adds	r2, r3, #4
 8006774:	681b      	ldr	r3, [r3, #0]
 8006776:	6032      	str	r2, [r6, #0]
 8006778:	f104 0642 	add.w	r6, r4, #66	@ 0x42
 800677c:	f884 3042 	strb.w	r3, [r4, #66]	@ 0x42
 8006780:	2301      	movs	r3, #1
 8006782:	e09d      	b.n	80068c0 <_printf_i+0x1e8>
 8006784:	6833      	ldr	r3, [r6, #0]
 8006786:	6820      	ldr	r0, [r4, #0]
 8006788:	1d19      	adds	r1, r3, #4
 800678a:	6031      	str	r1, [r6, #0]
 800678c:	0606      	lsls	r6, r0, #24
 800678e:	d501      	bpl.n	8006794 <_printf_i+0xbc>
 8006790:	681d      	ldr	r5, [r3, #0]
 8006792:	e003      	b.n	800679c <_printf_i+0xc4>
 8006794:	0645      	lsls	r5, r0, #25
 8006796:	d5fb      	bpl.n	8006790 <_printf_i+0xb8>
 8006798:	f9b3 5000 	ldrsh.w	r5, [r3]
 800679c:	2d00      	cmp	r5, #0
 800679e:	da03      	bge.n	80067a8 <_printf_i+0xd0>
 80067a0:	232d      	movs	r3, #45	@ 0x2d
 80067a2:	426d      	negs	r5, r5
 80067a4:	f884 3043 	strb.w	r3, [r4, #67]	@ 0x43
 80067a8:	4859      	ldr	r0, [pc, #356]	@ (8006910 <_printf_i+0x238>)
 80067aa:	230a      	movs	r3, #10
 80067ac:	e011      	b.n	80067d2 <_printf_i+0xfa>
 80067ae:	6821      	ldr	r1, [r4, #0]
 80067b0:	6833      	ldr	r3, [r6, #0]
 80067b2:	0608      	lsls	r0, r1, #24
 80067b4:	f853 5b04 	ldr.w	r5, [r3], #4
 80067b8:	d402      	bmi.n	80067c0 <_printf_i+0xe8>
 80067ba:	0649      	lsls	r1, r1, #25
 80067bc:	bf48      	it	mi
 80067be:	b2ad      	uxthmi	r5, r5
 80067c0:	2f6f      	cmp	r7, #111	@ 0x6f
 80067c2:	4853      	ldr	r0, [pc, #332]	@ (8006910 <_printf_i+0x238>)
 80067c4:	6033      	str	r3, [r6, #0]
 80067c6:	bf14      	ite	ne
 80067c8:	230a      	movne	r3, #10
 80067ca:	2308      	moveq	r3, #8
 80067cc:	2100      	movs	r1, #0
 80067ce:	f884 1043 	strb.w	r1, [r4, #67]	@ 0x43
 80067d2:	6866      	ldr	r6, [r4, #4]
 80067d4:	60a6      	str	r6, [r4, #8]
 80067d6:	2e00      	cmp	r6, #0
 80067d8:	bfa2      	ittt	ge
 80067da:	6821      	ldrge	r1, [r4, #0]
 80067dc:	f021 0104 	bicge.w	r1, r1, #4
 80067e0:	6021      	strge	r1, [r4, #0]
 80067e2:	b90d      	cbnz	r5, 80067e8 <_printf_i+0x110>
 80067e4:	2e00      	cmp	r6, #0
 80067e6:	d04b      	beq.n	8006880 <_printf_i+0x1a8>
 80067e8:	4616      	mov	r6, r2
 80067ea:	fbb5 f1f3 	udiv	r1, r5, r3
 80067ee:	fb03 5711 	mls	r7, r3, r1, r5
 80067f2:	5dc7      	ldrb	r7, [r0, r7]
 80067f4:	f806 7d01 	strb.w	r7, [r6, #-1]!
 80067f8:	462f      	mov	r7, r5
 80067fa:	42bb      	cmp	r3, r7
 80067fc:	460d      	mov	r5, r1
 80067fe:	d9f4      	bls.n	80067ea <_printf_i+0x112>
 8006800:	2b08      	cmp	r3, #8
 8006802:	d10b      	bne.n	800681c <_printf_i+0x144>
 8006804:	6823      	ldr	r3, [r4, #0]
 8006806:	07df      	lsls	r7, r3, #31
 8006808:	d508      	bpl.n	800681c <_printf_i+0x144>
 800680a:	6923      	ldr	r3, [r4, #16]
 800680c:	6861      	ldr	r1, [r4, #4]
 800680e:	4299      	cmp	r1, r3
 8006810:	bfde      	ittt	le
 8006812:	2330      	movle	r3, #48	@ 0x30
 8006814:	f806 3c01 	strble.w	r3, [r6, #-1]
 8006818:	f106 36ff 	addle.w	r6, r6, #4294967295	@ 0xffffffff
 800681c:	1b92      	subs	r2, r2, r6
 800681e:	6122      	str	r2, [r4, #16]
 8006820:	f8cd a000 	str.w	sl, [sp]
 8006824:	464b      	mov	r3, r9
 8006826:	aa03      	add	r2, sp, #12
 8006828:	4621      	mov	r1, r4
 800682a:	4640      	mov	r0, r8
 800682c:	f7ff fee6 	bl	80065fc <_printf_common>
 8006830:	3001      	adds	r0, #1
 8006832:	d14a      	bne.n	80068ca <_printf_i+0x1f2>
 8006834:	f04f 30ff 	mov.w	r0, #4294967295	@ 0xffffffff
 8006838:	b004      	add	sp, #16
 800683a:	e8bd 87f0 	ldmia.w	sp!, {r4, r5, r6, r7, r8, r9, sl, pc}
 800683e:	6823      	ldr	r3, [r4, #0]
 8006840:	f043 0320 	orr.w	r3, r3, #32
 8006844:	6023      	str	r3, [r4, #0]
 8006846:	4833      	ldr	r0, [pc, #204]	@ (8006914 <_printf_i+0x23c>)
 8006848:	2778      	movs	r7, #120	@ 0x78
 800684a:	f884 7045 	strb.w	r7, [r4, #69]	@ 0x45
 800684e:	6823      	ldr	r3, [r4, #0]
 8006850:	6831      	ldr	r1, [r6, #0]
 8006852:	061f      	lsls	r7, r3, #24
 8006854:	f851 5b04 	ldr.w	r5, [r1], #4
 8006858:	d402      	bmi.n	8006860 <_printf_i+0x188>
 800685a:	065f      	lsls	r7, r3, #25
 800685c:	bf48      	it	mi
 800685e:	b2ad      	uxthmi	r5, r5
 8006860:	6031      	str	r1, [r6, #0]
 8006862:	07d9      	lsls	r1, r3, #31
 8006864:	bf44      	itt	mi
 8006866:	f043 0320 	orrmi.w	r3, r3, #32
 800686a:	6023      	strmi	r3, [r4, #0]
 800686c:	b11d      	cbz	r5, 8006876 <_printf_i+0x19e>
 800686e:	2310      	movs	r3, #16
 8006870:	e7ac      	b.n	80067cc <_printf_i+0xf4>
 8006872:	4827      	ldr	r0, [pc, #156]	@ (8006910 <_printf_i+0x238>)
 8006874:	e7e9      	b.n	800684a <_printf_i+0x172>
 8006876:	6823      	ldr	r3, [r4, #0]
 8006878:	f023 0320 	bic.w	r3, r3, #32
 800687c:	6023      	str	r3, [r4, #0]
 800687e:	e7f6      	b.n	800686e <_printf_i+0x196>
 8006880:	4616      	mov	r6, r2
 8006882:	e7bd      	b.n	8006800 <_printf_i+0x128>
 8006884:	6833      	ldr	r3, [r6, #0]
 8006886:	6825      	ldr	r5, [r4, #0]
 8006888:	6961      	ldr	r1, [r4, #20]
 800688a:	1d18      	adds	r0, r3, #4
 800688c:	6030      	str	r0, [r6, #0]
 800688e:	062e      	lsls	r6, r5, #24
 8006890:	681b      	ldr	r3, [r3, #0]
 8006892:	d501      	bpl.n	8006898 <_printf_i+0x1c0>
 8006894:	6019      	str	r1, [r3, #0]
 8006896:	e002      	b.n	800689e <_printf_i+0x1c6>
 8006898:	0668      	lsls	r0, r5, #25
 800689a:	d5fb      	bpl.n	8006894 <_printf_i+0x1bc>
 800689c:	8019      	strh	r1, [r3, #0]
 800689e:	2300      	movs	r3, #0
 80068a0:	6123      	str	r3, [r4, #16]
 80068a2:	4616      	mov	r6, r2
 80068a4:	e7bc      	b.n	8006820 <_printf_i+0x148>
 80068a6:	6833      	ldr	r3, [r6, #0]
 80068a8:	1d1a      	adds	r2, r3, #4
 80068aa:	6032      	str	r2, [r6, #0]
 80068ac:	681e      	ldr	r6, [r3, #0]
 80068ae:	6862      	ldr	r2, [r4, #4]
 80068b0:	2100      	movs	r1, #0
 80068b2:	4630      	mov	r0, r6
 80068b4:	f7f9 fc8c 	bl	80001d0 <memchr>
 80068b8:	b108      	cbz	r0, 80068be <_printf_i+0x1e6>
 80068ba:	1b80      	subs	r0, r0, r6
 80068bc:	6060      	str	r0, [r4, #4]
 80068be:	6863      	ldr	r3, [r4, #4]
 80068c0:	6123      	str	r3, [r4, #16]
 80068c2:	2300      	movs	r3, #0
 80068c4:	f884 3043 	strb.w	r3, [r4, #67]	@ 0x43
 80068c8:	e7aa      	b.n	8006820 <_printf_i+0x148>
 80068ca:	6923      	ldr	r3, [r4, #16]
 80068cc:	4632      	mov	r2, r6
 80068ce:	4649      	mov	r1, r9
 80068d0:	4640      	mov	r0, r8
 80068d2:	47d0      	blx	sl
 80068d4:	3001      	adds	r0, #1
 80068d6:	d0ad      	beq.n	8006834 <_printf_i+0x15c>
 80068d8:	6823      	ldr	r3, [r4, #0]
 80068da:	079b      	lsls	r3, r3, #30
 80068dc:	d413      	bmi.n	8006906 <_printf_i+0x22e>
 80068de:	68e0      	ldr	r0, [r4, #12]
 80068e0:	9b03      	ldr	r3, [sp, #12]
 80068e2:	4298      	cmp	r0, r3
 80068e4:	bfb8      	it	lt
 80068e6:	4618      	movlt	r0, r3
 80068e8:	e7a6      	b.n	8006838 <_printf_i+0x160>
 80068ea:	2301      	movs	r3, #1
 80068ec:	4632      	mov	r2, r6
 80068ee:	4649      	mov	r1, r9
 80068f0:	4640      	mov	r0, r8
 80068f2:	47d0      	blx	sl
 80068f4:	3001      	adds	r0, #1
 80068f6:	d09d      	beq.n	8006834 <_printf_i+0x15c>
 80068f8:	3501      	adds	r5, #1
 80068fa:	68e3      	ldr	r3, [r4, #12]
 80068fc:	9903      	ldr	r1, [sp, #12]
 80068fe:	1a5b      	subs	r3, r3, r1
 8006900:	42ab      	cmp	r3, r5
 8006902:	dcf2      	bgt.n	80068ea <_printf_i+0x212>
 8006904:	e7eb      	b.n	80068de <_printf_i+0x206>
 8006906:	2500      	movs	r5, #0
 8006908:	f104 0619 	add.w	r6, r4, #25
 800690c:	e7f5      	b.n	80068fa <_printf_i+0x222>
 800690e:	bf00      	nop
 8006910:	08009706 	.word	0x08009706
 8006914:	08009717 	.word	0x08009717

08006918 <std>:
 8006918:	2300      	movs	r3, #0
 800691a:	b510      	push	{r4, lr}
 800691c:	4604      	mov	r4, r0
 800691e:	e9c0 3300 	strd	r3, r3, [r0]
 8006922:	e9c0 3304 	strd	r3, r3, [r0, #16]
 8006926:	6083      	str	r3, [r0, #8]
 8006928:	8181      	strh	r1, [r0, #12]
 800692a:	6643      	str	r3, [r0, #100]	@ 0x64
 800692c:	81c2      	strh	r2, [r0, #14]
 800692e:	6183      	str	r3, [r0, #24]
 8006930:	4619      	mov	r1, r3
 8006932:	2208      	movs	r2, #8
 8006934:	305c      	adds	r0, #92	@ 0x5c
 8006936:	f000 f9f9 	bl	8006d2c <memset>
 800693a:	4b0d      	ldr	r3, [pc, #52]	@ (8006970 <std+0x58>)
 800693c:	6263      	str	r3, [r4, #36]	@ 0x24
 800693e:	4b0d      	ldr	r3, [pc, #52]	@ (8006974 <std+0x5c>)
 8006940:	62a3      	str	r3, [r4, #40]	@ 0x28
 8006942:	4b0d      	ldr	r3, [pc, #52]	@ (8006978 <std+0x60>)
 8006944:	62e3      	str	r3, [r4, #44]	@ 0x2c
 8006946:	4b0d      	ldr	r3, [pc, #52]	@ (800697c <std+0x64>)
 8006948:	6323      	str	r3, [r4, #48]	@ 0x30
 800694a:	4b0d      	ldr	r3, [pc, #52]	@ (8006980 <std+0x68>)
 800694c:	6224      	str	r4, [r4, #32]
 800694e:	429c      	cmp	r4, r3
 8006950:	d006      	beq.n	8006960 <std+0x48>
 8006952:	f103 0268 	add.w	r2, r3, #104	@ 0x68
 8006956:	4294      	cmp	r4, r2
 8006958:	d002      	beq.n	8006960 <std+0x48>
 800695a:	33d0      	adds	r3, #208	@ 0xd0
 800695c:	429c      	cmp	r4, r3
 800695e:	d105      	bne.n	800696c <std+0x54>
 8006960:	f104 0058 	add.w	r0, r4, #88	@ 0x58
 8006964:	e8bd 4010 	ldmia.w	sp!, {r4, lr}
 8006968:	f000 bab2 	b.w	8006ed0 <__retarget_lock_init_recursive>
 800696c:	bd10      	pop	{r4, pc}
 800696e:	bf00      	nop
 8006970:	08006b7d 	.word	0x08006b7d
 8006974:	08006b9f 	.word	0x08006b9f
 8006978:	08006bd7 	.word	0x08006bd7
 800697c:	08006bfb 	.word	0x08006bfb
 8006980:	200014a8 	.word	0x200014a8

08006984 <stdio_exit_handler>:
 8006984:	4a02      	ldr	r2, [pc, #8]	@ (8006990 <stdio_exit_handler+0xc>)
 8006986:	4903      	ldr	r1, [pc, #12]	@ (8006994 <stdio_exit_handler+0x10>)
 8006988:	4803      	ldr	r0, [pc, #12]	@ (8006998 <stdio_exit_handler+0x14>)
 800698a:	f000 b869 	b.w	8006a60 <_fwalk_sglue>
 800698e:	bf00      	nop
 8006990:	20000030 	.word	0x20000030
 8006994:	08008821 	.word	0x08008821
 8006998:	20000040 	.word	0x20000040

0800699c <cleanup_stdio>:
 800699c:	6841      	ldr	r1, [r0, #4]
 800699e:	4b0c      	ldr	r3, [pc, #48]	@ (80069d0 <cleanup_stdio+0x34>)
 80069a0:	4299      	cmp	r1, r3
 80069a2:	b510      	push	{r4, lr}
 80069a4:	4604      	mov	r4, r0
 80069a6:	d001      	beq.n	80069ac <cleanup_stdio+0x10>
 80069a8:	f001 ff3a 	bl	8008820 <_fflush_r>
 80069ac:	68a1      	ldr	r1, [r4, #8]
 80069ae:	4b09      	ldr	r3, [pc, #36]	@ (80069d4 <cleanup_stdio+0x38>)
 80069b0:	4299      	cmp	r1, r3
 80069b2:	d002      	beq.n	80069ba <cleanup_stdio+0x1e>
 80069b4:	4620      	mov	r0, r4
 80069b6:	f001 ff33 	bl	8008820 <_fflush_r>
 80069ba:	68e1      	ldr	r1, [r4, #12]
 80069bc:	4b06      	ldr	r3, [pc, #24]	@ (80069d8 <cleanup_stdio+0x3c>)
 80069be:	4299      	cmp	r1, r3
 80069c0:	d004      	beq.n	80069cc <cleanup_stdio+0x30>
 80069c2:	4620      	mov	r0, r4
 80069c4:	e8bd 4010 	ldmia.w	sp!, {r4, lr}
 80069c8:	f001 bf2a 	b.w	8008820 <_fflush_r>
 80069cc:	bd10      	pop	{r4, pc}
 80069ce:	bf00      	nop
 80069d0:	200014a8 	.word	0x200014a8
 80069d4:	20001510 	.word	0x20001510
 80069d8:	20001578 	.word	0x20001578

080069dc <global_stdio_init.part.0>:
 80069dc:	b510      	push	{r4, lr}
 80069de:	4b0b      	ldr	r3, [pc, #44]	@ (8006a0c <global_stdio_init.part.0+0x30>)
 80069e0:	4c0b      	ldr	r4, [pc, #44]	@ (8006a10 <global_stdio_init.part.0+0x34>)
 80069e2:	4a0c      	ldr	r2, [pc, #48]	@ (8006a14 <global_stdio_init.part.0+0x38>)
 80069e4:	601a      	str	r2, [r3, #0]
 80069e6:	4620      	mov	r0, r4
 80069e8:	2200      	movs	r2, #0
 80069ea:	2104      	movs	r1, #4
 80069ec:	f7ff ff94 	bl	8006918 <std>
 80069f0:	f104 0068 	add.w	r0, r4, #104	@ 0x68
 80069f4:	2201      	movs	r2, #1
 80069f6:	2109      	movs	r1, #9
 80069f8:	f7ff ff8e 	bl	8006918 <std>
 80069fc:	f104 00d0 	add.w	r0, r4, #208	@ 0xd0
 8006a00:	2202      	movs	r2, #2
 8006a02:	e8bd 4010 	ldmia.w	sp!, {r4, lr}
 8006a06:	2112      	movs	r1, #18
 8006a08:	f7ff bf86 	b.w	8006918 <std>
 8006a0c:	200015e0 	.word	0x200015e0
 8006a10:	200014a8 	.word	0x200014a8
 8006a14:	08006985 	.word	0x08006985

08006a18 <__sfp_lock_acquire>:
 8006a18:	4801      	ldr	r0, [pc, #4]	@ (8006a20 <__sfp_lock_acquire+0x8>)
 8006a1a:	f000 ba5a 	b.w	8006ed2 <__retarget_lock_acquire_recursive>
 8006a1e:	bf00      	nop
 8006a20:	200015e9 	.word	0x200015e9

08006a24 <__sfp_lock_release>:
 8006a24:	4801      	ldr	r0, [pc, #4]	@ (8006a2c <__sfp_lock_release+0x8>)
 8006a26:	f000 ba55 	b.w	8006ed4 <__retarget_lock_release_recursive>
 8006a2a:	bf00      	nop
 8006a2c:	200015e9 	.word	0x200015e9

08006a30 <__sinit>:
 8006a30:	b510      	push	{r4, lr}
 8006a32:	4604      	mov	r4, r0
 8006a34:	f7ff fff0 	bl	8006a18 <__sfp_lock_acquire>
 8006a38:	6a23      	ldr	r3, [r4, #32]
 8006a3a:	b11b      	cbz	r3, 8006a44 <__sinit+0x14>
 8006a3c:	e8bd 4010 	ldmia.w	sp!, {r4, lr}
 8006a40:	f7ff bff0 	b.w	8006a24 <__sfp_lock_release>
 8006a44:	4b04      	ldr	r3, [pc, #16]	@ (8006a58 <__sinit+0x28>)
 8006a46:	6223      	str	r3, [r4, #32]
 8006a48:	4b04      	ldr	r3, [pc, #16]	@ (8006a5c <__sinit+0x2c>)
 8006a4a:	681b      	ldr	r3, [r3, #0]
 8006a4c:	2b00      	cmp	r3, #0
 8006a4e:	d1f5      	bne.n	8006a3c <__sinit+0xc>
 8006a50:	f7ff ffc4 	bl	80069dc <global_stdio_init.part.0>
 8006a54:	e7f2      	b.n	8006a3c <__sinit+0xc>
 8006a56:	bf00      	nop
 8006a58:	0800699d 	.word	0x0800699d
 8006a5c:	200015e0 	.word	0x200015e0

08006a60 <_fwalk_sglue>:
 8006a60:	e92d 43f8 	stmdb	sp!, {r3, r4, r5, r6, r7, r8, r9, lr}
 8006a64:	4607      	mov	r7, r0
 8006a66:	4688      	mov	r8, r1
 8006a68:	4614      	mov	r4, r2
 8006a6a:	2600      	movs	r6, #0
 8006a6c:	e9d4 9501 	ldrd	r9, r5, [r4, #4]
 8006a70:	f1b9 0901 	subs.w	r9, r9, #1
 8006a74:	d505      	bpl.n	8006a82 <_fwalk_sglue+0x22>
 8006a76:	6824      	ldr	r4, [r4, #0]
 8006a78:	2c00      	cmp	r4, #0
 8006a7a:	d1f7      	bne.n	8006a6c <_fwalk_sglue+0xc>
 8006a7c:	4630      	mov	r0, r6
 8006a7e:	e8bd 83f8 	ldmia.w	sp!, {r3, r4, r5, r6, r7, r8, r9, pc}
 8006a82:	89ab      	ldrh	r3, [r5, #12]
 8006a84:	2b01      	cmp	r3, #1
 8006a86:	d907      	bls.n	8006a98 <_fwalk_sglue+0x38>
 8006a88:	f9b5 300e 	ldrsh.w	r3, [r5, #14]
 8006a8c:	3301      	adds	r3, #1
 8006a8e:	d003      	beq.n	8006a98 <_fwalk_sglue+0x38>
 8006a90:	4629      	mov	r1, r5
 8006a92:	4638      	mov	r0, r7
 8006a94:	47c0      	blx	r8
 8006a96:	4306      	orrs	r6, r0
 8006a98:	3568      	adds	r5, #104	@ 0x68
 8006a9a:	e7e9      	b.n	8006a70 <_fwalk_sglue+0x10>

08006a9c <iprintf>:
 8006a9c:	b40f      	push	{r0, r1, r2, r3}
 8006a9e:	b507      	push	{r0, r1, r2, lr}
 8006aa0:	4906      	ldr	r1, [pc, #24]	@ (8006abc <iprintf+0x20>)
 8006aa2:	ab04      	add	r3, sp, #16
 8006aa4:	6808      	ldr	r0, [r1, #0]
 8006aa6:	f853 2b04 	ldr.w	r2, [r3], #4
 8006aaa:	6881      	ldr	r1, [r0, #8]
 8006aac:	9301      	str	r3, [sp, #4]
 8006aae:	f001 fd1b 	bl	80084e8 <_vfiprintf_r>
 8006ab2:	b003      	add	sp, #12
 8006ab4:	f85d eb04 	ldr.w	lr, [sp], #4
 8006ab8:	b004      	add	sp, #16
 8006aba:	4770      	bx	lr
 8006abc:	2000003c 	.word	0x2000003c

08006ac0 <_puts_r>:
 8006ac0:	6a03      	ldr	r3, [r0, #32]
 8006ac2:	b570      	push	{r4, r5, r6, lr}
 8006ac4:	6884      	ldr	r4, [r0, #8]
 8006ac6:	4605      	mov	r5, r0
 8006ac8:	460e      	mov	r6, r1
 8006aca:	b90b      	cbnz	r3, 8006ad0 <_puts_r+0x10>
 8006acc:	f7ff ffb0 	bl	8006a30 <__sinit>
 8006ad0:	6e63      	ldr	r3, [r4, #100]	@ 0x64
 8006ad2:	07db      	lsls	r3, r3, #31
 8006ad4:	d405      	bmi.n	8006ae2 <_puts_r+0x22>
 8006ad6:	89a3      	ldrh	r3, [r4, #12]
 8006ad8:	0598      	lsls	r0, r3, #22
 8006ada:	d402      	bmi.n	8006ae2 <_puts_r+0x22>
 8006adc:	6da0      	ldr	r0, [r4, #88]	@ 0x58
 8006ade:	f000 f9f8 	bl	8006ed2 <__retarget_lock_acquire_recursive>
 8006ae2:	89a3      	ldrh	r3, [r4, #12]
 8006ae4:	0719      	lsls	r1, r3, #28
 8006ae6:	d502      	bpl.n	8006aee <_puts_r+0x2e>
 8006ae8:	6923      	ldr	r3, [r4, #16]
 8006aea:	2b00      	cmp	r3, #0
 8006aec:	d135      	bne.n	8006b5a <_puts_r+0x9a>
 8006aee:	4621      	mov	r1, r4
 8006af0:	4628      	mov	r0, r5
 8006af2:	f000 f8c5 	bl	8006c80 <__swsetup_r>
 8006af6:	b380      	cbz	r0, 8006b5a <_puts_r+0x9a>
 8006af8:	f04f 35ff 	mov.w	r5, #4294967295	@ 0xffffffff
 8006afc:	6e63      	ldr	r3, [r4, #100]	@ 0x64
 8006afe:	07da      	lsls	r2, r3, #31
 8006b00:	d405      	bmi.n	8006b0e <_puts_r+0x4e>
 8006b02:	89a3      	ldrh	r3, [r4, #12]
 8006b04:	059b      	lsls	r3, r3, #22
 8006b06:	d402      	bmi.n	8006b0e <_puts_r+0x4e>
 8006b08:	6da0      	ldr	r0, [r4, #88]	@ 0x58
 8006b0a:	f000 f9e3 	bl	8006ed4 <__retarget_lock_release_recursive>
 8006b0e:	4628      	mov	r0, r5
 8006b10:	bd70      	pop	{r4, r5, r6, pc}
 8006b12:	2b00      	cmp	r3, #0
 8006b14:	da04      	bge.n	8006b20 <_puts_r+0x60>
 8006b16:	69a2      	ldr	r2, [r4, #24]
 8006b18:	429a      	cmp	r2, r3
 8006b1a:	dc17      	bgt.n	8006b4c <_puts_r+0x8c>
 8006b1c:	290a      	cmp	r1, #10
 8006b1e:	d015      	beq.n	8006b4c <_puts_r+0x8c>
 8006b20:	6823      	ldr	r3, [r4, #0]
 8006b22:	1c5a      	adds	r2, r3, #1
 8006b24:	6022      	str	r2, [r4, #0]
 8006b26:	7019      	strb	r1, [r3, #0]
 8006b28:	68a3      	ldr	r3, [r4, #8]
 8006b2a:	f816 1f01 	ldrb.w	r1, [r6, #1]!
 8006b2e:	3b01      	subs	r3, #1
 8006b30:	60a3      	str	r3, [r4, #8]
 8006b32:	2900      	cmp	r1, #0
 8006b34:	d1ed      	bne.n	8006b12 <_puts_r+0x52>
 8006b36:	2b00      	cmp	r3, #0
 8006b38:	da11      	bge.n	8006b5e <_puts_r+0x9e>
 8006b3a:	4622      	mov	r2, r4
 8006b3c:	210a      	movs	r1, #10
 8006b3e:	4628      	mov	r0, r5
 8006b40:	f000 f85f 	bl	8006c02 <__swbuf_r>
 8006b44:	3001      	adds	r0, #1
 8006b46:	d0d7      	beq.n	8006af8 <_puts_r+0x38>
 8006b48:	250a      	movs	r5, #10
 8006b4a:	e7d7      	b.n	8006afc <_puts_r+0x3c>
 8006b4c:	4622      	mov	r2, r4
 8006b4e:	4628      	mov	r0, r5
 8006b50:	f000 f857 	bl	8006c02 <__swbuf_r>
 8006b54:	3001      	adds	r0, #1
 8006b56:	d1e7      	bne.n	8006b28 <_puts_r+0x68>
 8006b58:	e7ce      	b.n	8006af8 <_puts_r+0x38>
 8006b5a:	3e01      	subs	r6, #1
 8006b5c:	e7e4      	b.n	8006b28 <_puts_r+0x68>
 8006b5e:	6823      	ldr	r3, [r4, #0]
 8006b60:	1c5a      	adds	r2, r3, #1
 8006b62:	6022      	str	r2, [r4, #0]
 8006b64:	220a      	movs	r2, #10
 8006b66:	701a      	strb	r2, [r3, #0]
 8006b68:	e7ee      	b.n	8006b48 <_puts_r+0x88>
	...

08006b6c <puts>:
 8006b6c:	4b02      	ldr	r3, [pc, #8]	@ (8006b78 <puts+0xc>)
 8006b6e:	4601      	mov	r1, r0
 8006b70:	6818      	ldr	r0, [r3, #0]
 8006b72:	f7ff bfa5 	b.w	8006ac0 <_puts_r>
 8006b76:	bf00      	nop
 8006b78:	2000003c 	.word	0x2000003c

08006b7c <__sread>:
 8006b7c:	b510      	push	{r4, lr}
 8006b7e:	460c      	mov	r4, r1
 8006b80:	f9b1 100e 	ldrsh.w	r1, [r1, #14]
 8006b84:	f000 f956 	bl	8006e34 <_read_r>
 8006b88:	2800      	cmp	r0, #0
 8006b8a:	bfab      	itete	ge
 8006b8c:	6d63      	ldrge	r3, [r4, #84]	@ 0x54
 8006b8e:	89a3      	ldrhlt	r3, [r4, #12]
 8006b90:	181b      	addge	r3, r3, r0
 8006b92:	f423 5380 	biclt.w	r3, r3, #4096	@ 0x1000
 8006b96:	bfac      	ite	ge
 8006b98:	6563      	strge	r3, [r4, #84]	@ 0x54
 8006b9a:	81a3      	strhlt	r3, [r4, #12]
 8006b9c:	bd10      	pop	{r4, pc}

08006b9e <__swrite>:
 8006b9e:	e92d 41f0 	stmdb	sp!, {r4, r5, r6, r7, r8, lr}
 8006ba2:	461f      	mov	r7, r3
 8006ba4:	898b      	ldrh	r3, [r1, #12]
 8006ba6:	05db      	lsls	r3, r3, #23
 8006ba8:	4605      	mov	r5, r0
 8006baa:	460c      	mov	r4, r1
 8006bac:	4616      	mov	r6, r2
 8006bae:	d505      	bpl.n	8006bbc <__swrite+0x1e>
 8006bb0:	f9b1 100e 	ldrsh.w	r1, [r1, #14]
 8006bb4:	2302      	movs	r3, #2
 8006bb6:	2200      	movs	r2, #0
 8006bb8:	f000 f92a 	bl	8006e10 <_lseek_r>
 8006bbc:	89a3      	ldrh	r3, [r4, #12]
 8006bbe:	f9b4 100e 	ldrsh.w	r1, [r4, #14]
 8006bc2:	f423 5380 	bic.w	r3, r3, #4096	@ 0x1000
 8006bc6:	81a3      	strh	r3, [r4, #12]
 8006bc8:	4632      	mov	r2, r6
 8006bca:	463b      	mov	r3, r7
 8006bcc:	4628      	mov	r0, r5
 8006bce:	e8bd 41f0 	ldmia.w	sp!, {r4, r5, r6, r7, r8, lr}
 8006bd2:	f000 b941 	b.w	8006e58 <_write_r>

08006bd6 <__sseek>:
 8006bd6:	b510      	push	{r4, lr}
 8006bd8:	460c      	mov	r4, r1
 8006bda:	f9b1 100e 	ldrsh.w	r1, [r1, #14]
 8006bde:	f000 f917 	bl	8006e10 <_lseek_r>
 8006be2:	1c43      	adds	r3, r0, #1
 8006be4:	89a3      	ldrh	r3, [r4, #12]
 8006be6:	bf15      	itete	ne
 8006be8:	6560      	strne	r0, [r4, #84]	@ 0x54
 8006bea:	f423 5380 	biceq.w	r3, r3, #4096	@ 0x1000
 8006bee:	f443 5380 	orrne.w	r3, r3, #4096	@ 0x1000
 8006bf2:	81a3      	strheq	r3, [r4, #12]
 8006bf4:	bf18      	it	ne
 8006bf6:	81a3      	strhne	r3, [r4, #12]
 8006bf8:	bd10      	pop	{r4, pc}

08006bfa <__sclose>:
 8006bfa:	f9b1 100e 	ldrsh.w	r1, [r1, #14]
 8006bfe:	f000 b8a1 	b.w	8006d44 <_close_r>

08006c02 <__swbuf_r>:
 8006c02:	b5f8      	push	{r3, r4, r5, r6, r7, lr}
 8006c04:	460e      	mov	r6, r1
 8006c06:	4614      	mov	r4, r2
 8006c08:	4605      	mov	r5, r0
 8006c0a:	b118      	cbz	r0, 8006c14 <__swbuf_r+0x12>
 8006c0c:	6a03      	ldr	r3, [r0, #32]
 8006c0e:	b90b      	cbnz	r3, 8006c14 <__swbuf_r+0x12>
 8006c10:	f7ff ff0e 	bl	8006a30 <__sinit>
 8006c14:	69a3      	ldr	r3, [r4, #24]
 8006c16:	60a3      	str	r3, [r4, #8]
 8006c18:	89a3      	ldrh	r3, [r4, #12]
 8006c1a:	071a      	lsls	r2, r3, #28
 8006c1c:	d501      	bpl.n	8006c22 <__swbuf_r+0x20>
 8006c1e:	6923      	ldr	r3, [r4, #16]
 8006c20:	b943      	cbnz	r3, 8006c34 <__swbuf_r+0x32>
 8006c22:	4621      	mov	r1, r4
 8006c24:	4628      	mov	r0, r5
 8006c26:	f000 f82b 	bl	8006c80 <__swsetup_r>
 8006c2a:	b118      	cbz	r0, 8006c34 <__swbuf_r+0x32>
 8006c2c:	f04f 37ff 	mov.w	r7, #4294967295	@ 0xffffffff
 8006c30:	4638      	mov	r0, r7
 8006c32:	bdf8      	pop	{r3, r4, r5, r6, r7, pc}
 8006c34:	6823      	ldr	r3, [r4, #0]
 8006c36:	6922      	ldr	r2, [r4, #16]
 8006c38:	1a98      	subs	r0, r3, r2
 8006c3a:	6963      	ldr	r3, [r4, #20]
 8006c3c:	b2f6      	uxtb	r6, r6
 8006c3e:	4283      	cmp	r3, r0
 8006c40:	4637      	mov	r7, r6
 8006c42:	dc05      	bgt.n	8006c50 <__swbuf_r+0x4e>
 8006c44:	4621      	mov	r1, r4
 8006c46:	4628      	mov	r0, r5
 8006c48:	f001 fdea 	bl	8008820 <_fflush_r>
 8006c4c:	2800      	cmp	r0, #0
 8006c4e:	d1ed      	bne.n	8006c2c <__swbuf_r+0x2a>
 8006c50:	68a3      	ldr	r3, [r4, #8]
 8006c52:	3b01      	subs	r3, #1
 8006c54:	60a3      	str	r3, [r4, #8]
 8006c56:	6823      	ldr	r3, [r4, #0]
 8006c58:	1c5a      	adds	r2, r3, #1
 8006c5a:	6022      	str	r2, [r4, #0]
 8006c5c:	701e      	strb	r6, [r3, #0]
 8006c5e:	6962      	ldr	r2, [r4, #20]
 8006c60:	1c43      	adds	r3, r0, #1
 8006c62:	429a      	cmp	r2, r3
 8006c64:	d004      	beq.n	8006c70 <__swbuf_r+0x6e>
 8006c66:	89a3      	ldrh	r3, [r4, #12]
 8006c68:	07db      	lsls	r3, r3, #31
 8006c6a:	d5e1      	bpl.n	8006c30 <__swbuf_r+0x2e>
 8006c6c:	2e0a      	cmp	r6, #10
 8006c6e:	d1df      	bne.n	8006c30 <__swbuf_r+0x2e>
 8006c70:	4621      	mov	r1, r4
 8006c72:	4628      	mov	r0, r5
 8006c74:	f001 fdd4 	bl	8008820 <_fflush_r>
 8006c78:	2800      	cmp	r0, #0
 8006c7a:	d0d9      	beq.n	8006c30 <__swbuf_r+0x2e>
 8006c7c:	e7d6      	b.n	8006c2c <__swbuf_r+0x2a>
	...

08006c80 <__swsetup_r>:
 8006c80:	b538      	push	{r3, r4, r5, lr}
 8006c82:	4b29      	ldr	r3, [pc, #164]	@ (8006d28 <__swsetup_r+0xa8>)
 8006c84:	4605      	mov	r5, r0
 8006c86:	6818      	ldr	r0, [r3, #0]
 8006c88:	460c      	mov	r4, r1
 8006c8a:	b118      	cbz	r0, 8006c94 <__swsetup_r+0x14>
 8006c8c:	6a03      	ldr	r3, [r0, #32]
 8006c8e:	b90b      	cbnz	r3, 8006c94 <__swsetup_r+0x14>
 8006c90:	f7ff fece 	bl	8006a30 <__sinit>
 8006c94:	f9b4 300c 	ldrsh.w	r3, [r4, #12]
 8006c98:	0719      	lsls	r1, r3, #28
 8006c9a:	d422      	bmi.n	8006ce2 <__swsetup_r+0x62>
 8006c9c:	06da      	lsls	r2, r3, #27
 8006c9e:	d407      	bmi.n	8006cb0 <__swsetup_r+0x30>
 8006ca0:	2209      	movs	r2, #9
 8006ca2:	602a      	str	r2, [r5, #0]
 8006ca4:	f043 0340 	orr.w	r3, r3, #64	@ 0x40
 8006ca8:	81a3      	strh	r3, [r4, #12]
 8006caa:	f04f 30ff 	mov.w	r0, #4294967295	@ 0xffffffff
 8006cae:	e033      	b.n	8006d18 <__swsetup_r+0x98>
 8006cb0:	0758      	lsls	r0, r3, #29
 8006cb2:	d512      	bpl.n	8006cda <__swsetup_r+0x5a>
 8006cb4:	6b61      	ldr	r1, [r4, #52]	@ 0x34
 8006cb6:	b141      	cbz	r1, 8006cca <__swsetup_r+0x4a>
 8006cb8:	f104 0344 	add.w	r3, r4, #68	@ 0x44
 8006cbc:	4299      	cmp	r1, r3
 8006cbe:	d002      	beq.n	8006cc6 <__swsetup_r+0x46>
 8006cc0:	4628      	mov	r0, r5
 8006cc2:	f000 ff65 	bl	8007b90 <_free_r>
 8006cc6:	2300      	movs	r3, #0
 8006cc8:	6363      	str	r3, [r4, #52]	@ 0x34
 8006cca:	89a3      	ldrh	r3, [r4, #12]
 8006ccc:	f023 0324 	bic.w	r3, r3, #36	@ 0x24
 8006cd0:	81a3      	strh	r3, [r4, #12]
 8006cd2:	2300      	movs	r3, #0
 8006cd4:	6063      	str	r3, [r4, #4]
 8006cd6:	6923      	ldr	r3, [r4, #16]
 8006cd8:	6023      	str	r3, [r4, #0]
 8006cda:	89a3      	ldrh	r3, [r4, #12]
 8006cdc:	f043 0308 	orr.w	r3, r3, #8
 8006ce0:	81a3      	strh	r3, [r4, #12]
 8006ce2:	6923      	ldr	r3, [r4, #16]
 8006ce4:	b94b      	cbnz	r3, 8006cfa <__swsetup_r+0x7a>
 8006ce6:	89a3      	ldrh	r3, [r4, #12]
 8006ce8:	f403 7320 	and.w	r3, r3, #640	@ 0x280
 8006cec:	f5b3 7f00 	cmp.w	r3, #512	@ 0x200
 8006cf0:	d003      	beq.n	8006cfa <__swsetup_r+0x7a>
 8006cf2:	4621      	mov	r1, r4
 8006cf4:	4628      	mov	r0, r5
 8006cf6:	f001 fde1 	bl	80088bc <__smakebuf_r>
 8006cfa:	f9b4 300c 	ldrsh.w	r3, [r4, #12]
 8006cfe:	f013 0201 	ands.w	r2, r3, #1
 8006d02:	d00a      	beq.n	8006d1a <__swsetup_r+0x9a>
 8006d04:	2200      	movs	r2, #0
 8006d06:	60a2      	str	r2, [r4, #8]
 8006d08:	6962      	ldr	r2, [r4, #20]
 8006d0a:	4252      	negs	r2, r2
 8006d0c:	61a2      	str	r2, [r4, #24]
 8006d0e:	6922      	ldr	r2, [r4, #16]
 8006d10:	b942      	cbnz	r2, 8006d24 <__swsetup_r+0xa4>
 8006d12:	f013 0080 	ands.w	r0, r3, #128	@ 0x80
 8006d16:	d1c5      	bne.n	8006ca4 <__swsetup_r+0x24>
 8006d18:	bd38      	pop	{r3, r4, r5, pc}
 8006d1a:	0799      	lsls	r1, r3, #30
 8006d1c:	bf58      	it	pl
 8006d1e:	6962      	ldrpl	r2, [r4, #20]
 8006d20:	60a2      	str	r2, [r4, #8]
 8006d22:	e7f4      	b.n	8006d0e <__swsetup_r+0x8e>
 8006d24:	2000      	movs	r0, #0
 8006d26:	e7f7      	b.n	8006d18 <__swsetup_r+0x98>
 8006d28:	2000003c 	.word	0x2000003c

08006d2c <memset>:
 8006d2c:	4402      	add	r2, r0
 8006d2e:	4603      	mov	r3, r0
 8006d30:	4293      	cmp	r3, r2
 8006d32:	d100      	bne.n	8006d36 <memset+0xa>
 8006d34:	4770      	bx	lr
 8006d36:	f803 1b01 	strb.w	r1, [r3], #1
 8006d3a:	e7f9      	b.n	8006d30 <memset+0x4>

08006d3c <_localeconv_r>:
 8006d3c:	4800      	ldr	r0, [pc, #0]	@ (8006d40 <_localeconv_r+0x4>)
 8006d3e:	4770      	bx	lr
 8006d40:	2000017c 	.word	0x2000017c

08006d44 <_close_r>:
 8006d44:	b538      	push	{r3, r4, r5, lr}
 8006d46:	4d06      	ldr	r5, [pc, #24]	@ (8006d60 <_close_r+0x1c>)
 8006d48:	2300      	movs	r3, #0
 8006d4a:	4604      	mov	r4, r0
 8006d4c:	4608      	mov	r0, r1
 8006d4e:	602b      	str	r3, [r5, #0]
 8006d50:	f7fa ffa2 	bl	8001c98 <_close>
 8006d54:	1c43      	adds	r3, r0, #1
 8006d56:	d102      	bne.n	8006d5e <_close_r+0x1a>
 8006d58:	682b      	ldr	r3, [r5, #0]
 8006d5a:	b103      	cbz	r3, 8006d5e <_close_r+0x1a>
 8006d5c:	6023      	str	r3, [r4, #0]
 8006d5e:	bd38      	pop	{r3, r4, r5, pc}
 8006d60:	200015e4 	.word	0x200015e4

08006d64 <_reclaim_reent>:
 8006d64:	4b29      	ldr	r3, [pc, #164]	@ (8006e0c <_reclaim_reent+0xa8>)
 8006d66:	681b      	ldr	r3, [r3, #0]
 8006d68:	4283      	cmp	r3, r0
 8006d6a:	b570      	push	{r4, r5, r6, lr}
 8006d6c:	4604      	mov	r4, r0
 8006d6e:	d04b      	beq.n	8006e08 <_reclaim_reent+0xa4>
 8006d70:	69c3      	ldr	r3, [r0, #28]
 8006d72:	b1ab      	cbz	r3, 8006da0 <_reclaim_reent+0x3c>
 8006d74:	68db      	ldr	r3, [r3, #12]
 8006d76:	b16b      	cbz	r3, 8006d94 <_reclaim_reent+0x30>
 8006d78:	2500      	movs	r5, #0
 8006d7a:	69e3      	ldr	r3, [r4, #28]
 8006d7c:	68db      	ldr	r3, [r3, #12]
 8006d7e:	5959      	ldr	r1, [r3, r5]
 8006d80:	2900      	cmp	r1, #0
 8006d82:	d13b      	bne.n	8006dfc <_reclaim_reent+0x98>
 8006d84:	3504      	adds	r5, #4
 8006d86:	2d80      	cmp	r5, #128	@ 0x80
 8006d88:	d1f7      	bne.n	8006d7a <_reclaim_reent+0x16>
 8006d8a:	69e3      	ldr	r3, [r4, #28]
 8006d8c:	4620      	mov	r0, r4
 8006d8e:	68d9      	ldr	r1, [r3, #12]
 8006d90:	f000 fefe 	bl	8007b90 <_free_r>
 8006d94:	69e3      	ldr	r3, [r4, #28]
 8006d96:	6819      	ldr	r1, [r3, #0]
 8006d98:	b111      	cbz	r1, 8006da0 <_reclaim_reent+0x3c>
 8006d9a:	4620      	mov	r0, r4
 8006d9c:	f000 fef8 	bl	8007b90 <_free_r>
 8006da0:	6961      	ldr	r1, [r4, #20]
 8006da2:	b111      	cbz	r1, 8006daa <_reclaim_reent+0x46>
 8006da4:	4620      	mov	r0, r4
 8006da6:	f000 fef3 	bl	8007b90 <_free_r>
 8006daa:	69e1      	ldr	r1, [r4, #28]
 8006dac:	b111      	cbz	r1, 8006db4 <_reclaim_reent+0x50>
 8006dae:	4620      	mov	r0, r4
 8006db0:	f000 feee 	bl	8007b90 <_free_r>
 8006db4:	6b21      	ldr	r1, [r4, #48]	@ 0x30
 8006db6:	b111      	cbz	r1, 8006dbe <_reclaim_reent+0x5a>
 8006db8:	4620      	mov	r0, r4
 8006dba:	f000 fee9 	bl	8007b90 <_free_r>
 8006dbe:	6b61      	ldr	r1, [r4, #52]	@ 0x34
 8006dc0:	b111      	cbz	r1, 8006dc8 <_reclaim_reent+0x64>
 8006dc2:	4620      	mov	r0, r4
 8006dc4:	f000 fee4 	bl	8007b90 <_free_r>
 8006dc8:	6ba1      	ldr	r1, [r4, #56]	@ 0x38
 8006dca:	b111      	cbz	r1, 8006dd2 <_reclaim_reent+0x6e>
 8006dcc:	4620      	mov	r0, r4
 8006dce:	f000 fedf 	bl	8007b90 <_free_r>
 8006dd2:	6ca1      	ldr	r1, [r4, #72]	@ 0x48
 8006dd4:	b111      	cbz	r1, 8006ddc <_reclaim_reent+0x78>
 8006dd6:	4620      	mov	r0, r4
 8006dd8:	f000 feda 	bl	8007b90 <_free_r>
 8006ddc:	6c61      	ldr	r1, [r4, #68]	@ 0x44
 8006dde:	b111      	cbz	r1, 8006de6 <_reclaim_reent+0x82>
 8006de0:	4620      	mov	r0, r4
 8006de2:	f000 fed5 	bl	8007b90 <_free_r>
 8006de6:	6ae1      	ldr	r1, [r4, #44]	@ 0x2c
 8006de8:	b111      	cbz	r1, 8006df0 <_reclaim_reent+0x8c>
 8006dea:	4620      	mov	r0, r4
 8006dec:	f000 fed0 	bl	8007b90 <_free_r>
 8006df0:	6a23      	ldr	r3, [r4, #32]
 8006df2:	b14b      	cbz	r3, 8006e08 <_reclaim_reent+0xa4>
 8006df4:	4620      	mov	r0, r4
 8006df6:	e8bd 4070 	ldmia.w	sp!, {r4, r5, r6, lr}
 8006dfa:	4718      	bx	r3
 8006dfc:	680e      	ldr	r6, [r1, #0]
 8006dfe:	4620      	mov	r0, r4
 8006e00:	f000 fec6 	bl	8007b90 <_free_r>
 8006e04:	4631      	mov	r1, r6
 8006e06:	e7bb      	b.n	8006d80 <_reclaim_reent+0x1c>
 8006e08:	bd70      	pop	{r4, r5, r6, pc}
 8006e0a:	bf00      	nop
 8006e0c:	2000003c 	.word	0x2000003c

08006e10 <_lseek_r>:
 8006e10:	b538      	push	{r3, r4, r5, lr}
 8006e12:	4d07      	ldr	r5, [pc, #28]	@ (8006e30 <_lseek_r+0x20>)
 8006e14:	4604      	mov	r4, r0
 8006e16:	4608      	mov	r0, r1
 8006e18:	4611      	mov	r1, r2
 8006e1a:	2200      	movs	r2, #0
 8006e1c:	602a      	str	r2, [r5, #0]
 8006e1e:	461a      	mov	r2, r3
 8006e20:	f7fa ff44 	bl	8001cac <_lseek>
 8006e24:	1c43      	adds	r3, r0, #1
 8006e26:	d102      	bne.n	8006e2e <_lseek_r+0x1e>
 8006e28:	682b      	ldr	r3, [r5, #0]
 8006e2a:	b103      	cbz	r3, 8006e2e <_lseek_r+0x1e>
 8006e2c:	6023      	str	r3, [r4, #0]
 8006e2e:	bd38      	pop	{r3, r4, r5, pc}
 8006e30:	200015e4 	.word	0x200015e4

08006e34 <_read_r>:
 8006e34:	b538      	push	{r3, r4, r5, lr}
 8006e36:	4d07      	ldr	r5, [pc, #28]	@ (8006e54 <_read_r+0x20>)
 8006e38:	4604      	mov	r4, r0
 8006e3a:	4608      	mov	r0, r1
 8006e3c:	4611      	mov	r1, r2
 8006e3e:	2200      	movs	r2, #0
 8006e40:	602a      	str	r2, [r5, #0]
 8006e42:	461a      	mov	r2, r3
 8006e44:	f7fa ff18 	bl	8001c78 <_read>
 8006e48:	1c43      	adds	r3, r0, #1
 8006e4a:	d102      	bne.n	8006e52 <_read_r+0x1e>
 8006e4c:	682b      	ldr	r3, [r5, #0]
 8006e4e:	b103      	cbz	r3, 8006e52 <_read_r+0x1e>
 8006e50:	6023      	str	r3, [r4, #0]
 8006e52:	bd38      	pop	{r3, r4, r5, pc}
 8006e54:	200015e4 	.word	0x200015e4

08006e58 <_write_r>:
 8006e58:	b538      	push	{r3, r4, r5, lr}
 8006e5a:	4d07      	ldr	r5, [pc, #28]	@ (8006e78 <_write_r+0x20>)
 8006e5c:	4604      	mov	r4, r0
 8006e5e:	4608      	mov	r0, r1
 8006e60:	4611      	mov	r1, r2
 8006e62:	2200      	movs	r2, #0
 8006e64:	602a      	str	r2, [r5, #0]
 8006e66:	461a      	mov	r2, r3
 8006e68:	f7fa fa9c 	bl	80013a4 <_write>
 8006e6c:	1c43      	adds	r3, r0, #1
 8006e6e:	d102      	bne.n	8006e76 <_write_r+0x1e>
 8006e70:	682b      	ldr	r3, [r5, #0]
 8006e72:	b103      	cbz	r3, 8006e76 <_write_r+0x1e>
 8006e74:	6023      	str	r3, [r4, #0]
 8006e76:	bd38      	pop	{r3, r4, r5, pc}
 8006e78:	200015e4 	.word	0x200015e4

08006e7c <__errno>:
 8006e7c:	4b01      	ldr	r3, [pc, #4]	@ (8006e84 <__errno+0x8>)
 8006e7e:	6818      	ldr	r0, [r3, #0]
 8006e80:	4770      	bx	lr
 8006e82:	bf00      	nop
 8006e84:	2000003c 	.word	0x2000003c

08006e88 <__libc_init_array>:
 8006e88:	b570      	push	{r4, r5, r6, lr}
 8006e8a:	4d0d      	ldr	r5, [pc, #52]	@ (8006ec0 <__libc_init_array+0x38>)
 8006e8c:	4c0d      	ldr	r4, [pc, #52]	@ (8006ec4 <__libc_init_array+0x3c>)
 8006e8e:	1b64      	subs	r4, r4, r5
 8006e90:	10a4      	asrs	r4, r4, #2
 8006e92:	2600      	movs	r6, #0
 8006e94:	42a6      	cmp	r6, r4
 8006e96:	d109      	bne.n	8006eac <__libc_init_array+0x24>
 8006e98:	4d0b      	ldr	r5, [pc, #44]	@ (8006ec8 <__libc_init_array+0x40>)
 8006e9a:	4c0c      	ldr	r4, [pc, #48]	@ (8006ecc <__libc_init_array+0x44>)
 8006e9c:	f001 fe2c 	bl	8008af8 <_init>
 8006ea0:	1b64      	subs	r4, r4, r5
 8006ea2:	10a4      	asrs	r4, r4, #2
 8006ea4:	2600      	movs	r6, #0
 8006ea6:	42a6      	cmp	r6, r4
 8006ea8:	d105      	bne.n	8006eb6 <__libc_init_array+0x2e>
 8006eaa:	bd70      	pop	{r4, r5, r6, pc}
 8006eac:	f855 3b04 	ldr.w	r3, [r5], #4
 8006eb0:	4798      	blx	r3
 8006eb2:	3601      	adds	r6, #1
 8006eb4:	e7ee      	b.n	8006e94 <__libc_init_array+0xc>
 8006eb6:	f855 3b04 	ldr.w	r3, [r5], #4
 8006eba:	4798      	blx	r3
 8006ebc:	3601      	adds	r6, #1
 8006ebe:	e7f2      	b.n	8006ea6 <__libc_init_array+0x1e>
 8006ec0:	08009a70 	.word	0x08009a70
 8006ec4:	08009a70 	.word	0x08009a70
 8006ec8:	08009a70 	.word	0x08009a70
 8006ecc:	08009a74 	.word	0x08009a74

08006ed0 <__retarget_lock_init_recursive>:
 8006ed0:	4770      	bx	lr

08006ed2 <__retarget_lock_acquire_recursive>:
 8006ed2:	4770      	bx	lr

08006ed4 <__retarget_lock_release_recursive>:
 8006ed4:	4770      	bx	lr

08006ed6 <memcpy>:
 8006ed6:	440a      	add	r2, r1
 8006ed8:	4291      	cmp	r1, r2
 8006eda:	f100 33ff 	add.w	r3, r0, #4294967295	@ 0xffffffff
 8006ede:	d100      	bne.n	8006ee2 <memcpy+0xc>
 8006ee0:	4770      	bx	lr
 8006ee2:	b510      	push	{r4, lr}
 8006ee4:	f811 4b01 	ldrb.w	r4, [r1], #1
 8006ee8:	f803 4f01 	strb.w	r4, [r3, #1]!
 8006eec:	4291      	cmp	r1, r2
 8006eee:	d1f9      	bne.n	8006ee4 <memcpy+0xe>
 8006ef0:	bd10      	pop	{r4, pc}

08006ef2 <quorem>:
 8006ef2:	e92d 4ff7 	stmdb	sp!, {r0, r1, r2, r4, r5, r6, r7, r8, r9, sl, fp, lr}
 8006ef6:	6903      	ldr	r3, [r0, #16]
 8006ef8:	690c      	ldr	r4, [r1, #16]
 8006efa:	42a3      	cmp	r3, r4
 8006efc:	4607      	mov	r7, r0
 8006efe:	db7e      	blt.n	8006ffe <quorem+0x10c>
 8006f00:	3c01      	subs	r4, #1
 8006f02:	f101 0814 	add.w	r8, r1, #20
 8006f06:	00a3      	lsls	r3, r4, #2
 8006f08:	f100 0514 	add.w	r5, r0, #20
 8006f0c:	9300      	str	r3, [sp, #0]
 8006f0e:	eb05 0384 	add.w	r3, r5, r4, lsl #2
 8006f12:	9301      	str	r3, [sp, #4]
 8006f14:	f858 3024 	ldr.w	r3, [r8, r4, lsl #2]
 8006f18:	f855 2024 	ldr.w	r2, [r5, r4, lsl #2]
 8006f1c:	3301      	adds	r3, #1
 8006f1e:	429a      	cmp	r2, r3
 8006f20:	eb08 0984 	add.w	r9, r8, r4, lsl #2
 8006f24:	fbb2 f6f3 	udiv	r6, r2, r3
 8006f28:	d32e      	bcc.n	8006f88 <quorem+0x96>
 8006f2a:	f04f 0a00 	mov.w	sl, #0
 8006f2e:	46c4      	mov	ip, r8
 8006f30:	46ae      	mov	lr, r5
 8006f32:	46d3      	mov	fp, sl
 8006f34:	f85c 3b04 	ldr.w	r3, [ip], #4
 8006f38:	b298      	uxth	r0, r3
 8006f3a:	fb06 a000 	mla	r0, r6, r0, sl
 8006f3e:	0c02      	lsrs	r2, r0, #16
 8006f40:	0c1b      	lsrs	r3, r3, #16
 8006f42:	fb06 2303 	mla	r3, r6, r3, r2
 8006f46:	f8de 2000 	ldr.w	r2, [lr]
 8006f4a:	b280      	uxth	r0, r0
 8006f4c:	b292      	uxth	r2, r2
 8006f4e:	1a12      	subs	r2, r2, r0
 8006f50:	445a      	add	r2, fp
 8006f52:	f8de 0000 	ldr.w	r0, [lr]
 8006f56:	ea4f 4a13 	mov.w	sl, r3, lsr #16
 8006f5a:	b29b      	uxth	r3, r3
 8006f5c:	ebc3 4322 	rsb	r3, r3, r2, asr #16
 8006f60:	eb03 4310 	add.w	r3, r3, r0, lsr #16
 8006f64:	b292      	uxth	r2, r2
 8006f66:	ea42 4203 	orr.w	r2, r2, r3, lsl #16
 8006f6a:	45e1      	cmp	r9, ip
 8006f6c:	f84e 2b04 	str.w	r2, [lr], #4
 8006f70:	ea4f 4b23 	mov.w	fp, r3, asr #16
 8006f74:	d2de      	bcs.n	8006f34 <quorem+0x42>
 8006f76:	9b00      	ldr	r3, [sp, #0]
 8006f78:	58eb      	ldr	r3, [r5, r3]
 8006f7a:	b92b      	cbnz	r3, 8006f88 <quorem+0x96>
 8006f7c:	9b01      	ldr	r3, [sp, #4]
 8006f7e:	3b04      	subs	r3, #4
 8006f80:	429d      	cmp	r5, r3
 8006f82:	461a      	mov	r2, r3
 8006f84:	d32f      	bcc.n	8006fe6 <quorem+0xf4>
 8006f86:	613c      	str	r4, [r7, #16]
 8006f88:	4638      	mov	r0, r7
 8006f8a:	f001 f97b 	bl	8008284 <__mcmp>
 8006f8e:	2800      	cmp	r0, #0
 8006f90:	db25      	blt.n	8006fde <quorem+0xec>
 8006f92:	4629      	mov	r1, r5
 8006f94:	2000      	movs	r0, #0
 8006f96:	f858 2b04 	ldr.w	r2, [r8], #4
 8006f9a:	f8d1 c000 	ldr.w	ip, [r1]
 8006f9e:	fa1f fe82 	uxth.w	lr, r2
 8006fa2:	fa1f f38c 	uxth.w	r3, ip
 8006fa6:	eba3 030e 	sub.w	r3, r3, lr
 8006faa:	4403      	add	r3, r0
 8006fac:	0c12      	lsrs	r2, r2, #16
 8006fae:	ebc2 4223 	rsb	r2, r2, r3, asr #16
 8006fb2:	eb02 421c 	add.w	r2, r2, ip, lsr #16
 8006fb6:	b29b      	uxth	r3, r3
 8006fb8:	ea43 4302 	orr.w	r3, r3, r2, lsl #16
 8006fbc:	45c1      	cmp	r9, r8
 8006fbe:	f841 3b04 	str.w	r3, [r1], #4
 8006fc2:	ea4f 4022 	mov.w	r0, r2, asr #16
 8006fc6:	d2e6      	bcs.n	8006f96 <quorem+0xa4>
 8006fc8:	f855 2024 	ldr.w	r2, [r5, r4, lsl #2]
 8006fcc:	eb05 0384 	add.w	r3, r5, r4, lsl #2
 8006fd0:	b922      	cbnz	r2, 8006fdc <quorem+0xea>
 8006fd2:	3b04      	subs	r3, #4
 8006fd4:	429d      	cmp	r5, r3
 8006fd6:	461a      	mov	r2, r3
 8006fd8:	d30b      	bcc.n	8006ff2 <quorem+0x100>
 8006fda:	613c      	str	r4, [r7, #16]
 8006fdc:	3601      	adds	r6, #1
 8006fde:	4630      	mov	r0, r6
 8006fe0:	b003      	add	sp, #12
 8006fe2:	e8bd 8ff0 	ldmia.w	sp!, {r4, r5, r6, r7, r8, r9, sl, fp, pc}
 8006fe6:	6812      	ldr	r2, [r2, #0]
 8006fe8:	3b04      	subs	r3, #4
 8006fea:	2a00      	cmp	r2, #0
 8006fec:	d1cb      	bne.n	8006f86 <quorem+0x94>
 8006fee:	3c01      	subs	r4, #1
 8006ff0:	e7c6      	b.n	8006f80 <quorem+0x8e>
 8006ff2:	6812      	ldr	r2, [r2, #0]
 8006ff4:	3b04      	subs	r3, #4
 8006ff6:	2a00      	cmp	r2, #0
 8006ff8:	d1ef      	bne.n	8006fda <quorem+0xe8>
 8006ffa:	3c01      	subs	r4, #1
 8006ffc:	e7ea      	b.n	8006fd4 <quorem+0xe2>
 8006ffe:	2000      	movs	r0, #0
 8007000:	e7ee      	b.n	8006fe0 <quorem+0xee>
 8007002:	0000      	movs	r0, r0
 8007004:	0000      	movs	r0, r0
	...

08007008 <_dtoa_r>:
 8007008:	e92d 4ff0 	stmdb	sp!, {r4, r5, r6, r7, r8, r9, sl, fp, lr}
 800700c:	69c7      	ldr	r7, [r0, #28]
 800700e:	b099      	sub	sp, #100	@ 0x64
 8007010:	ed8d 0b02 	vstr	d0, [sp, #8]
 8007014:	ec55 4b10 	vmov	r4, r5, d0
 8007018:	9e22      	ldr	r6, [sp, #136]	@ 0x88
 800701a:	9109      	str	r1, [sp, #36]	@ 0x24
 800701c:	4683      	mov	fp, r0
 800701e:	920e      	str	r2, [sp, #56]	@ 0x38
 8007020:	9313      	str	r3, [sp, #76]	@ 0x4c
 8007022:	b97f      	cbnz	r7, 8007044 <_dtoa_r+0x3c>
 8007024:	2010      	movs	r0, #16
 8007026:	f000 fdfd 	bl	8007c24 <malloc>
 800702a:	4602      	mov	r2, r0
 800702c:	f8cb 001c 	str.w	r0, [fp, #28]
 8007030:	b920      	cbnz	r0, 800703c <_dtoa_r+0x34>
 8007032:	4ba7      	ldr	r3, [pc, #668]	@ (80072d0 <_dtoa_r+0x2c8>)
 8007034:	21ef      	movs	r1, #239	@ 0xef
 8007036:	48a7      	ldr	r0, [pc, #668]	@ (80072d4 <_dtoa_r+0x2cc>)
 8007038:	f001 fcae 	bl	8008998 <__assert_func>
 800703c:	e9c0 7701 	strd	r7, r7, [r0, #4]
 8007040:	6007      	str	r7, [r0, #0]
 8007042:	60c7      	str	r7, [r0, #12]
 8007044:	f8db 301c 	ldr.w	r3, [fp, #28]
 8007048:	6819      	ldr	r1, [r3, #0]
 800704a:	b159      	cbz	r1, 8007064 <_dtoa_r+0x5c>
 800704c:	685a      	ldr	r2, [r3, #4]
 800704e:	604a      	str	r2, [r1, #4]
 8007050:	2301      	movs	r3, #1
 8007052:	4093      	lsls	r3, r2
 8007054:	608b      	str	r3, [r1, #8]
 8007056:	4658      	mov	r0, fp
 8007058:	f000 feda 	bl	8007e10 <_Bfree>
 800705c:	f8db 301c 	ldr.w	r3, [fp, #28]
 8007060:	2200      	movs	r2, #0
 8007062:	601a      	str	r2, [r3, #0]
 8007064:	1e2b      	subs	r3, r5, #0
 8007066:	bfb9      	ittee	lt
 8007068:	f023 4300 	biclt.w	r3, r3, #2147483648	@ 0x80000000
 800706c:	9303      	strlt	r3, [sp, #12]
 800706e:	2300      	movge	r3, #0
 8007070:	6033      	strge	r3, [r6, #0]
 8007072:	9f03      	ldr	r7, [sp, #12]
 8007074:	4b98      	ldr	r3, [pc, #608]	@ (80072d8 <_dtoa_r+0x2d0>)
 8007076:	bfbc      	itt	lt
 8007078:	2201      	movlt	r2, #1
 800707a:	6032      	strlt	r2, [r6, #0]
 800707c:	43bb      	bics	r3, r7
 800707e:	d112      	bne.n	80070a6 <_dtoa_r+0x9e>
 8007080:	9a13      	ldr	r2, [sp, #76]	@ 0x4c
 8007082:	f242 730f 	movw	r3, #9999	@ 0x270f
 8007086:	6013      	str	r3, [r2, #0]
 8007088:	f3c7 0313 	ubfx	r3, r7, #0, #20
 800708c:	4323      	orrs	r3, r4
 800708e:	f000 854d 	beq.w	8007b2c <_dtoa_r+0xb24>
 8007092:	9b23      	ldr	r3, [sp, #140]	@ 0x8c
 8007094:	f8df a254 	ldr.w	sl, [pc, #596]	@ 80072ec <_dtoa_r+0x2e4>
 8007098:	2b00      	cmp	r3, #0
 800709a:	f000 854f 	beq.w	8007b3c <_dtoa_r+0xb34>
 800709e:	f10a 0303 	add.w	r3, sl, #3
 80070a2:	f000 bd49 	b.w	8007b38 <_dtoa_r+0xb30>
 80070a6:	ed9d 7b02 	vldr	d7, [sp, #8]
 80070aa:	2200      	movs	r2, #0
 80070ac:	ec51 0b17 	vmov	r0, r1, d7
 80070b0:	2300      	movs	r3, #0
 80070b2:	ed8d 7b0c 	vstr	d7, [sp, #48]	@ 0x30
 80070b6:	f7f9 fd07 	bl	8000ac8 <__aeabi_dcmpeq>
 80070ba:	4680      	mov	r8, r0
 80070bc:	b158      	cbz	r0, 80070d6 <_dtoa_r+0xce>
 80070be:	9a13      	ldr	r2, [sp, #76]	@ 0x4c
 80070c0:	2301      	movs	r3, #1
 80070c2:	6013      	str	r3, [r2, #0]
 80070c4:	9b23      	ldr	r3, [sp, #140]	@ 0x8c
 80070c6:	b113      	cbz	r3, 80070ce <_dtoa_r+0xc6>
 80070c8:	9a23      	ldr	r2, [sp, #140]	@ 0x8c
 80070ca:	4b84      	ldr	r3, [pc, #528]	@ (80072dc <_dtoa_r+0x2d4>)
 80070cc:	6013      	str	r3, [r2, #0]
 80070ce:	f8df a220 	ldr.w	sl, [pc, #544]	@ 80072f0 <_dtoa_r+0x2e8>
 80070d2:	f000 bd33 	b.w	8007b3c <_dtoa_r+0xb34>
 80070d6:	ed9d 0b0c 	vldr	d0, [sp, #48]	@ 0x30
 80070da:	aa16      	add	r2, sp, #88	@ 0x58
 80070dc:	a917      	add	r1, sp, #92	@ 0x5c
 80070de:	4658      	mov	r0, fp
 80070e0:	f001 f980 	bl	80083e4 <__d2b>
 80070e4:	f3c7 560a 	ubfx	r6, r7, #20, #11
 80070e8:	4681      	mov	r9, r0
 80070ea:	2e00      	cmp	r6, #0
 80070ec:	d077      	beq.n	80071de <_dtoa_r+0x1d6>
 80070ee:	9b0d      	ldr	r3, [sp, #52]	@ 0x34
 80070f0:	f8cd 8050 	str.w	r8, [sp, #80]	@ 0x50
 80070f4:	f3c3 0313 	ubfx	r3, r3, #0, #20
 80070f8:	e9dd 010c 	ldrd	r0, r1, [sp, #48]	@ 0x30
 80070fc:	f043 537f 	orr.w	r3, r3, #1069547520	@ 0x3fc00000
 8007100:	f443 1340 	orr.w	r3, r3, #3145728	@ 0x300000
 8007104:	f2a6 36ff 	subw	r6, r6, #1023	@ 0x3ff
 8007108:	4619      	mov	r1, r3
 800710a:	2200      	movs	r2, #0
 800710c:	4b74      	ldr	r3, [pc, #464]	@ (80072e0 <_dtoa_r+0x2d8>)
 800710e:	f7f9 f8bb 	bl	8000288 <__aeabi_dsub>
 8007112:	a369      	add	r3, pc, #420	@ (adr r3, 80072b8 <_dtoa_r+0x2b0>)
 8007114:	e9d3 2300 	ldrd	r2, r3, [r3]
 8007118:	f7f9 fa6e 	bl	80005f8 <__aeabi_dmul>
 800711c:	a368      	add	r3, pc, #416	@ (adr r3, 80072c0 <_dtoa_r+0x2b8>)
 800711e:	e9d3 2300 	ldrd	r2, r3, [r3]
 8007122:	f7f9 f8b3 	bl	800028c <__adddf3>
 8007126:	4604      	mov	r4, r0
 8007128:	4630      	mov	r0, r6
 800712a:	460d      	mov	r5, r1
 800712c:	f7f9 f9fa 	bl	8000524 <__aeabi_i2d>
 8007130:	a365      	add	r3, pc, #404	@ (adr r3, 80072c8 <_dtoa_r+0x2c0>)
 8007132:	e9d3 2300 	ldrd	r2, r3, [r3]
 8007136:	f7f9 fa5f 	bl	80005f8 <__aeabi_dmul>
 800713a:	4602      	mov	r2, r0
 800713c:	460b      	mov	r3, r1
 800713e:	4620      	mov	r0, r4
 8007140:	4629      	mov	r1, r5
 8007142:	f7f9 f8a3 	bl	800028c <__adddf3>
 8007146:	4604      	mov	r4, r0
 8007148:	460d      	mov	r5, r1
 800714a:	f7f9 fd05 	bl	8000b58 <__aeabi_d2iz>
 800714e:	2200      	movs	r2, #0
 8007150:	4607      	mov	r7, r0
 8007152:	2300      	movs	r3, #0
 8007154:	4620      	mov	r0, r4
 8007156:	4629      	mov	r1, r5
 8007158:	f7f9 fcc0 	bl	8000adc <__aeabi_dcmplt>
 800715c:	b140      	cbz	r0, 8007170 <_dtoa_r+0x168>
 800715e:	4638      	mov	r0, r7
 8007160:	f7f9 f9e0 	bl	8000524 <__aeabi_i2d>
 8007164:	4622      	mov	r2, r4
 8007166:	462b      	mov	r3, r5
 8007168:	f7f9 fcae 	bl	8000ac8 <__aeabi_dcmpeq>
 800716c:	b900      	cbnz	r0, 8007170 <_dtoa_r+0x168>
 800716e:	3f01      	subs	r7, #1
 8007170:	2f16      	cmp	r7, #22
 8007172:	d851      	bhi.n	8007218 <_dtoa_r+0x210>
 8007174:	4b5b      	ldr	r3, [pc, #364]	@ (80072e4 <_dtoa_r+0x2dc>)
 8007176:	eb03 03c7 	add.w	r3, r3, r7, lsl #3
 800717a:	e9d3 2300 	ldrd	r2, r3, [r3]
 800717e:	e9dd 010c 	ldrd	r0, r1, [sp, #48]	@ 0x30
 8007182:	f7f9 fcab 	bl	8000adc <__aeabi_dcmplt>
 8007186:	2800      	cmp	r0, #0
 8007188:	d048      	beq.n	800721c <_dtoa_r+0x214>
 800718a:	3f01      	subs	r7, #1
 800718c:	2300      	movs	r3, #0
 800718e:	9312      	str	r3, [sp, #72]	@ 0x48
 8007190:	9b16      	ldr	r3, [sp, #88]	@ 0x58
 8007192:	1b9b      	subs	r3, r3, r6
 8007194:	1e5a      	subs	r2, r3, #1
 8007196:	bf44      	itt	mi
 8007198:	f1c3 0801 	rsbmi	r8, r3, #1
 800719c:	2300      	movmi	r3, #0
 800719e:	9208      	str	r2, [sp, #32]
 80071a0:	bf54      	ite	pl
 80071a2:	f04f 0800 	movpl.w	r8, #0
 80071a6:	9308      	strmi	r3, [sp, #32]
 80071a8:	2f00      	cmp	r7, #0
 80071aa:	db39      	blt.n	8007220 <_dtoa_r+0x218>
 80071ac:	9b08      	ldr	r3, [sp, #32]
 80071ae:	970f      	str	r7, [sp, #60]	@ 0x3c
 80071b0:	443b      	add	r3, r7
 80071b2:	9308      	str	r3, [sp, #32]
 80071b4:	2300      	movs	r3, #0
 80071b6:	930a      	str	r3, [sp, #40]	@ 0x28
 80071b8:	9b09      	ldr	r3, [sp, #36]	@ 0x24
 80071ba:	2b09      	cmp	r3, #9
 80071bc:	d864      	bhi.n	8007288 <_dtoa_r+0x280>
 80071be:	2b05      	cmp	r3, #5
 80071c0:	bfc4      	itt	gt
 80071c2:	3b04      	subgt	r3, #4
 80071c4:	9309      	strgt	r3, [sp, #36]	@ 0x24
 80071c6:	9b09      	ldr	r3, [sp, #36]	@ 0x24
 80071c8:	f1a3 0302 	sub.w	r3, r3, #2
 80071cc:	bfcc      	ite	gt
 80071ce:	2400      	movgt	r4, #0
 80071d0:	2401      	movle	r4, #1
 80071d2:	2b03      	cmp	r3, #3
 80071d4:	d863      	bhi.n	800729e <_dtoa_r+0x296>
 80071d6:	e8df f003 	tbb	[pc, r3]
 80071da:	372a      	.short	0x372a
 80071dc:	5535      	.short	0x5535
 80071de:	e9dd 6316 	ldrd	r6, r3, [sp, #88]	@ 0x58
 80071e2:	441e      	add	r6, r3
 80071e4:	f206 4332 	addw	r3, r6, #1074	@ 0x432
 80071e8:	2b20      	cmp	r3, #32
 80071ea:	bfc1      	itttt	gt
 80071ec:	f1c3 0340 	rsbgt	r3, r3, #64	@ 0x40
 80071f0:	409f      	lslgt	r7, r3
 80071f2:	f206 4312 	addwgt	r3, r6, #1042	@ 0x412
 80071f6:	fa24 f303 	lsrgt.w	r3, r4, r3
 80071fa:	bfd6      	itet	le
 80071fc:	f1c3 0320 	rsble	r3, r3, #32
 8007200:	ea47 0003 	orrgt.w	r0, r7, r3
 8007204:	fa04 f003 	lslle.w	r0, r4, r3
 8007208:	f7f9 f97c 	bl	8000504 <__aeabi_ui2d>
 800720c:	2201      	movs	r2, #1
 800720e:	f1a1 73f8 	sub.w	r3, r1, #32505856	@ 0x1f00000
 8007212:	3e01      	subs	r6, #1
 8007214:	9214      	str	r2, [sp, #80]	@ 0x50
 8007216:	e777      	b.n	8007108 <_dtoa_r+0x100>
 8007218:	2301      	movs	r3, #1
 800721a:	e7b8      	b.n	800718e <_dtoa_r+0x186>
 800721c:	9012      	str	r0, [sp, #72]	@ 0x48
 800721e:	e7b7      	b.n	8007190 <_dtoa_r+0x188>
 8007220:	427b      	negs	r3, r7
 8007222:	930a      	str	r3, [sp, #40]	@ 0x28
 8007224:	2300      	movs	r3, #0
 8007226:	eba8 0807 	sub.w	r8, r8, r7
 800722a:	930f      	str	r3, [sp, #60]	@ 0x3c
 800722c:	e7c4      	b.n	80071b8 <_dtoa_r+0x1b0>
 800722e:	2300      	movs	r3, #0
 8007230:	930b      	str	r3, [sp, #44]	@ 0x2c
 8007232:	9b0e      	ldr	r3, [sp, #56]	@ 0x38
 8007234:	2b00      	cmp	r3, #0
 8007236:	dc35      	bgt.n	80072a4 <_dtoa_r+0x29c>
 8007238:	2301      	movs	r3, #1
 800723a:	9300      	str	r3, [sp, #0]
 800723c:	9307      	str	r3, [sp, #28]
 800723e:	461a      	mov	r2, r3
 8007240:	920e      	str	r2, [sp, #56]	@ 0x38
 8007242:	e00b      	b.n	800725c <_dtoa_r+0x254>
 8007244:	2301      	movs	r3, #1
 8007246:	e7f3      	b.n	8007230 <_dtoa_r+0x228>
 8007248:	2300      	movs	r3, #0
 800724a:	930b      	str	r3, [sp, #44]	@ 0x2c
 800724c:	9b0e      	ldr	r3, [sp, #56]	@ 0x38
 800724e:	18fb      	adds	r3, r7, r3
 8007250:	9300      	str	r3, [sp, #0]
 8007252:	3301      	adds	r3, #1
 8007254:	2b01      	cmp	r3, #1
 8007256:	9307      	str	r3, [sp, #28]
 8007258:	bfb8      	it	lt
 800725a:	2301      	movlt	r3, #1
 800725c:	f8db 001c 	ldr.w	r0, [fp, #28]
 8007260:	2100      	movs	r1, #0
 8007262:	2204      	movs	r2, #4
 8007264:	f102 0514 	add.w	r5, r2, #20
 8007268:	429d      	cmp	r5, r3
 800726a:	d91f      	bls.n	80072ac <_dtoa_r+0x2a4>
 800726c:	6041      	str	r1, [r0, #4]
 800726e:	4658      	mov	r0, fp
 8007270:	f000 fd8e 	bl	8007d90 <_Balloc>
 8007274:	4682      	mov	sl, r0
 8007276:	2800      	cmp	r0, #0
 8007278:	d13c      	bne.n	80072f4 <_dtoa_r+0x2ec>
 800727a:	4b1b      	ldr	r3, [pc, #108]	@ (80072e8 <_dtoa_r+0x2e0>)
 800727c:	4602      	mov	r2, r0
 800727e:	f240 11af 	movw	r1, #431	@ 0x1af
 8007282:	e6d8      	b.n	8007036 <_dtoa_r+0x2e>
 8007284:	2301      	movs	r3, #1
 8007286:	e7e0      	b.n	800724a <_dtoa_r+0x242>
 8007288:	2401      	movs	r4, #1
 800728a:	2300      	movs	r3, #0
 800728c:	9309      	str	r3, [sp, #36]	@ 0x24
 800728e:	940b      	str	r4, [sp, #44]	@ 0x2c
 8007290:	f04f 33ff 	mov.w	r3, #4294967295	@ 0xffffffff
 8007294:	9300      	str	r3, [sp, #0]
 8007296:	9307      	str	r3, [sp, #28]
 8007298:	2200      	movs	r2, #0
 800729a:	2312      	movs	r3, #18
 800729c:	e7d0      	b.n	8007240 <_dtoa_r+0x238>
 800729e:	2301      	movs	r3, #1
 80072a0:	930b      	str	r3, [sp, #44]	@ 0x2c
 80072a2:	e7f5      	b.n	8007290 <_dtoa_r+0x288>
 80072a4:	9b0e      	ldr	r3, [sp, #56]	@ 0x38
 80072a6:	9300      	str	r3, [sp, #0]
 80072a8:	9307      	str	r3, [sp, #28]
 80072aa:	e7d7      	b.n	800725c <_dtoa_r+0x254>
 80072ac:	3101      	adds	r1, #1
 80072ae:	0052      	lsls	r2, r2, #1
 80072b0:	e7d8      	b.n	8007264 <_dtoa_r+0x25c>
 80072b2:	bf00      	nop
 80072b4:	f3af 8000 	nop.w
 80072b8:	636f4361 	.word	0x636f4361
 80072bc:	3fd287a7 	.word	0x3fd287a7
 80072c0:	8b60c8b3 	.word	0x8b60c8b3
 80072c4:	3fc68a28 	.word	0x3fc68a28
 80072c8:	509f79fb 	.word	0x509f79fb
 80072cc:	3fd34413 	.word	0x3fd34413
 80072d0:	08009735 	.word	0x08009735
 80072d4:	0800974c 	.word	0x0800974c
 80072d8:	7ff00000 	.word	0x7ff00000
 80072dc:	08009705 	.word	0x08009705
 80072e0:	3ff80000 	.word	0x3ff80000
 80072e4:	08009848 	.word	0x08009848
 80072e8:	080097a4 	.word	0x080097a4
 80072ec:	08009731 	.word	0x08009731
 80072f0:	08009704 	.word	0x08009704
 80072f4:	f8db 301c 	ldr.w	r3, [fp, #28]
 80072f8:	6018      	str	r0, [r3, #0]
 80072fa:	9b07      	ldr	r3, [sp, #28]
 80072fc:	2b0e      	cmp	r3, #14
 80072fe:	f200 80a4 	bhi.w	800744a <_dtoa_r+0x442>
 8007302:	2c00      	cmp	r4, #0
 8007304:	f000 80a1 	beq.w	800744a <_dtoa_r+0x442>
 8007308:	2f00      	cmp	r7, #0
 800730a:	dd33      	ble.n	8007374 <_dtoa_r+0x36c>
 800730c:	4bad      	ldr	r3, [pc, #692]	@ (80075c4 <_dtoa_r+0x5bc>)
 800730e:	f007 020f 	and.w	r2, r7, #15
 8007312:	eb03 03c2 	add.w	r3, r3, r2, lsl #3
 8007316:	ed93 7b00 	vldr	d7, [r3]
 800731a:	05f8      	lsls	r0, r7, #23
 800731c:	ed8d 7b04 	vstr	d7, [sp, #16]
 8007320:	ea4f 1427 	mov.w	r4, r7, asr #4
 8007324:	d516      	bpl.n	8007354 <_dtoa_r+0x34c>
 8007326:	4ba8      	ldr	r3, [pc, #672]	@ (80075c8 <_dtoa_r+0x5c0>)
 8007328:	e9dd 010c 	ldrd	r0, r1, [sp, #48]	@ 0x30
 800732c:	e9d3 2308 	ldrd	r2, r3, [r3, #32]
 8007330:	f7f9 fa8c 	bl	800084c <__aeabi_ddiv>
 8007334:	e9cd 0102 	strd	r0, r1, [sp, #8]
 8007338:	f004 040f 	and.w	r4, r4, #15
 800733c:	2603      	movs	r6, #3
 800733e:	4da2      	ldr	r5, [pc, #648]	@ (80075c8 <_dtoa_r+0x5c0>)
 8007340:	b954      	cbnz	r4, 8007358 <_dtoa_r+0x350>
 8007342:	e9dd 2304 	ldrd	r2, r3, [sp, #16]
 8007346:	e9dd 0102 	ldrd	r0, r1, [sp, #8]
 800734a:	f7f9 fa7f 	bl	800084c <__aeabi_ddiv>
 800734e:	e9cd 0102 	strd	r0, r1, [sp, #8]
 8007352:	e028      	b.n	80073a6 <_dtoa_r+0x39e>
 8007354:	2602      	movs	r6, #2
 8007356:	e7f2      	b.n	800733e <_dtoa_r+0x336>
 8007358:	07e1      	lsls	r1, r4, #31
 800735a:	d508      	bpl.n	800736e <_dtoa_r+0x366>
 800735c:	e9dd 0104 	ldrd	r0, r1, [sp, #16]
 8007360:	e9d5 2300 	ldrd	r2, r3, [r5]
 8007364:	f7f9 f948 	bl	80005f8 <__aeabi_dmul>
 8007368:	e9cd 0104 	strd	r0, r1, [sp, #16]
 800736c:	3601      	adds	r6, #1
 800736e:	1064      	asrs	r4, r4, #1
 8007370:	3508      	adds	r5, #8
 8007372:	e7e5      	b.n	8007340 <_dtoa_r+0x338>
 8007374:	f000 80d2 	beq.w	800751c <_dtoa_r+0x514>
 8007378:	427c      	negs	r4, r7
 800737a:	4b92      	ldr	r3, [pc, #584]	@ (80075c4 <_dtoa_r+0x5bc>)
 800737c:	4d92      	ldr	r5, [pc, #584]	@ (80075c8 <_dtoa_r+0x5c0>)
 800737e:	f004 020f 	and.w	r2, r4, #15
 8007382:	eb03 03c2 	add.w	r3, r3, r2, lsl #3
 8007386:	e9d3 2300 	ldrd	r2, r3, [r3]
 800738a:	e9dd 010c 	ldrd	r0, r1, [sp, #48]	@ 0x30
 800738e:	f7f9 f933 	bl	80005f8 <__aeabi_dmul>
 8007392:	e9cd 0102 	strd	r0, r1, [sp, #8]
 8007396:	1124      	asrs	r4, r4, #4
 8007398:	2300      	movs	r3, #0
 800739a:	2602      	movs	r6, #2
 800739c:	2c00      	cmp	r4, #0
 800739e:	f040 80b2 	bne.w	8007506 <_dtoa_r+0x4fe>
 80073a2:	2b00      	cmp	r3, #0
 80073a4:	d1d3      	bne.n	800734e <_dtoa_r+0x346>
 80073a6:	9b12      	ldr	r3, [sp, #72]	@ 0x48
 80073a8:	e9dd 4502 	ldrd	r4, r5, [sp, #8]
 80073ac:	2b00      	cmp	r3, #0
 80073ae:	f000 80b7 	beq.w	8007520 <_dtoa_r+0x518>
 80073b2:	4b86      	ldr	r3, [pc, #536]	@ (80075cc <_dtoa_r+0x5c4>)
 80073b4:	2200      	movs	r2, #0
 80073b6:	4620      	mov	r0, r4
 80073b8:	4629      	mov	r1, r5
 80073ba:	f7f9 fb8f 	bl	8000adc <__aeabi_dcmplt>
 80073be:	2800      	cmp	r0, #0
 80073c0:	f000 80ae 	beq.w	8007520 <_dtoa_r+0x518>
 80073c4:	9b07      	ldr	r3, [sp, #28]
 80073c6:	2b00      	cmp	r3, #0
 80073c8:	f000 80aa 	beq.w	8007520 <_dtoa_r+0x518>
 80073cc:	9b00      	ldr	r3, [sp, #0]
 80073ce:	2b00      	cmp	r3, #0
 80073d0:	dd37      	ble.n	8007442 <_dtoa_r+0x43a>
 80073d2:	1e7b      	subs	r3, r7, #1
 80073d4:	9304      	str	r3, [sp, #16]
 80073d6:	4620      	mov	r0, r4
 80073d8:	4b7d      	ldr	r3, [pc, #500]	@ (80075d0 <_dtoa_r+0x5c8>)
 80073da:	2200      	movs	r2, #0
 80073dc:	4629      	mov	r1, r5
 80073de:	f7f9 f90b 	bl	80005f8 <__aeabi_dmul>
 80073e2:	e9cd 0102 	strd	r0, r1, [sp, #8]
 80073e6:	9c00      	ldr	r4, [sp, #0]
 80073e8:	3601      	adds	r6, #1
 80073ea:	4630      	mov	r0, r6
 80073ec:	f7f9 f89a 	bl	8000524 <__aeabi_i2d>
 80073f0:	e9dd 2302 	ldrd	r2, r3, [sp, #8]
 80073f4:	f7f9 f900 	bl	80005f8 <__aeabi_dmul>
 80073f8:	4b76      	ldr	r3, [pc, #472]	@ (80075d4 <_dtoa_r+0x5cc>)
 80073fa:	2200      	movs	r2, #0
 80073fc:	f7f8 ff46 	bl	800028c <__adddf3>
 8007400:	4605      	mov	r5, r0
 8007402:	f1a1 7650 	sub.w	r6, r1, #54525952	@ 0x3400000
 8007406:	2c00      	cmp	r4, #0
 8007408:	f040 808d 	bne.w	8007526 <_dtoa_r+0x51e>
 800740c:	e9dd 0102 	ldrd	r0, r1, [sp, #8]
 8007410:	4b71      	ldr	r3, [pc, #452]	@ (80075d8 <_dtoa_r+0x5d0>)
 8007412:	2200      	movs	r2, #0
 8007414:	f7f8 ff38 	bl	8000288 <__aeabi_dsub>
 8007418:	4602      	mov	r2, r0
 800741a:	460b      	mov	r3, r1
 800741c:	e9cd 2302 	strd	r2, r3, [sp, #8]
 8007420:	462a      	mov	r2, r5
 8007422:	4633      	mov	r3, r6
 8007424:	f7f9 fb78 	bl	8000b18 <__aeabi_dcmpgt>
 8007428:	2800      	cmp	r0, #0
 800742a:	f040 828b 	bne.w	8007944 <_dtoa_r+0x93c>
 800742e:	e9dd 0102 	ldrd	r0, r1, [sp, #8]
 8007432:	462a      	mov	r2, r5
 8007434:	f106 4300 	add.w	r3, r6, #2147483648	@ 0x80000000
 8007438:	f7f9 fb50 	bl	8000adc <__aeabi_dcmplt>
 800743c:	2800      	cmp	r0, #0
 800743e:	f040 8128 	bne.w	8007692 <_dtoa_r+0x68a>
 8007442:	e9dd 340c 	ldrd	r3, r4, [sp, #48]	@ 0x30
 8007446:	e9cd 3402 	strd	r3, r4, [sp, #8]
 800744a:	9b17      	ldr	r3, [sp, #92]	@ 0x5c
 800744c:	2b00      	cmp	r3, #0
 800744e:	f2c0 815a 	blt.w	8007706 <_dtoa_r+0x6fe>
 8007452:	2f0e      	cmp	r7, #14
 8007454:	f300 8157 	bgt.w	8007706 <_dtoa_r+0x6fe>
 8007458:	4b5a      	ldr	r3, [pc, #360]	@ (80075c4 <_dtoa_r+0x5bc>)
 800745a:	eb03 03c7 	add.w	r3, r3, r7, lsl #3
 800745e:	ed93 7b00 	vldr	d7, [r3]
 8007462:	9b0e      	ldr	r3, [sp, #56]	@ 0x38
 8007464:	2b00      	cmp	r3, #0
 8007466:	ed8d 7b00 	vstr	d7, [sp]
 800746a:	da03      	bge.n	8007474 <_dtoa_r+0x46c>
 800746c:	9b07      	ldr	r3, [sp, #28]
 800746e:	2b00      	cmp	r3, #0
 8007470:	f340 8101 	ble.w	8007676 <_dtoa_r+0x66e>
 8007474:	e9dd 4502 	ldrd	r4, r5, [sp, #8]
 8007478:	4656      	mov	r6, sl
 800747a:	e9dd 2300 	ldrd	r2, r3, [sp]
 800747e:	4620      	mov	r0, r4
 8007480:	4629      	mov	r1, r5
 8007482:	f7f9 f9e3 	bl	800084c <__aeabi_ddiv>
 8007486:	f7f9 fb67 	bl	8000b58 <__aeabi_d2iz>
 800748a:	4680      	mov	r8, r0
 800748c:	f7f9 f84a 	bl	8000524 <__aeabi_i2d>
 8007490:	e9dd 2300 	ldrd	r2, r3, [sp]
 8007494:	f7f9 f8b0 	bl	80005f8 <__aeabi_dmul>
 8007498:	4602      	mov	r2, r0
 800749a:	460b      	mov	r3, r1
 800749c:	4620      	mov	r0, r4
 800749e:	4629      	mov	r1, r5
 80074a0:	f108 0430 	add.w	r4, r8, #48	@ 0x30
 80074a4:	f7f8 fef0 	bl	8000288 <__aeabi_dsub>
 80074a8:	f806 4b01 	strb.w	r4, [r6], #1
 80074ac:	9d07      	ldr	r5, [sp, #28]
 80074ae:	eba6 040a 	sub.w	r4, r6, sl
 80074b2:	42a5      	cmp	r5, r4
 80074b4:	4602      	mov	r2, r0
 80074b6:	460b      	mov	r3, r1
 80074b8:	f040 8117 	bne.w	80076ea <_dtoa_r+0x6e2>
 80074bc:	f7f8 fee6 	bl	800028c <__adddf3>
 80074c0:	e9dd 2300 	ldrd	r2, r3, [sp]
 80074c4:	4604      	mov	r4, r0
 80074c6:	460d      	mov	r5, r1
 80074c8:	f7f9 fb26 	bl	8000b18 <__aeabi_dcmpgt>
 80074cc:	2800      	cmp	r0, #0
 80074ce:	f040 80f9 	bne.w	80076c4 <_dtoa_r+0x6bc>
 80074d2:	e9dd 2300 	ldrd	r2, r3, [sp]
 80074d6:	4620      	mov	r0, r4
 80074d8:	4629      	mov	r1, r5
 80074da:	f7f9 faf5 	bl	8000ac8 <__aeabi_dcmpeq>
 80074de:	b118      	cbz	r0, 80074e8 <_dtoa_r+0x4e0>
 80074e0:	f018 0f01 	tst.w	r8, #1
 80074e4:	f040 80ee 	bne.w	80076c4 <_dtoa_r+0x6bc>
 80074e8:	4649      	mov	r1, r9
 80074ea:	4658      	mov	r0, fp
 80074ec:	f000 fc90 	bl	8007e10 <_Bfree>
 80074f0:	2300      	movs	r3, #0
 80074f2:	7033      	strb	r3, [r6, #0]
 80074f4:	9b13      	ldr	r3, [sp, #76]	@ 0x4c
 80074f6:	3701      	adds	r7, #1
 80074f8:	601f      	str	r7, [r3, #0]
 80074fa:	9b23      	ldr	r3, [sp, #140]	@ 0x8c
 80074fc:	2b00      	cmp	r3, #0
 80074fe:	f000 831d 	beq.w	8007b3c <_dtoa_r+0xb34>
 8007502:	601e      	str	r6, [r3, #0]
 8007504:	e31a      	b.n	8007b3c <_dtoa_r+0xb34>
 8007506:	07e2      	lsls	r2, r4, #31
 8007508:	d505      	bpl.n	8007516 <_dtoa_r+0x50e>
 800750a:	e9d5 2300 	ldrd	r2, r3, [r5]
 800750e:	f7f9 f873 	bl	80005f8 <__aeabi_dmul>
 8007512:	3601      	adds	r6, #1
 8007514:	2301      	movs	r3, #1
 8007516:	1064      	asrs	r4, r4, #1
 8007518:	3508      	adds	r5, #8
 800751a:	e73f      	b.n	800739c <_dtoa_r+0x394>
 800751c:	2602      	movs	r6, #2
 800751e:	e742      	b.n	80073a6 <_dtoa_r+0x39e>
 8007520:	9c07      	ldr	r4, [sp, #28]
 8007522:	9704      	str	r7, [sp, #16]
 8007524:	e761      	b.n	80073ea <_dtoa_r+0x3e2>
 8007526:	4b27      	ldr	r3, [pc, #156]	@ (80075c4 <_dtoa_r+0x5bc>)
 8007528:	990b      	ldr	r1, [sp, #44]	@ 0x2c
 800752a:	eb03 03c4 	add.w	r3, r3, r4, lsl #3
 800752e:	e953 2302 	ldrd	r2, r3, [r3, #-8]
 8007532:	4454      	add	r4, sl
 8007534:	2900      	cmp	r1, #0
 8007536:	d053      	beq.n	80075e0 <_dtoa_r+0x5d8>
 8007538:	4928      	ldr	r1, [pc, #160]	@ (80075dc <_dtoa_r+0x5d4>)
 800753a:	2000      	movs	r0, #0
 800753c:	f7f9 f986 	bl	800084c <__aeabi_ddiv>
 8007540:	4633      	mov	r3, r6
 8007542:	462a      	mov	r2, r5
 8007544:	f7f8 fea0 	bl	8000288 <__aeabi_dsub>
 8007548:	e9cd 0110 	strd	r0, r1, [sp, #64]	@ 0x40
 800754c:	4656      	mov	r6, sl
 800754e:	e9dd 0102 	ldrd	r0, r1, [sp, #8]
 8007552:	f7f9 fb01 	bl	8000b58 <__aeabi_d2iz>
 8007556:	4605      	mov	r5, r0
 8007558:	f7f8 ffe4 	bl	8000524 <__aeabi_i2d>
 800755c:	4602      	mov	r2, r0
 800755e:	460b      	mov	r3, r1
 8007560:	e9dd 0102 	ldrd	r0, r1, [sp, #8]
 8007564:	f7f8 fe90 	bl	8000288 <__aeabi_dsub>
 8007568:	3530      	adds	r5, #48	@ 0x30
 800756a:	4602      	mov	r2, r0
 800756c:	460b      	mov	r3, r1
 800756e:	e9cd 2302 	strd	r2, r3, [sp, #8]
 8007572:	f806 5b01 	strb.w	r5, [r6], #1
 8007576:	e9dd 2310 	ldrd	r2, r3, [sp, #64]	@ 0x40
 800757a:	f7f9 faaf 	bl	8000adc <__aeabi_dcmplt>
 800757e:	2800      	cmp	r0, #0
 8007580:	d171      	bne.n	8007666 <_dtoa_r+0x65e>
 8007582:	e9dd 2302 	ldrd	r2, r3, [sp, #8]
 8007586:	4911      	ldr	r1, [pc, #68]	@ (80075cc <_dtoa_r+0x5c4>)
 8007588:	2000      	movs	r0, #0
 800758a:	f7f8 fe7d 	bl	8000288 <__aeabi_dsub>
 800758e:	e9dd 2310 	ldrd	r2, r3, [sp, #64]	@ 0x40
 8007592:	f7f9 faa3 	bl	8000adc <__aeabi_dcmplt>
 8007596:	2800      	cmp	r0, #0
 8007598:	f040 8095 	bne.w	80076c6 <_dtoa_r+0x6be>
 800759c:	42a6      	cmp	r6, r4
 800759e:	f43f af50 	beq.w	8007442 <_dtoa_r+0x43a>
 80075a2:	e9dd 0110 	ldrd	r0, r1, [sp, #64]	@ 0x40
 80075a6:	4b0a      	ldr	r3, [pc, #40]	@ (80075d0 <_dtoa_r+0x5c8>)
 80075a8:	2200      	movs	r2, #0
 80075aa:	f7f9 f825 	bl	80005f8 <__aeabi_dmul>
 80075ae:	4b08      	ldr	r3, [pc, #32]	@ (80075d0 <_dtoa_r+0x5c8>)
 80075b0:	e9cd 0110 	strd	r0, r1, [sp, #64]	@ 0x40
 80075b4:	2200      	movs	r2, #0
 80075b6:	e9dd 0102 	ldrd	r0, r1, [sp, #8]
 80075ba:	f7f9 f81d 	bl	80005f8 <__aeabi_dmul>
 80075be:	e9cd 0102 	strd	r0, r1, [sp, #8]
 80075c2:	e7c4      	b.n	800754e <_dtoa_r+0x546>
 80075c4:	08009848 	.word	0x08009848
 80075c8:	08009820 	.word	0x08009820
 80075cc:	3ff00000 	.word	0x3ff00000
 80075d0:	40240000 	.word	0x40240000
 80075d4:	401c0000 	.word	0x401c0000
 80075d8:	40140000 	.word	0x40140000
 80075dc:	3fe00000 	.word	0x3fe00000
 80075e0:	4631      	mov	r1, r6
 80075e2:	4628      	mov	r0, r5
 80075e4:	f7f9 f808 	bl	80005f8 <__aeabi_dmul>
 80075e8:	e9cd 0110 	strd	r0, r1, [sp, #64]	@ 0x40
 80075ec:	9415      	str	r4, [sp, #84]	@ 0x54
 80075ee:	4656      	mov	r6, sl
 80075f0:	e9dd 0102 	ldrd	r0, r1, [sp, #8]
 80075f4:	f7f9 fab0 	bl	8000b58 <__aeabi_d2iz>
 80075f8:	4605      	mov	r5, r0
 80075fa:	f7f8 ff93 	bl	8000524 <__aeabi_i2d>
 80075fe:	4602      	mov	r2, r0
 8007600:	460b      	mov	r3, r1
 8007602:	e9dd 0102 	ldrd	r0, r1, [sp, #8]
 8007606:	f7f8 fe3f 	bl	8000288 <__aeabi_dsub>
 800760a:	3530      	adds	r5, #48	@ 0x30
 800760c:	f806 5b01 	strb.w	r5, [r6], #1
 8007610:	4602      	mov	r2, r0
 8007612:	460b      	mov	r3, r1
 8007614:	42a6      	cmp	r6, r4
 8007616:	e9cd 2302 	strd	r2, r3, [sp, #8]
 800761a:	f04f 0200 	mov.w	r2, #0
 800761e:	d124      	bne.n	800766a <_dtoa_r+0x662>
 8007620:	4bac      	ldr	r3, [pc, #688]	@ (80078d4 <_dtoa_r+0x8cc>)
 8007622:	e9dd 0110 	ldrd	r0, r1, [sp, #64]	@ 0x40
 8007626:	f7f8 fe31 	bl	800028c <__adddf3>
 800762a:	4602      	mov	r2, r0
 800762c:	460b      	mov	r3, r1
 800762e:	e9dd 0102 	ldrd	r0, r1, [sp, #8]
 8007632:	f7f9 fa71 	bl	8000b18 <__aeabi_dcmpgt>
 8007636:	2800      	cmp	r0, #0
 8007638:	d145      	bne.n	80076c6 <_dtoa_r+0x6be>
 800763a:	e9dd 2310 	ldrd	r2, r3, [sp, #64]	@ 0x40
 800763e:	49a5      	ldr	r1, [pc, #660]	@ (80078d4 <_dtoa_r+0x8cc>)
 8007640:	2000      	movs	r0, #0
 8007642:	f7f8 fe21 	bl	8000288 <__aeabi_dsub>
 8007646:	4602      	mov	r2, r0
 8007648:	460b      	mov	r3, r1
 800764a:	e9dd 0102 	ldrd	r0, r1, [sp, #8]
 800764e:	f7f9 fa45 	bl	8000adc <__aeabi_dcmplt>
 8007652:	2800      	cmp	r0, #0
 8007654:	f43f aef5 	beq.w	8007442 <_dtoa_r+0x43a>
 8007658:	9e15      	ldr	r6, [sp, #84]	@ 0x54
 800765a:	1e73      	subs	r3, r6, #1
 800765c:	9315      	str	r3, [sp, #84]	@ 0x54
 800765e:	f816 3c01 	ldrb.w	r3, [r6, #-1]
 8007662:	2b30      	cmp	r3, #48	@ 0x30
 8007664:	d0f8      	beq.n	8007658 <_dtoa_r+0x650>
 8007666:	9f04      	ldr	r7, [sp, #16]
 8007668:	e73e      	b.n	80074e8 <_dtoa_r+0x4e0>
 800766a:	4b9b      	ldr	r3, [pc, #620]	@ (80078d8 <_dtoa_r+0x8d0>)
 800766c:	f7f8 ffc4 	bl	80005f8 <__aeabi_dmul>
 8007670:	e9cd 0102 	strd	r0, r1, [sp, #8]
 8007674:	e7bc      	b.n	80075f0 <_dtoa_r+0x5e8>
 8007676:	d10c      	bne.n	8007692 <_dtoa_r+0x68a>
 8007678:	4b98      	ldr	r3, [pc, #608]	@ (80078dc <_dtoa_r+0x8d4>)
 800767a:	2200      	movs	r2, #0
 800767c:	e9dd 0100 	ldrd	r0, r1, [sp]
 8007680:	f7f8 ffba 	bl	80005f8 <__aeabi_dmul>
 8007684:	e9dd 2302 	ldrd	r2, r3, [sp, #8]
 8007688:	f7f9 fa3c 	bl	8000b04 <__aeabi_dcmpge>
 800768c:	2800      	cmp	r0, #0
 800768e:	f000 8157 	beq.w	8007940 <_dtoa_r+0x938>
 8007692:	2400      	movs	r4, #0
 8007694:	4625      	mov	r5, r4
 8007696:	9b0e      	ldr	r3, [sp, #56]	@ 0x38
 8007698:	43db      	mvns	r3, r3
 800769a:	9304      	str	r3, [sp, #16]
 800769c:	4656      	mov	r6, sl
 800769e:	2700      	movs	r7, #0
 80076a0:	4621      	mov	r1, r4
 80076a2:	4658      	mov	r0, fp
 80076a4:	f000 fbb4 	bl	8007e10 <_Bfree>
 80076a8:	2d00      	cmp	r5, #0
 80076aa:	d0dc      	beq.n	8007666 <_dtoa_r+0x65e>
 80076ac:	b12f      	cbz	r7, 80076ba <_dtoa_r+0x6b2>
 80076ae:	42af      	cmp	r7, r5
 80076b0:	d003      	beq.n	80076ba <_dtoa_r+0x6b2>
 80076b2:	4639      	mov	r1, r7
 80076b4:	4658      	mov	r0, fp
 80076b6:	f000 fbab 	bl	8007e10 <_Bfree>
 80076ba:	4629      	mov	r1, r5
 80076bc:	4658      	mov	r0, fp
 80076be:	f000 fba7 	bl	8007e10 <_Bfree>
 80076c2:	e7d0      	b.n	8007666 <_dtoa_r+0x65e>
 80076c4:	9704      	str	r7, [sp, #16]
 80076c6:	4633      	mov	r3, r6
 80076c8:	461e      	mov	r6, r3
 80076ca:	f813 2d01 	ldrb.w	r2, [r3, #-1]!
 80076ce:	2a39      	cmp	r2, #57	@ 0x39
 80076d0:	d107      	bne.n	80076e2 <_dtoa_r+0x6da>
 80076d2:	459a      	cmp	sl, r3
 80076d4:	d1f8      	bne.n	80076c8 <_dtoa_r+0x6c0>
 80076d6:	9a04      	ldr	r2, [sp, #16]
 80076d8:	3201      	adds	r2, #1
 80076da:	9204      	str	r2, [sp, #16]
 80076dc:	2230      	movs	r2, #48	@ 0x30
 80076de:	f88a 2000 	strb.w	r2, [sl]
 80076e2:	781a      	ldrb	r2, [r3, #0]
 80076e4:	3201      	adds	r2, #1
 80076e6:	701a      	strb	r2, [r3, #0]
 80076e8:	e7bd      	b.n	8007666 <_dtoa_r+0x65e>
 80076ea:	4b7b      	ldr	r3, [pc, #492]	@ (80078d8 <_dtoa_r+0x8d0>)
 80076ec:	2200      	movs	r2, #0
 80076ee:	f7f8 ff83 	bl	80005f8 <__aeabi_dmul>
 80076f2:	2200      	movs	r2, #0
 80076f4:	2300      	movs	r3, #0
 80076f6:	4604      	mov	r4, r0
 80076f8:	460d      	mov	r5, r1
 80076fa:	f7f9 f9e5 	bl	8000ac8 <__aeabi_dcmpeq>
 80076fe:	2800      	cmp	r0, #0
 8007700:	f43f aebb 	beq.w	800747a <_dtoa_r+0x472>
 8007704:	e6f0      	b.n	80074e8 <_dtoa_r+0x4e0>
 8007706:	9a0b      	ldr	r2, [sp, #44]	@ 0x2c
 8007708:	2a00      	cmp	r2, #0
 800770a:	f000 80db 	beq.w	80078c4 <_dtoa_r+0x8bc>
 800770e:	9a09      	ldr	r2, [sp, #36]	@ 0x24
 8007710:	2a01      	cmp	r2, #1
 8007712:	f300 80bf 	bgt.w	8007894 <_dtoa_r+0x88c>
 8007716:	9a14      	ldr	r2, [sp, #80]	@ 0x50
 8007718:	2a00      	cmp	r2, #0
 800771a:	f000 80b7 	beq.w	800788c <_dtoa_r+0x884>
 800771e:	f203 4333 	addw	r3, r3, #1075	@ 0x433
 8007722:	9c0a      	ldr	r4, [sp, #40]	@ 0x28
 8007724:	4646      	mov	r6, r8
 8007726:	9a08      	ldr	r2, [sp, #32]
 8007728:	2101      	movs	r1, #1
 800772a:	441a      	add	r2, r3
 800772c:	4658      	mov	r0, fp
 800772e:	4498      	add	r8, r3
 8007730:	9208      	str	r2, [sp, #32]
 8007732:	f000 fc21 	bl	8007f78 <__i2b>
 8007736:	4605      	mov	r5, r0
 8007738:	b15e      	cbz	r6, 8007752 <_dtoa_r+0x74a>
 800773a:	9b08      	ldr	r3, [sp, #32]
 800773c:	2b00      	cmp	r3, #0
 800773e:	dd08      	ble.n	8007752 <_dtoa_r+0x74a>
 8007740:	42b3      	cmp	r3, r6
 8007742:	9a08      	ldr	r2, [sp, #32]
 8007744:	bfa8      	it	ge
 8007746:	4633      	movge	r3, r6
 8007748:	eba8 0803 	sub.w	r8, r8, r3
 800774c:	1af6      	subs	r6, r6, r3
 800774e:	1ad3      	subs	r3, r2, r3
 8007750:	9308      	str	r3, [sp, #32]
 8007752:	9b0a      	ldr	r3, [sp, #40]	@ 0x28
 8007754:	b1f3      	cbz	r3, 8007794 <_dtoa_r+0x78c>
 8007756:	9b0b      	ldr	r3, [sp, #44]	@ 0x2c
 8007758:	2b00      	cmp	r3, #0
 800775a:	f000 80b7 	beq.w	80078cc <_dtoa_r+0x8c4>
 800775e:	b18c      	cbz	r4, 8007784 <_dtoa_r+0x77c>
 8007760:	4629      	mov	r1, r5
 8007762:	4622      	mov	r2, r4
 8007764:	4658      	mov	r0, fp
 8007766:	f000 fcc7 	bl	80080f8 <__pow5mult>
 800776a:	464a      	mov	r2, r9
 800776c:	4601      	mov	r1, r0
 800776e:	4605      	mov	r5, r0
 8007770:	4658      	mov	r0, fp
 8007772:	f000 fc17 	bl	8007fa4 <__multiply>
 8007776:	4649      	mov	r1, r9
 8007778:	9004      	str	r0, [sp, #16]
 800777a:	4658      	mov	r0, fp
 800777c:	f000 fb48 	bl	8007e10 <_Bfree>
 8007780:	9b04      	ldr	r3, [sp, #16]
 8007782:	4699      	mov	r9, r3
 8007784:	9b0a      	ldr	r3, [sp, #40]	@ 0x28
 8007786:	1b1a      	subs	r2, r3, r4
 8007788:	d004      	beq.n	8007794 <_dtoa_r+0x78c>
 800778a:	4649      	mov	r1, r9
 800778c:	4658      	mov	r0, fp
 800778e:	f000 fcb3 	bl	80080f8 <__pow5mult>
 8007792:	4681      	mov	r9, r0
 8007794:	2101      	movs	r1, #1
 8007796:	4658      	mov	r0, fp
 8007798:	f000 fbee 	bl	8007f78 <__i2b>
 800779c:	9b0f      	ldr	r3, [sp, #60]	@ 0x3c
 800779e:	4604      	mov	r4, r0
 80077a0:	2b00      	cmp	r3, #0
 80077a2:	f000 81cf 	beq.w	8007b44 <_dtoa_r+0xb3c>
 80077a6:	461a      	mov	r2, r3
 80077a8:	4601      	mov	r1, r0
 80077aa:	4658      	mov	r0, fp
 80077ac:	f000 fca4 	bl	80080f8 <__pow5mult>
 80077b0:	9b09      	ldr	r3, [sp, #36]	@ 0x24
 80077b2:	2b01      	cmp	r3, #1
 80077b4:	4604      	mov	r4, r0
 80077b6:	f300 8095 	bgt.w	80078e4 <_dtoa_r+0x8dc>
 80077ba:	9b02      	ldr	r3, [sp, #8]
 80077bc:	2b00      	cmp	r3, #0
 80077be:	f040 8087 	bne.w	80078d0 <_dtoa_r+0x8c8>
 80077c2:	9b03      	ldr	r3, [sp, #12]
 80077c4:	f3c3 0313 	ubfx	r3, r3, #0, #20
 80077c8:	2b00      	cmp	r3, #0
 80077ca:	f040 8089 	bne.w	80078e0 <_dtoa_r+0x8d8>
 80077ce:	9b03      	ldr	r3, [sp, #12]
 80077d0:	f023 4300 	bic.w	r3, r3, #2147483648	@ 0x80000000
 80077d4:	0d1b      	lsrs	r3, r3, #20
 80077d6:	051b      	lsls	r3, r3, #20
 80077d8:	b12b      	cbz	r3, 80077e6 <_dtoa_r+0x7de>
 80077da:	9b08      	ldr	r3, [sp, #32]
 80077dc:	3301      	adds	r3, #1
 80077de:	9308      	str	r3, [sp, #32]
 80077e0:	f108 0801 	add.w	r8, r8, #1
 80077e4:	2301      	movs	r3, #1
 80077e6:	930a      	str	r3, [sp, #40]	@ 0x28
 80077e8:	9b0f      	ldr	r3, [sp, #60]	@ 0x3c
 80077ea:	2b00      	cmp	r3, #0
 80077ec:	f000 81b0 	beq.w	8007b50 <_dtoa_r+0xb48>
 80077f0:	6923      	ldr	r3, [r4, #16]
 80077f2:	eb04 0383 	add.w	r3, r4, r3, lsl #2
 80077f6:	6918      	ldr	r0, [r3, #16]
 80077f8:	f000 fb72 	bl	8007ee0 <__hi0bits>
 80077fc:	f1c0 0020 	rsb	r0, r0, #32
 8007800:	9b08      	ldr	r3, [sp, #32]
 8007802:	4418      	add	r0, r3
 8007804:	f010 001f 	ands.w	r0, r0, #31
 8007808:	d077      	beq.n	80078fa <_dtoa_r+0x8f2>
 800780a:	f1c0 0320 	rsb	r3, r0, #32
 800780e:	2b04      	cmp	r3, #4
 8007810:	dd6b      	ble.n	80078ea <_dtoa_r+0x8e2>
 8007812:	9b08      	ldr	r3, [sp, #32]
 8007814:	f1c0 001c 	rsb	r0, r0, #28
 8007818:	4403      	add	r3, r0
 800781a:	4480      	add	r8, r0
 800781c:	4406      	add	r6, r0
 800781e:	9308      	str	r3, [sp, #32]
 8007820:	f1b8 0f00 	cmp.w	r8, #0
 8007824:	dd05      	ble.n	8007832 <_dtoa_r+0x82a>
 8007826:	4649      	mov	r1, r9
 8007828:	4642      	mov	r2, r8
 800782a:	4658      	mov	r0, fp
 800782c:	f000 fcbe 	bl	80081ac <__lshift>
 8007830:	4681      	mov	r9, r0
 8007832:	9b08      	ldr	r3, [sp, #32]
 8007834:	2b00      	cmp	r3, #0
 8007836:	dd05      	ble.n	8007844 <_dtoa_r+0x83c>
 8007838:	4621      	mov	r1, r4
 800783a:	461a      	mov	r2, r3
 800783c:	4658      	mov	r0, fp
 800783e:	f000 fcb5 	bl	80081ac <__lshift>
 8007842:	4604      	mov	r4, r0
 8007844:	9b12      	ldr	r3, [sp, #72]	@ 0x48
 8007846:	2b00      	cmp	r3, #0
 8007848:	d059      	beq.n	80078fe <_dtoa_r+0x8f6>
 800784a:	4621      	mov	r1, r4
 800784c:	4648      	mov	r0, r9
 800784e:	f000 fd19 	bl	8008284 <__mcmp>
 8007852:	2800      	cmp	r0, #0
 8007854:	da53      	bge.n	80078fe <_dtoa_r+0x8f6>
 8007856:	1e7b      	subs	r3, r7, #1
 8007858:	9304      	str	r3, [sp, #16]
 800785a:	4649      	mov	r1, r9
 800785c:	2300      	movs	r3, #0
 800785e:	220a      	movs	r2, #10
 8007860:	4658      	mov	r0, fp
 8007862:	f000 faf7 	bl	8007e54 <__multadd>
 8007866:	9b0b      	ldr	r3, [sp, #44]	@ 0x2c
 8007868:	4681      	mov	r9, r0
 800786a:	2b00      	cmp	r3, #0
 800786c:	f000 8172 	beq.w	8007b54 <_dtoa_r+0xb4c>
 8007870:	2300      	movs	r3, #0
 8007872:	4629      	mov	r1, r5
 8007874:	220a      	movs	r2, #10
 8007876:	4658      	mov	r0, fp
 8007878:	f000 faec 	bl	8007e54 <__multadd>
 800787c:	9b00      	ldr	r3, [sp, #0]
 800787e:	2b00      	cmp	r3, #0
 8007880:	4605      	mov	r5, r0
 8007882:	dc67      	bgt.n	8007954 <_dtoa_r+0x94c>
 8007884:	9b09      	ldr	r3, [sp, #36]	@ 0x24
 8007886:	2b02      	cmp	r3, #2
 8007888:	dc41      	bgt.n	800790e <_dtoa_r+0x906>
 800788a:	e063      	b.n	8007954 <_dtoa_r+0x94c>
 800788c:	9b16      	ldr	r3, [sp, #88]	@ 0x58
 800788e:	f1c3 0336 	rsb	r3, r3, #54	@ 0x36
 8007892:	e746      	b.n	8007722 <_dtoa_r+0x71a>
 8007894:	9b07      	ldr	r3, [sp, #28]
 8007896:	1e5c      	subs	r4, r3, #1
 8007898:	9b0a      	ldr	r3, [sp, #40]	@ 0x28
 800789a:	42a3      	cmp	r3, r4
 800789c:	bfbf      	itttt	lt
 800789e:	9b0a      	ldrlt	r3, [sp, #40]	@ 0x28
 80078a0:	9a0f      	ldrlt	r2, [sp, #60]	@ 0x3c
 80078a2:	940a      	strlt	r4, [sp, #40]	@ 0x28
 80078a4:	1ae3      	sublt	r3, r4, r3
 80078a6:	bfb4      	ite	lt
 80078a8:	18d2      	addlt	r2, r2, r3
 80078aa:	1b1c      	subge	r4, r3, r4
 80078ac:	9b07      	ldr	r3, [sp, #28]
 80078ae:	bfbc      	itt	lt
 80078b0:	920f      	strlt	r2, [sp, #60]	@ 0x3c
 80078b2:	2400      	movlt	r4, #0
 80078b4:	2b00      	cmp	r3, #0
 80078b6:	bfb5      	itete	lt
 80078b8:	eba8 0603 	sublt.w	r6, r8, r3
 80078bc:	9b07      	ldrge	r3, [sp, #28]
 80078be:	2300      	movlt	r3, #0
 80078c0:	4646      	movge	r6, r8
 80078c2:	e730      	b.n	8007726 <_dtoa_r+0x71e>
 80078c4:	9c0a      	ldr	r4, [sp, #40]	@ 0x28
 80078c6:	9d0b      	ldr	r5, [sp, #44]	@ 0x2c
 80078c8:	4646      	mov	r6, r8
 80078ca:	e735      	b.n	8007738 <_dtoa_r+0x730>
 80078cc:	9a0a      	ldr	r2, [sp, #40]	@ 0x28
 80078ce:	e75c      	b.n	800778a <_dtoa_r+0x782>
 80078d0:	2300      	movs	r3, #0
 80078d2:	e788      	b.n	80077e6 <_dtoa_r+0x7de>
 80078d4:	3fe00000 	.word	0x3fe00000
 80078d8:	40240000 	.word	0x40240000
 80078dc:	40140000 	.word	0x40140000
 80078e0:	9b02      	ldr	r3, [sp, #8]
 80078e2:	e780      	b.n	80077e6 <_dtoa_r+0x7de>
 80078e4:	2300      	movs	r3, #0
 80078e6:	930a      	str	r3, [sp, #40]	@ 0x28
 80078e8:	e782      	b.n	80077f0 <_dtoa_r+0x7e8>
 80078ea:	d099      	beq.n	8007820 <_dtoa_r+0x818>
 80078ec:	9a08      	ldr	r2, [sp, #32]
 80078ee:	331c      	adds	r3, #28
 80078f0:	441a      	add	r2, r3
 80078f2:	4498      	add	r8, r3
 80078f4:	441e      	add	r6, r3
 80078f6:	9208      	str	r2, [sp, #32]
 80078f8:	e792      	b.n	8007820 <_dtoa_r+0x818>
 80078fa:	4603      	mov	r3, r0
 80078fc:	e7f6      	b.n	80078ec <_dtoa_r+0x8e4>
 80078fe:	9b07      	ldr	r3, [sp, #28]
 8007900:	9704      	str	r7, [sp, #16]
 8007902:	2b00      	cmp	r3, #0
 8007904:	dc20      	bgt.n	8007948 <_dtoa_r+0x940>
 8007906:	9300      	str	r3, [sp, #0]
 8007908:	9b09      	ldr	r3, [sp, #36]	@ 0x24
 800790a:	2b02      	cmp	r3, #2
 800790c:	dd1e      	ble.n	800794c <_dtoa_r+0x944>
 800790e:	9b00      	ldr	r3, [sp, #0]
 8007910:	2b00      	cmp	r3, #0
 8007912:	f47f aec0 	bne.w	8007696 <_dtoa_r+0x68e>
 8007916:	4621      	mov	r1, r4
 8007918:	2205      	movs	r2, #5
 800791a:	4658      	mov	r0, fp
 800791c:	f000 fa9a 	bl	8007e54 <__multadd>
 8007920:	4601      	mov	r1, r0
 8007922:	4604      	mov	r4, r0
 8007924:	4648      	mov	r0, r9
 8007926:	f000 fcad 	bl	8008284 <__mcmp>
 800792a:	2800      	cmp	r0, #0
 800792c:	f77f aeb3 	ble.w	8007696 <_dtoa_r+0x68e>
 8007930:	4656      	mov	r6, sl
 8007932:	2331      	movs	r3, #49	@ 0x31
 8007934:	f806 3b01 	strb.w	r3, [r6], #1
 8007938:	9b04      	ldr	r3, [sp, #16]
 800793a:	3301      	adds	r3, #1
 800793c:	9304      	str	r3, [sp, #16]
 800793e:	e6ae      	b.n	800769e <_dtoa_r+0x696>
 8007940:	9c07      	ldr	r4, [sp, #28]
 8007942:	9704      	str	r7, [sp, #16]
 8007944:	4625      	mov	r5, r4
 8007946:	e7f3      	b.n	8007930 <_dtoa_r+0x928>
 8007948:	9b07      	ldr	r3, [sp, #28]
 800794a:	9300      	str	r3, [sp, #0]
 800794c:	9b0b      	ldr	r3, [sp, #44]	@ 0x2c
 800794e:	2b00      	cmp	r3, #0
 8007950:	f000 8104 	beq.w	8007b5c <_dtoa_r+0xb54>
 8007954:	2e00      	cmp	r6, #0
 8007956:	dd05      	ble.n	8007964 <_dtoa_r+0x95c>
 8007958:	4629      	mov	r1, r5
 800795a:	4632      	mov	r2, r6
 800795c:	4658      	mov	r0, fp
 800795e:	f000 fc25 	bl	80081ac <__lshift>
 8007962:	4605      	mov	r5, r0
 8007964:	9b0a      	ldr	r3, [sp, #40]	@ 0x28
 8007966:	2b00      	cmp	r3, #0
 8007968:	d05a      	beq.n	8007a20 <_dtoa_r+0xa18>
 800796a:	6869      	ldr	r1, [r5, #4]
 800796c:	4658      	mov	r0, fp
 800796e:	f000 fa0f 	bl	8007d90 <_Balloc>
 8007972:	4606      	mov	r6, r0
 8007974:	b928      	cbnz	r0, 8007982 <_dtoa_r+0x97a>
 8007976:	4b84      	ldr	r3, [pc, #528]	@ (8007b88 <_dtoa_r+0xb80>)
 8007978:	4602      	mov	r2, r0
 800797a:	f240 21ef 	movw	r1, #751	@ 0x2ef
 800797e:	f7ff bb5a 	b.w	8007036 <_dtoa_r+0x2e>
 8007982:	692a      	ldr	r2, [r5, #16]
 8007984:	3202      	adds	r2, #2
 8007986:	0092      	lsls	r2, r2, #2
 8007988:	f105 010c 	add.w	r1, r5, #12
 800798c:	300c      	adds	r0, #12
 800798e:	f7ff faa2 	bl	8006ed6 <memcpy>
 8007992:	2201      	movs	r2, #1
 8007994:	4631      	mov	r1, r6
 8007996:	4658      	mov	r0, fp
 8007998:	f000 fc08 	bl	80081ac <__lshift>
 800799c:	f10a 0301 	add.w	r3, sl, #1
 80079a0:	9307      	str	r3, [sp, #28]
 80079a2:	9b00      	ldr	r3, [sp, #0]
 80079a4:	4453      	add	r3, sl
 80079a6:	930b      	str	r3, [sp, #44]	@ 0x2c
 80079a8:	9b02      	ldr	r3, [sp, #8]
 80079aa:	f003 0301 	and.w	r3, r3, #1
 80079ae:	462f      	mov	r7, r5
 80079b0:	930a      	str	r3, [sp, #40]	@ 0x28
 80079b2:	4605      	mov	r5, r0
 80079b4:	9b07      	ldr	r3, [sp, #28]
 80079b6:	4621      	mov	r1, r4
 80079b8:	3b01      	subs	r3, #1
 80079ba:	4648      	mov	r0, r9
 80079bc:	9300      	str	r3, [sp, #0]
 80079be:	f7ff fa98 	bl	8006ef2 <quorem>
 80079c2:	4639      	mov	r1, r7
 80079c4:	9002      	str	r0, [sp, #8]
 80079c6:	f100 0830 	add.w	r8, r0, #48	@ 0x30
 80079ca:	4648      	mov	r0, r9
 80079cc:	f000 fc5a 	bl	8008284 <__mcmp>
 80079d0:	462a      	mov	r2, r5
 80079d2:	9008      	str	r0, [sp, #32]
 80079d4:	4621      	mov	r1, r4
 80079d6:	4658      	mov	r0, fp
 80079d8:	f000 fc70 	bl	80082bc <__mdiff>
 80079dc:	68c2      	ldr	r2, [r0, #12]
 80079de:	4606      	mov	r6, r0
 80079e0:	bb02      	cbnz	r2, 8007a24 <_dtoa_r+0xa1c>
 80079e2:	4601      	mov	r1, r0
 80079e4:	4648      	mov	r0, r9
 80079e6:	f000 fc4d 	bl	8008284 <__mcmp>
 80079ea:	4602      	mov	r2, r0
 80079ec:	4631      	mov	r1, r6
 80079ee:	4658      	mov	r0, fp
 80079f0:	920e      	str	r2, [sp, #56]	@ 0x38
 80079f2:	f000 fa0d 	bl	8007e10 <_Bfree>
 80079f6:	9b09      	ldr	r3, [sp, #36]	@ 0x24
 80079f8:	9a0e      	ldr	r2, [sp, #56]	@ 0x38
 80079fa:	9e07      	ldr	r6, [sp, #28]
 80079fc:	ea43 0102 	orr.w	r1, r3, r2
 8007a00:	9b0a      	ldr	r3, [sp, #40]	@ 0x28
 8007a02:	4319      	orrs	r1, r3
 8007a04:	d110      	bne.n	8007a28 <_dtoa_r+0xa20>
 8007a06:	f1b8 0f39 	cmp.w	r8, #57	@ 0x39
 8007a0a:	d029      	beq.n	8007a60 <_dtoa_r+0xa58>
 8007a0c:	9b08      	ldr	r3, [sp, #32]
 8007a0e:	2b00      	cmp	r3, #0
 8007a10:	dd02      	ble.n	8007a18 <_dtoa_r+0xa10>
 8007a12:	9b02      	ldr	r3, [sp, #8]
 8007a14:	f103 0831 	add.w	r8, r3, #49	@ 0x31
 8007a18:	9b00      	ldr	r3, [sp, #0]
 8007a1a:	f883 8000 	strb.w	r8, [r3]
 8007a1e:	e63f      	b.n	80076a0 <_dtoa_r+0x698>
 8007a20:	4628      	mov	r0, r5
 8007a22:	e7bb      	b.n	800799c <_dtoa_r+0x994>
 8007a24:	2201      	movs	r2, #1
 8007a26:	e7e1      	b.n	80079ec <_dtoa_r+0x9e4>
 8007a28:	9b08      	ldr	r3, [sp, #32]
 8007a2a:	2b00      	cmp	r3, #0
 8007a2c:	db04      	blt.n	8007a38 <_dtoa_r+0xa30>
 8007a2e:	9909      	ldr	r1, [sp, #36]	@ 0x24
 8007a30:	430b      	orrs	r3, r1
 8007a32:	990a      	ldr	r1, [sp, #40]	@ 0x28
 8007a34:	430b      	orrs	r3, r1
 8007a36:	d120      	bne.n	8007a7a <_dtoa_r+0xa72>
 8007a38:	2a00      	cmp	r2, #0
 8007a3a:	dded      	ble.n	8007a18 <_dtoa_r+0xa10>
 8007a3c:	4649      	mov	r1, r9
 8007a3e:	2201      	movs	r2, #1
 8007a40:	4658      	mov	r0, fp
 8007a42:	f000 fbb3 	bl	80081ac <__lshift>
 8007a46:	4621      	mov	r1, r4
 8007a48:	4681      	mov	r9, r0
 8007a4a:	f000 fc1b 	bl	8008284 <__mcmp>
 8007a4e:	2800      	cmp	r0, #0
 8007a50:	dc03      	bgt.n	8007a5a <_dtoa_r+0xa52>
 8007a52:	d1e1      	bne.n	8007a18 <_dtoa_r+0xa10>
 8007a54:	f018 0f01 	tst.w	r8, #1
 8007a58:	d0de      	beq.n	8007a18 <_dtoa_r+0xa10>
 8007a5a:	f1b8 0f39 	cmp.w	r8, #57	@ 0x39
 8007a5e:	d1d8      	bne.n	8007a12 <_dtoa_r+0xa0a>
 8007a60:	9a00      	ldr	r2, [sp, #0]
 8007a62:	2339      	movs	r3, #57	@ 0x39
 8007a64:	7013      	strb	r3, [r2, #0]
 8007a66:	4633      	mov	r3, r6
 8007a68:	461e      	mov	r6, r3
 8007a6a:	3b01      	subs	r3, #1
 8007a6c:	f816 2c01 	ldrb.w	r2, [r6, #-1]
 8007a70:	2a39      	cmp	r2, #57	@ 0x39
 8007a72:	d052      	beq.n	8007b1a <_dtoa_r+0xb12>
 8007a74:	3201      	adds	r2, #1
 8007a76:	701a      	strb	r2, [r3, #0]
 8007a78:	e612      	b.n	80076a0 <_dtoa_r+0x698>
 8007a7a:	2a00      	cmp	r2, #0
 8007a7c:	dd07      	ble.n	8007a8e <_dtoa_r+0xa86>
 8007a7e:	f1b8 0f39 	cmp.w	r8, #57	@ 0x39
 8007a82:	d0ed      	beq.n	8007a60 <_dtoa_r+0xa58>
 8007a84:	9a00      	ldr	r2, [sp, #0]
 8007a86:	f108 0301 	add.w	r3, r8, #1
 8007a8a:	7013      	strb	r3, [r2, #0]
 8007a8c:	e608      	b.n	80076a0 <_dtoa_r+0x698>
 8007a8e:	9b07      	ldr	r3, [sp, #28]
 8007a90:	9a07      	ldr	r2, [sp, #28]
 8007a92:	f803 8c01 	strb.w	r8, [r3, #-1]
 8007a96:	9b0b      	ldr	r3, [sp, #44]	@ 0x2c
 8007a98:	4293      	cmp	r3, r2
 8007a9a:	d028      	beq.n	8007aee <_dtoa_r+0xae6>
 8007a9c:	4649      	mov	r1, r9
 8007a9e:	2300      	movs	r3, #0
 8007aa0:	220a      	movs	r2, #10
 8007aa2:	4658      	mov	r0, fp
 8007aa4:	f000 f9d6 	bl	8007e54 <__multadd>
 8007aa8:	42af      	cmp	r7, r5
 8007aaa:	4681      	mov	r9, r0
 8007aac:	f04f 0300 	mov.w	r3, #0
 8007ab0:	f04f 020a 	mov.w	r2, #10
 8007ab4:	4639      	mov	r1, r7
 8007ab6:	4658      	mov	r0, fp
 8007ab8:	d107      	bne.n	8007aca <_dtoa_r+0xac2>
 8007aba:	f000 f9cb 	bl	8007e54 <__multadd>
 8007abe:	4607      	mov	r7, r0
 8007ac0:	4605      	mov	r5, r0
 8007ac2:	9b07      	ldr	r3, [sp, #28]
 8007ac4:	3301      	adds	r3, #1
 8007ac6:	9307      	str	r3, [sp, #28]
 8007ac8:	e774      	b.n	80079b4 <_dtoa_r+0x9ac>
 8007aca:	f000 f9c3 	bl	8007e54 <__multadd>
 8007ace:	4629      	mov	r1, r5
 8007ad0:	4607      	mov	r7, r0
 8007ad2:	2300      	movs	r3, #0
 8007ad4:	220a      	movs	r2, #10
 8007ad6:	4658      	mov	r0, fp
 8007ad8:	f000 f9bc 	bl	8007e54 <__multadd>
 8007adc:	4605      	mov	r5, r0
 8007ade:	e7f0      	b.n	8007ac2 <_dtoa_r+0xaba>
 8007ae0:	9b00      	ldr	r3, [sp, #0]
 8007ae2:	2b00      	cmp	r3, #0
 8007ae4:	bfcc      	ite	gt
 8007ae6:	461e      	movgt	r6, r3
 8007ae8:	2601      	movle	r6, #1
 8007aea:	4456      	add	r6, sl
 8007aec:	2700      	movs	r7, #0
 8007aee:	4649      	mov	r1, r9
 8007af0:	2201      	movs	r2, #1
 8007af2:	4658      	mov	r0, fp
 8007af4:	f000 fb5a 	bl	80081ac <__lshift>
 8007af8:	4621      	mov	r1, r4
 8007afa:	4681      	mov	r9, r0
 8007afc:	f000 fbc2 	bl	8008284 <__mcmp>
 8007b00:	2800      	cmp	r0, #0
 8007b02:	dcb0      	bgt.n	8007a66 <_dtoa_r+0xa5e>
 8007b04:	d102      	bne.n	8007b0c <_dtoa_r+0xb04>
 8007b06:	f018 0f01 	tst.w	r8, #1
 8007b0a:	d1ac      	bne.n	8007a66 <_dtoa_r+0xa5e>
 8007b0c:	4633      	mov	r3, r6
 8007b0e:	461e      	mov	r6, r3
 8007b10:	f813 2d01 	ldrb.w	r2, [r3, #-1]!
 8007b14:	2a30      	cmp	r2, #48	@ 0x30
 8007b16:	d0fa      	beq.n	8007b0e <_dtoa_r+0xb06>
 8007b18:	e5c2      	b.n	80076a0 <_dtoa_r+0x698>
 8007b1a:	459a      	cmp	sl, r3
 8007b1c:	d1a4      	bne.n	8007a68 <_dtoa_r+0xa60>
 8007b1e:	9b04      	ldr	r3, [sp, #16]
 8007b20:	3301      	adds	r3, #1
 8007b22:	9304      	str	r3, [sp, #16]
 8007b24:	2331      	movs	r3, #49	@ 0x31
 8007b26:	f88a 3000 	strb.w	r3, [sl]
 8007b2a:	e5b9      	b.n	80076a0 <_dtoa_r+0x698>
 8007b2c:	9b23      	ldr	r3, [sp, #140]	@ 0x8c
 8007b2e:	f8df a05c 	ldr.w	sl, [pc, #92]	@ 8007b8c <_dtoa_r+0xb84>
 8007b32:	b11b      	cbz	r3, 8007b3c <_dtoa_r+0xb34>
 8007b34:	f10a 0308 	add.w	r3, sl, #8
 8007b38:	9a23      	ldr	r2, [sp, #140]	@ 0x8c
 8007b3a:	6013      	str	r3, [r2, #0]
 8007b3c:	4650      	mov	r0, sl
 8007b3e:	b019      	add	sp, #100	@ 0x64
 8007b40:	e8bd 8ff0 	ldmia.w	sp!, {r4, r5, r6, r7, r8, r9, sl, fp, pc}
 8007b44:	9b09      	ldr	r3, [sp, #36]	@ 0x24
 8007b46:	2b01      	cmp	r3, #1
 8007b48:	f77f ae37 	ble.w	80077ba <_dtoa_r+0x7b2>
 8007b4c:	9b0f      	ldr	r3, [sp, #60]	@ 0x3c
 8007b4e:	930a      	str	r3, [sp, #40]	@ 0x28
 8007b50:	2001      	movs	r0, #1
 8007b52:	e655      	b.n	8007800 <_dtoa_r+0x7f8>
 8007b54:	9b00      	ldr	r3, [sp, #0]
 8007b56:	2b00      	cmp	r3, #0
 8007b58:	f77f aed6 	ble.w	8007908 <_dtoa_r+0x900>
 8007b5c:	4656      	mov	r6, sl
 8007b5e:	4621      	mov	r1, r4
 8007b60:	4648      	mov	r0, r9
 8007b62:	f7ff f9c6 	bl	8006ef2 <quorem>
 8007b66:	f100 0830 	add.w	r8, r0, #48	@ 0x30
 8007b6a:	f806 8b01 	strb.w	r8, [r6], #1
 8007b6e:	9b00      	ldr	r3, [sp, #0]
 8007b70:	eba6 020a 	sub.w	r2, r6, sl
 8007b74:	4293      	cmp	r3, r2
 8007b76:	ddb3      	ble.n	8007ae0 <_dtoa_r+0xad8>
 8007b78:	4649      	mov	r1, r9
 8007b7a:	2300      	movs	r3, #0
 8007b7c:	220a      	movs	r2, #10
 8007b7e:	4658      	mov	r0, fp
 8007b80:	f000 f968 	bl	8007e54 <__multadd>
 8007b84:	4681      	mov	r9, r0
 8007b86:	e7ea      	b.n	8007b5e <_dtoa_r+0xb56>
 8007b88:	080097a4 	.word	0x080097a4
 8007b8c:	08009728 	.word	0x08009728

08007b90 <_free_r>:
 8007b90:	b538      	push	{r3, r4, r5, lr}
 8007b92:	4605      	mov	r5, r0
 8007b94:	2900      	cmp	r1, #0
 8007b96:	d041      	beq.n	8007c1c <_free_r+0x8c>
 8007b98:	f851 3c04 	ldr.w	r3, [r1, #-4]
 8007b9c:	1f0c      	subs	r4, r1, #4
 8007b9e:	2b00      	cmp	r3, #0
 8007ba0:	bfb8      	it	lt
 8007ba2:	18e4      	addlt	r4, r4, r3
 8007ba4:	f000 f8e8 	bl	8007d78 <__malloc_lock>
 8007ba8:	4a1d      	ldr	r2, [pc, #116]	@ (8007c20 <_free_r+0x90>)
 8007baa:	6813      	ldr	r3, [r2, #0]
 8007bac:	b933      	cbnz	r3, 8007bbc <_free_r+0x2c>
 8007bae:	6063      	str	r3, [r4, #4]
 8007bb0:	6014      	str	r4, [r2, #0]
 8007bb2:	4628      	mov	r0, r5
 8007bb4:	e8bd 4038 	ldmia.w	sp!, {r3, r4, r5, lr}
 8007bb8:	f000 b8e4 	b.w	8007d84 <__malloc_unlock>
 8007bbc:	42a3      	cmp	r3, r4
 8007bbe:	d908      	bls.n	8007bd2 <_free_r+0x42>
 8007bc0:	6820      	ldr	r0, [r4, #0]
 8007bc2:	1821      	adds	r1, r4, r0
 8007bc4:	428b      	cmp	r3, r1
 8007bc6:	bf01      	itttt	eq
 8007bc8:	6819      	ldreq	r1, [r3, #0]
 8007bca:	685b      	ldreq	r3, [r3, #4]
 8007bcc:	1809      	addeq	r1, r1, r0
 8007bce:	6021      	streq	r1, [r4, #0]
 8007bd0:	e7ed      	b.n	8007bae <_free_r+0x1e>
 8007bd2:	461a      	mov	r2, r3
 8007bd4:	685b      	ldr	r3, [r3, #4]
 8007bd6:	b10b      	cbz	r3, 8007bdc <_free_r+0x4c>
 8007bd8:	42a3      	cmp	r3, r4
 8007bda:	d9fa      	bls.n	8007bd2 <_free_r+0x42>
 8007bdc:	6811      	ldr	r1, [r2, #0]
 8007bde:	1850      	adds	r0, r2, r1
 8007be0:	42a0      	cmp	r0, r4
 8007be2:	d10b      	bne.n	8007bfc <_free_r+0x6c>
 8007be4:	6820      	ldr	r0, [r4, #0]
 8007be6:	4401      	add	r1, r0
 8007be8:	1850      	adds	r0, r2, r1
 8007bea:	4283      	cmp	r3, r0
 8007bec:	6011      	str	r1, [r2, #0]
 8007bee:	d1e0      	bne.n	8007bb2 <_free_r+0x22>
 8007bf0:	6818      	ldr	r0, [r3, #0]
 8007bf2:	685b      	ldr	r3, [r3, #4]
 8007bf4:	6053      	str	r3, [r2, #4]
 8007bf6:	4408      	add	r0, r1
 8007bf8:	6010      	str	r0, [r2, #0]
 8007bfa:	e7da      	b.n	8007bb2 <_free_r+0x22>
 8007bfc:	d902      	bls.n	8007c04 <_free_r+0x74>
 8007bfe:	230c      	movs	r3, #12
 8007c00:	602b      	str	r3, [r5, #0]
 8007c02:	e7d6      	b.n	8007bb2 <_free_r+0x22>
 8007c04:	6820      	ldr	r0, [r4, #0]
 8007c06:	1821      	adds	r1, r4, r0
 8007c08:	428b      	cmp	r3, r1
 8007c0a:	bf04      	itt	eq
 8007c0c:	6819      	ldreq	r1, [r3, #0]
 8007c0e:	685b      	ldreq	r3, [r3, #4]
 8007c10:	6063      	str	r3, [r4, #4]
 8007c12:	bf04      	itt	eq
 8007c14:	1809      	addeq	r1, r1, r0
 8007c16:	6021      	streq	r1, [r4, #0]
 8007c18:	6054      	str	r4, [r2, #4]
 8007c1a:	e7ca      	b.n	8007bb2 <_free_r+0x22>
 8007c1c:	bd38      	pop	{r3, r4, r5, pc}
 8007c1e:	bf00      	nop
 8007c20:	200015f0 	.word	0x200015f0

08007c24 <malloc>:
 8007c24:	4b02      	ldr	r3, [pc, #8]	@ (8007c30 <malloc+0xc>)
 8007c26:	4601      	mov	r1, r0
 8007c28:	6818      	ldr	r0, [r3, #0]
 8007c2a:	f000 b825 	b.w	8007c78 <_malloc_r>
 8007c2e:	bf00      	nop
 8007c30:	2000003c 	.word	0x2000003c

08007c34 <sbrk_aligned>:
 8007c34:	b570      	push	{r4, r5, r6, lr}
 8007c36:	4e0f      	ldr	r6, [pc, #60]	@ (8007c74 <sbrk_aligned+0x40>)
 8007c38:	460c      	mov	r4, r1
 8007c3a:	6831      	ldr	r1, [r6, #0]
 8007c3c:	4605      	mov	r5, r0
 8007c3e:	b911      	cbnz	r1, 8007c46 <sbrk_aligned+0x12>
 8007c40:	f000 fe9a 	bl	8008978 <_sbrk_r>
 8007c44:	6030      	str	r0, [r6, #0]
 8007c46:	4621      	mov	r1, r4
 8007c48:	4628      	mov	r0, r5
 8007c4a:	f000 fe95 	bl	8008978 <_sbrk_r>
 8007c4e:	1c43      	adds	r3, r0, #1
 8007c50:	d103      	bne.n	8007c5a <sbrk_aligned+0x26>
 8007c52:	f04f 34ff 	mov.w	r4, #4294967295	@ 0xffffffff
 8007c56:	4620      	mov	r0, r4
 8007c58:	bd70      	pop	{r4, r5, r6, pc}
 8007c5a:	1cc4      	adds	r4, r0, #3
 8007c5c:	f024 0403 	bic.w	r4, r4, #3
 8007c60:	42a0      	cmp	r0, r4
 8007c62:	d0f8      	beq.n	8007c56 <sbrk_aligned+0x22>
 8007c64:	1a21      	subs	r1, r4, r0
 8007c66:	4628      	mov	r0, r5
 8007c68:	f000 fe86 	bl	8008978 <_sbrk_r>
 8007c6c:	3001      	adds	r0, #1
 8007c6e:	d1f2      	bne.n	8007c56 <sbrk_aligned+0x22>
 8007c70:	e7ef      	b.n	8007c52 <sbrk_aligned+0x1e>
 8007c72:	bf00      	nop
 8007c74:	200015ec 	.word	0x200015ec

08007c78 <_malloc_r>:
 8007c78:	e92d 43f8 	stmdb	sp!, {r3, r4, r5, r6, r7, r8, r9, lr}
 8007c7c:	1ccd      	adds	r5, r1, #3
 8007c7e:	f025 0503 	bic.w	r5, r5, #3
 8007c82:	3508      	adds	r5, #8
 8007c84:	2d0c      	cmp	r5, #12
 8007c86:	bf38      	it	cc
 8007c88:	250c      	movcc	r5, #12
 8007c8a:	2d00      	cmp	r5, #0
 8007c8c:	4606      	mov	r6, r0
 8007c8e:	db01      	blt.n	8007c94 <_malloc_r+0x1c>
 8007c90:	42a9      	cmp	r1, r5
 8007c92:	d904      	bls.n	8007c9e <_malloc_r+0x26>
 8007c94:	230c      	movs	r3, #12
 8007c96:	6033      	str	r3, [r6, #0]
 8007c98:	2000      	movs	r0, #0
 8007c9a:	e8bd 83f8 	ldmia.w	sp!, {r3, r4, r5, r6, r7, r8, r9, pc}
 8007c9e:	f8df 80d4 	ldr.w	r8, [pc, #212]	@ 8007d74 <_malloc_r+0xfc>
 8007ca2:	f000 f869 	bl	8007d78 <__malloc_lock>
 8007ca6:	f8d8 3000 	ldr.w	r3, [r8]
 8007caa:	461c      	mov	r4, r3
 8007cac:	bb44      	cbnz	r4, 8007d00 <_malloc_r+0x88>
 8007cae:	4629      	mov	r1, r5
 8007cb0:	4630      	mov	r0, r6
 8007cb2:	f7ff ffbf 	bl	8007c34 <sbrk_aligned>
 8007cb6:	1c43      	adds	r3, r0, #1
 8007cb8:	4604      	mov	r4, r0
 8007cba:	d158      	bne.n	8007d6e <_malloc_r+0xf6>
 8007cbc:	f8d8 4000 	ldr.w	r4, [r8]
 8007cc0:	4627      	mov	r7, r4
 8007cc2:	2f00      	cmp	r7, #0
 8007cc4:	d143      	bne.n	8007d4e <_malloc_r+0xd6>
 8007cc6:	2c00      	cmp	r4, #0
 8007cc8:	d04b      	beq.n	8007d62 <_malloc_r+0xea>
 8007cca:	6823      	ldr	r3, [r4, #0]
 8007ccc:	4639      	mov	r1, r7
 8007cce:	4630      	mov	r0, r6
 8007cd0:	eb04 0903 	add.w	r9, r4, r3
 8007cd4:	f000 fe50 	bl	8008978 <_sbrk_r>
 8007cd8:	4581      	cmp	r9, r0
 8007cda:	d142      	bne.n	8007d62 <_malloc_r+0xea>
 8007cdc:	6821      	ldr	r1, [r4, #0]
 8007cde:	1a6d      	subs	r5, r5, r1
 8007ce0:	4629      	mov	r1, r5
 8007ce2:	4630      	mov	r0, r6
 8007ce4:	f7ff ffa6 	bl	8007c34 <sbrk_aligned>
 8007ce8:	3001      	adds	r0, #1
 8007cea:	d03a      	beq.n	8007d62 <_malloc_r+0xea>
 8007cec:	6823      	ldr	r3, [r4, #0]
 8007cee:	442b      	add	r3, r5
 8007cf0:	6023      	str	r3, [r4, #0]
 8007cf2:	f8d8 3000 	ldr.w	r3, [r8]
 8007cf6:	685a      	ldr	r2, [r3, #4]
 8007cf8:	bb62      	cbnz	r2, 8007d54 <_malloc_r+0xdc>
 8007cfa:	f8c8 7000 	str.w	r7, [r8]
 8007cfe:	e00f      	b.n	8007d20 <_malloc_r+0xa8>
 8007d00:	6822      	ldr	r2, [r4, #0]
 8007d02:	1b52      	subs	r2, r2, r5
 8007d04:	d420      	bmi.n	8007d48 <_malloc_r+0xd0>
 8007d06:	2a0b      	cmp	r2, #11
 8007d08:	d917      	bls.n	8007d3a <_malloc_r+0xc2>
 8007d0a:	1961      	adds	r1, r4, r5
 8007d0c:	42a3      	cmp	r3, r4
 8007d0e:	6025      	str	r5, [r4, #0]
 8007d10:	bf18      	it	ne
 8007d12:	6059      	strne	r1, [r3, #4]
 8007d14:	6863      	ldr	r3, [r4, #4]
 8007d16:	bf08      	it	eq
 8007d18:	f8c8 1000 	streq.w	r1, [r8]
 8007d1c:	5162      	str	r2, [r4, r5]
 8007d1e:	604b      	str	r3, [r1, #4]
 8007d20:	4630      	mov	r0, r6
 8007d22:	f000 f82f 	bl	8007d84 <__malloc_unlock>
 8007d26:	f104 000b 	add.w	r0, r4, #11
 8007d2a:	1d23      	adds	r3, r4, #4
 8007d2c:	f020 0007 	bic.w	r0, r0, #7
 8007d30:	1ac2      	subs	r2, r0, r3
 8007d32:	bf1c      	itt	ne
 8007d34:	1a1b      	subne	r3, r3, r0
 8007d36:	50a3      	strne	r3, [r4, r2]
 8007d38:	e7af      	b.n	8007c9a <_malloc_r+0x22>
 8007d3a:	6862      	ldr	r2, [r4, #4]
 8007d3c:	42a3      	cmp	r3, r4
 8007d3e:	bf0c      	ite	eq
 8007d40:	f8c8 2000 	streq.w	r2, [r8]
 8007d44:	605a      	strne	r2, [r3, #4]
 8007d46:	e7eb      	b.n	8007d20 <_malloc_r+0xa8>
 8007d48:	4623      	mov	r3, r4
 8007d4a:	6864      	ldr	r4, [r4, #4]
 8007d4c:	e7ae      	b.n	8007cac <_malloc_r+0x34>
 8007d4e:	463c      	mov	r4, r7
 8007d50:	687f      	ldr	r7, [r7, #4]
 8007d52:	e7b6      	b.n	8007cc2 <_malloc_r+0x4a>
 8007d54:	461a      	mov	r2, r3
 8007d56:	685b      	ldr	r3, [r3, #4]
 8007d58:	42a3      	cmp	r3, r4
 8007d5a:	d1fb      	bne.n	8007d54 <_malloc_r+0xdc>
 8007d5c:	2300      	movs	r3, #0
 8007d5e:	6053      	str	r3, [r2, #4]
 8007d60:	e7de      	b.n	8007d20 <_malloc_r+0xa8>
 8007d62:	230c      	movs	r3, #12
 8007d64:	6033      	str	r3, [r6, #0]
 8007d66:	4630      	mov	r0, r6
 8007d68:	f000 f80c 	bl	8007d84 <__malloc_unlock>
 8007d6c:	e794      	b.n	8007c98 <_malloc_r+0x20>
 8007d6e:	6005      	str	r5, [r0, #0]
 8007d70:	e7d6      	b.n	8007d20 <_malloc_r+0xa8>
 8007d72:	bf00      	nop
 8007d74:	200015f0 	.word	0x200015f0

08007d78 <__malloc_lock>:
 8007d78:	4801      	ldr	r0, [pc, #4]	@ (8007d80 <__malloc_lock+0x8>)
 8007d7a:	f7ff b8aa 	b.w	8006ed2 <__retarget_lock_acquire_recursive>
 8007d7e:	bf00      	nop
 8007d80:	200015e8 	.word	0x200015e8

08007d84 <__malloc_unlock>:
 8007d84:	4801      	ldr	r0, [pc, #4]	@ (8007d8c <__malloc_unlock+0x8>)
 8007d86:	f7ff b8a5 	b.w	8006ed4 <__retarget_lock_release_recursive>
 8007d8a:	bf00      	nop
 8007d8c:	200015e8 	.word	0x200015e8

08007d90 <_Balloc>:
 8007d90:	b570      	push	{r4, r5, r6, lr}
 8007d92:	69c6      	ldr	r6, [r0, #28]
 8007d94:	4604      	mov	r4, r0
 8007d96:	460d      	mov	r5, r1
 8007d98:	b976      	cbnz	r6, 8007db8 <_Balloc+0x28>
 8007d9a:	2010      	movs	r0, #16
 8007d9c:	f7ff ff42 	bl	8007c24 <malloc>
 8007da0:	4602      	mov	r2, r0
 8007da2:	61e0      	str	r0, [r4, #28]
 8007da4:	b920      	cbnz	r0, 8007db0 <_Balloc+0x20>
 8007da6:	4b18      	ldr	r3, [pc, #96]	@ (8007e08 <_Balloc+0x78>)
 8007da8:	4818      	ldr	r0, [pc, #96]	@ (8007e0c <_Balloc+0x7c>)
 8007daa:	216b      	movs	r1, #107	@ 0x6b
 8007dac:	f000 fdf4 	bl	8008998 <__assert_func>
 8007db0:	e9c0 6601 	strd	r6, r6, [r0, #4]
 8007db4:	6006      	str	r6, [r0, #0]
 8007db6:	60c6      	str	r6, [r0, #12]
 8007db8:	69e6      	ldr	r6, [r4, #28]
 8007dba:	68f3      	ldr	r3, [r6, #12]
 8007dbc:	b183      	cbz	r3, 8007de0 <_Balloc+0x50>
 8007dbe:	69e3      	ldr	r3, [r4, #28]
 8007dc0:	68db      	ldr	r3, [r3, #12]
 8007dc2:	f853 0025 	ldr.w	r0, [r3, r5, lsl #2]
 8007dc6:	b9b8      	cbnz	r0, 8007df8 <_Balloc+0x68>
 8007dc8:	2101      	movs	r1, #1
 8007dca:	fa01 f605 	lsl.w	r6, r1, r5
 8007dce:	1d72      	adds	r2, r6, #5
 8007dd0:	0092      	lsls	r2, r2, #2
 8007dd2:	4620      	mov	r0, r4
 8007dd4:	f000 fdfe 	bl	80089d4 <_calloc_r>
 8007dd8:	b160      	cbz	r0, 8007df4 <_Balloc+0x64>
 8007dda:	e9c0 5601 	strd	r5, r6, [r0, #4]
 8007dde:	e00e      	b.n	8007dfe <_Balloc+0x6e>
 8007de0:	2221      	movs	r2, #33	@ 0x21
 8007de2:	2104      	movs	r1, #4
 8007de4:	4620      	mov	r0, r4
 8007de6:	f000 fdf5 	bl	80089d4 <_calloc_r>
 8007dea:	69e3      	ldr	r3, [r4, #28]
 8007dec:	60f0      	str	r0, [r6, #12]
 8007dee:	68db      	ldr	r3, [r3, #12]
 8007df0:	2b00      	cmp	r3, #0
 8007df2:	d1e4      	bne.n	8007dbe <_Balloc+0x2e>
 8007df4:	2000      	movs	r0, #0
 8007df6:	bd70      	pop	{r4, r5, r6, pc}
 8007df8:	6802      	ldr	r2, [r0, #0]
 8007dfa:	f843 2025 	str.w	r2, [r3, r5, lsl #2]
 8007dfe:	2300      	movs	r3, #0
 8007e00:	e9c0 3303 	strd	r3, r3, [r0, #12]
 8007e04:	e7f7      	b.n	8007df6 <_Balloc+0x66>
 8007e06:	bf00      	nop
 8007e08:	08009735 	.word	0x08009735
 8007e0c:	080097b5 	.word	0x080097b5

08007e10 <_Bfree>:
 8007e10:	b570      	push	{r4, r5, r6, lr}
 8007e12:	69c6      	ldr	r6, [r0, #28]
 8007e14:	4605      	mov	r5, r0
 8007e16:	460c      	mov	r4, r1
 8007e18:	b976      	cbnz	r6, 8007e38 <_Bfree+0x28>
 8007e1a:	2010      	movs	r0, #16
 8007e1c:	f7ff ff02 	bl	8007c24 <malloc>
 8007e20:	4602      	mov	r2, r0
 8007e22:	61e8      	str	r0, [r5, #28]
 8007e24:	b920      	cbnz	r0, 8007e30 <_Bfree+0x20>
 8007e26:	4b09      	ldr	r3, [pc, #36]	@ (8007e4c <_Bfree+0x3c>)
 8007e28:	4809      	ldr	r0, [pc, #36]	@ (8007e50 <_Bfree+0x40>)
 8007e2a:	218f      	movs	r1, #143	@ 0x8f
 8007e2c:	f000 fdb4 	bl	8008998 <__assert_func>
 8007e30:	e9c0 6601 	strd	r6, r6, [r0, #4]
 8007e34:	6006      	str	r6, [r0, #0]
 8007e36:	60c6      	str	r6, [r0, #12]
 8007e38:	b13c      	cbz	r4, 8007e4a <_Bfree+0x3a>
 8007e3a:	69eb      	ldr	r3, [r5, #28]
 8007e3c:	6862      	ldr	r2, [r4, #4]
 8007e3e:	68db      	ldr	r3, [r3, #12]
 8007e40:	f853 1022 	ldr.w	r1, [r3, r2, lsl #2]
 8007e44:	6021      	str	r1, [r4, #0]
 8007e46:	f843 4022 	str.w	r4, [r3, r2, lsl #2]
 8007e4a:	bd70      	pop	{r4, r5, r6, pc}
 8007e4c:	08009735 	.word	0x08009735
 8007e50:	080097b5 	.word	0x080097b5

08007e54 <__multadd>:
 8007e54:	e92d 41f0 	stmdb	sp!, {r4, r5, r6, r7, r8, lr}
 8007e58:	690d      	ldr	r5, [r1, #16]
 8007e5a:	4607      	mov	r7, r0
 8007e5c:	460c      	mov	r4, r1
 8007e5e:	461e      	mov	r6, r3
 8007e60:	f101 0c14 	add.w	ip, r1, #20
 8007e64:	2000      	movs	r0, #0
 8007e66:	f8dc 3000 	ldr.w	r3, [ip]
 8007e6a:	b299      	uxth	r1, r3
 8007e6c:	fb02 6101 	mla	r1, r2, r1, r6
 8007e70:	0c1e      	lsrs	r6, r3, #16
 8007e72:	0c0b      	lsrs	r3, r1, #16
 8007e74:	fb02 3306 	mla	r3, r2, r6, r3
 8007e78:	b289      	uxth	r1, r1
 8007e7a:	3001      	adds	r0, #1
 8007e7c:	eb01 4103 	add.w	r1, r1, r3, lsl #16
 8007e80:	4285      	cmp	r5, r0
 8007e82:	f84c 1b04 	str.w	r1, [ip], #4
 8007e86:	ea4f 4613 	mov.w	r6, r3, lsr #16
 8007e8a:	dcec      	bgt.n	8007e66 <__multadd+0x12>
 8007e8c:	b30e      	cbz	r6, 8007ed2 <__multadd+0x7e>
 8007e8e:	68a3      	ldr	r3, [r4, #8]
 8007e90:	42ab      	cmp	r3, r5
 8007e92:	dc19      	bgt.n	8007ec8 <__multadd+0x74>
 8007e94:	6861      	ldr	r1, [r4, #4]
 8007e96:	4638      	mov	r0, r7
 8007e98:	3101      	adds	r1, #1
 8007e9a:	f7ff ff79 	bl	8007d90 <_Balloc>
 8007e9e:	4680      	mov	r8, r0
 8007ea0:	b928      	cbnz	r0, 8007eae <__multadd+0x5a>
 8007ea2:	4602      	mov	r2, r0
 8007ea4:	4b0c      	ldr	r3, [pc, #48]	@ (8007ed8 <__multadd+0x84>)
 8007ea6:	480d      	ldr	r0, [pc, #52]	@ (8007edc <__multadd+0x88>)
 8007ea8:	21ba      	movs	r1, #186	@ 0xba
 8007eaa:	f000 fd75 	bl	8008998 <__assert_func>
 8007eae:	6922      	ldr	r2, [r4, #16]
 8007eb0:	3202      	adds	r2, #2
 8007eb2:	f104 010c 	add.w	r1, r4, #12
 8007eb6:	0092      	lsls	r2, r2, #2
 8007eb8:	300c      	adds	r0, #12
 8007eba:	f7ff f80c 	bl	8006ed6 <memcpy>
 8007ebe:	4621      	mov	r1, r4
 8007ec0:	4638      	mov	r0, r7
 8007ec2:	f7ff ffa5 	bl	8007e10 <_Bfree>
 8007ec6:	4644      	mov	r4, r8
 8007ec8:	eb04 0385 	add.w	r3, r4, r5, lsl #2
 8007ecc:	3501      	adds	r5, #1
 8007ece:	615e      	str	r6, [r3, #20]
 8007ed0:	6125      	str	r5, [r4, #16]
 8007ed2:	4620      	mov	r0, r4
 8007ed4:	e8bd 81f0 	ldmia.w	sp!, {r4, r5, r6, r7, r8, pc}
 8007ed8:	080097a4 	.word	0x080097a4
 8007edc:	080097b5 	.word	0x080097b5

08007ee0 <__hi0bits>:
 8007ee0:	f5b0 3f80 	cmp.w	r0, #65536	@ 0x10000
 8007ee4:	4603      	mov	r3, r0
 8007ee6:	bf36      	itet	cc
 8007ee8:	0403      	lslcc	r3, r0, #16
 8007eea:	2000      	movcs	r0, #0
 8007eec:	2010      	movcc	r0, #16
 8007eee:	f1b3 7f80 	cmp.w	r3, #16777216	@ 0x1000000
 8007ef2:	bf3c      	itt	cc
 8007ef4:	021b      	lslcc	r3, r3, #8
 8007ef6:	3008      	addcc	r0, #8
 8007ef8:	f1b3 5f80 	cmp.w	r3, #268435456	@ 0x10000000
 8007efc:	bf3c      	itt	cc
 8007efe:	011b      	lslcc	r3, r3, #4
 8007f00:	3004      	addcc	r0, #4
 8007f02:	f1b3 4f80 	cmp.w	r3, #1073741824	@ 0x40000000
 8007f06:	bf3c      	itt	cc
 8007f08:	009b      	lslcc	r3, r3, #2
 8007f0a:	3002      	addcc	r0, #2
 8007f0c:	2b00      	cmp	r3, #0
 8007f0e:	db05      	blt.n	8007f1c <__hi0bits+0x3c>
 8007f10:	f013 4f80 	tst.w	r3, #1073741824	@ 0x40000000
 8007f14:	f100 0001 	add.w	r0, r0, #1
 8007f18:	bf08      	it	eq
 8007f1a:	2020      	moveq	r0, #32
 8007f1c:	4770      	bx	lr

08007f1e <__lo0bits>:
 8007f1e:	6803      	ldr	r3, [r0, #0]
 8007f20:	4602      	mov	r2, r0
 8007f22:	f013 0007 	ands.w	r0, r3, #7
 8007f26:	d00b      	beq.n	8007f40 <__lo0bits+0x22>
 8007f28:	07d9      	lsls	r1, r3, #31
 8007f2a:	d421      	bmi.n	8007f70 <__lo0bits+0x52>
 8007f2c:	0798      	lsls	r0, r3, #30
 8007f2e:	bf49      	itett	mi
 8007f30:	085b      	lsrmi	r3, r3, #1
 8007f32:	089b      	lsrpl	r3, r3, #2
 8007f34:	2001      	movmi	r0, #1
 8007f36:	6013      	strmi	r3, [r2, #0]
 8007f38:	bf5c      	itt	pl
 8007f3a:	6013      	strpl	r3, [r2, #0]
 8007f3c:	2002      	movpl	r0, #2
 8007f3e:	4770      	bx	lr
 8007f40:	b299      	uxth	r1, r3
 8007f42:	b909      	cbnz	r1, 8007f48 <__lo0bits+0x2a>
 8007f44:	0c1b      	lsrs	r3, r3, #16
 8007f46:	2010      	movs	r0, #16
 8007f48:	b2d9      	uxtb	r1, r3
 8007f4a:	b909      	cbnz	r1, 8007f50 <__lo0bits+0x32>
 8007f4c:	3008      	adds	r0, #8
 8007f4e:	0a1b      	lsrs	r3, r3, #8
 8007f50:	0719      	lsls	r1, r3, #28
 8007f52:	bf04      	itt	eq
 8007f54:	091b      	lsreq	r3, r3, #4
 8007f56:	3004      	addeq	r0, #4
 8007f58:	0799      	lsls	r1, r3, #30
 8007f5a:	bf04      	itt	eq
 8007f5c:	089b      	lsreq	r3, r3, #2
 8007f5e:	3002      	addeq	r0, #2
 8007f60:	07d9      	lsls	r1, r3, #31
 8007f62:	d403      	bmi.n	8007f6c <__lo0bits+0x4e>
 8007f64:	085b      	lsrs	r3, r3, #1
 8007f66:	f100 0001 	add.w	r0, r0, #1
 8007f6a:	d003      	beq.n	8007f74 <__lo0bits+0x56>
 8007f6c:	6013      	str	r3, [r2, #0]
 8007f6e:	4770      	bx	lr
 8007f70:	2000      	movs	r0, #0
 8007f72:	4770      	bx	lr
 8007f74:	2020      	movs	r0, #32
 8007f76:	4770      	bx	lr

08007f78 <__i2b>:
 8007f78:	b510      	push	{r4, lr}
 8007f7a:	460c      	mov	r4, r1
 8007f7c:	2101      	movs	r1, #1
 8007f7e:	f7ff ff07 	bl	8007d90 <_Balloc>
 8007f82:	4602      	mov	r2, r0
 8007f84:	b928      	cbnz	r0, 8007f92 <__i2b+0x1a>
 8007f86:	4b05      	ldr	r3, [pc, #20]	@ (8007f9c <__i2b+0x24>)
 8007f88:	4805      	ldr	r0, [pc, #20]	@ (8007fa0 <__i2b+0x28>)
 8007f8a:	f240 1145 	movw	r1, #325	@ 0x145
 8007f8e:	f000 fd03 	bl	8008998 <__assert_func>
 8007f92:	2301      	movs	r3, #1
 8007f94:	6144      	str	r4, [r0, #20]
 8007f96:	6103      	str	r3, [r0, #16]
 8007f98:	bd10      	pop	{r4, pc}
 8007f9a:	bf00      	nop
 8007f9c:	080097a4 	.word	0x080097a4
 8007fa0:	080097b5 	.word	0x080097b5

08007fa4 <__multiply>:
 8007fa4:	e92d 4ff0 	stmdb	sp!, {r4, r5, r6, r7, r8, r9, sl, fp, lr}
 8007fa8:	4614      	mov	r4, r2
 8007faa:	690a      	ldr	r2, [r1, #16]
 8007fac:	6923      	ldr	r3, [r4, #16]
 8007fae:	429a      	cmp	r2, r3
 8007fb0:	bfa8      	it	ge
 8007fb2:	4623      	movge	r3, r4
 8007fb4:	460f      	mov	r7, r1
 8007fb6:	bfa4      	itt	ge
 8007fb8:	460c      	movge	r4, r1
 8007fba:	461f      	movge	r7, r3
 8007fbc:	f8d4 a010 	ldr.w	sl, [r4, #16]
 8007fc0:	f8d7 9010 	ldr.w	r9, [r7, #16]
 8007fc4:	68a3      	ldr	r3, [r4, #8]
 8007fc6:	6861      	ldr	r1, [r4, #4]
 8007fc8:	eb0a 0609 	add.w	r6, sl, r9
 8007fcc:	42b3      	cmp	r3, r6
 8007fce:	b085      	sub	sp, #20
 8007fd0:	bfb8      	it	lt
 8007fd2:	3101      	addlt	r1, #1
 8007fd4:	f7ff fedc 	bl	8007d90 <_Balloc>
 8007fd8:	b930      	cbnz	r0, 8007fe8 <__multiply+0x44>
 8007fda:	4602      	mov	r2, r0
 8007fdc:	4b44      	ldr	r3, [pc, #272]	@ (80080f0 <__multiply+0x14c>)
 8007fde:	4845      	ldr	r0, [pc, #276]	@ (80080f4 <__multiply+0x150>)
 8007fe0:	f44f 71b1 	mov.w	r1, #354	@ 0x162
 8007fe4:	f000 fcd8 	bl	8008998 <__assert_func>
 8007fe8:	f100 0514 	add.w	r5, r0, #20
 8007fec:	eb05 0886 	add.w	r8, r5, r6, lsl #2
 8007ff0:	462b      	mov	r3, r5
 8007ff2:	2200      	movs	r2, #0
 8007ff4:	4543      	cmp	r3, r8
 8007ff6:	d321      	bcc.n	800803c <__multiply+0x98>
 8007ff8:	f107 0114 	add.w	r1, r7, #20
 8007ffc:	f104 0214 	add.w	r2, r4, #20
 8008000:	eb02 028a 	add.w	r2, r2, sl, lsl #2
 8008004:	eb01 0389 	add.w	r3, r1, r9, lsl #2
 8008008:	9302      	str	r3, [sp, #8]
 800800a:	1b13      	subs	r3, r2, r4
 800800c:	3b15      	subs	r3, #21
 800800e:	f023 0303 	bic.w	r3, r3, #3
 8008012:	3304      	adds	r3, #4
 8008014:	f104 0715 	add.w	r7, r4, #21
 8008018:	42ba      	cmp	r2, r7
 800801a:	bf38      	it	cc
 800801c:	2304      	movcc	r3, #4
 800801e:	9301      	str	r3, [sp, #4]
 8008020:	9b02      	ldr	r3, [sp, #8]
 8008022:	9103      	str	r1, [sp, #12]
 8008024:	428b      	cmp	r3, r1
 8008026:	d80c      	bhi.n	8008042 <__multiply+0x9e>
 8008028:	2e00      	cmp	r6, #0
 800802a:	dd03      	ble.n	8008034 <__multiply+0x90>
 800802c:	f858 3d04 	ldr.w	r3, [r8, #-4]!
 8008030:	2b00      	cmp	r3, #0
 8008032:	d05b      	beq.n	80080ec <__multiply+0x148>
 8008034:	6106      	str	r6, [r0, #16]
 8008036:	b005      	add	sp, #20
 8008038:	e8bd 8ff0 	ldmia.w	sp!, {r4, r5, r6, r7, r8, r9, sl, fp, pc}
 800803c:	f843 2b04 	str.w	r2, [r3], #4
 8008040:	e7d8      	b.n	8007ff4 <__multiply+0x50>
 8008042:	f8b1 a000 	ldrh.w	sl, [r1]
 8008046:	f1ba 0f00 	cmp.w	sl, #0
 800804a:	d024      	beq.n	8008096 <__multiply+0xf2>
 800804c:	f104 0e14 	add.w	lr, r4, #20
 8008050:	46a9      	mov	r9, r5
 8008052:	f04f 0c00 	mov.w	ip, #0
 8008056:	f85e 7b04 	ldr.w	r7, [lr], #4
 800805a:	f8d9 3000 	ldr.w	r3, [r9]
 800805e:	fa1f fb87 	uxth.w	fp, r7
 8008062:	b29b      	uxth	r3, r3
 8008064:	fb0a 330b 	mla	r3, sl, fp, r3
 8008068:	ea4f 4b17 	mov.w	fp, r7, lsr #16
 800806c:	f8d9 7000 	ldr.w	r7, [r9]
 8008070:	4463      	add	r3, ip
 8008072:	ea4f 4c17 	mov.w	ip, r7, lsr #16
 8008076:	fb0a c70b 	mla	r7, sl, fp, ip
 800807a:	eb07 4713 	add.w	r7, r7, r3, lsr #16
 800807e:	b29b      	uxth	r3, r3
 8008080:	ea43 4307 	orr.w	r3, r3, r7, lsl #16
 8008084:	4572      	cmp	r2, lr
 8008086:	f849 3b04 	str.w	r3, [r9], #4
 800808a:	ea4f 4c17 	mov.w	ip, r7, lsr #16
 800808e:	d8e2      	bhi.n	8008056 <__multiply+0xb2>
 8008090:	9b01      	ldr	r3, [sp, #4]
 8008092:	f845 c003 	str.w	ip, [r5, r3]
 8008096:	9b03      	ldr	r3, [sp, #12]
 8008098:	f8b3 9002 	ldrh.w	r9, [r3, #2]
 800809c:	3104      	adds	r1, #4
 800809e:	f1b9 0f00 	cmp.w	r9, #0
 80080a2:	d021      	beq.n	80080e8 <__multiply+0x144>
 80080a4:	682b      	ldr	r3, [r5, #0]
 80080a6:	f104 0c14 	add.w	ip, r4, #20
 80080aa:	46ae      	mov	lr, r5
 80080ac:	f04f 0a00 	mov.w	sl, #0
 80080b0:	f8bc b000 	ldrh.w	fp, [ip]
 80080b4:	f8be 7002 	ldrh.w	r7, [lr, #2]
 80080b8:	fb09 770b 	mla	r7, r9, fp, r7
 80080bc:	4457      	add	r7, sl
 80080be:	b29b      	uxth	r3, r3
 80080c0:	ea43 4307 	orr.w	r3, r3, r7, lsl #16
 80080c4:	f84e 3b04 	str.w	r3, [lr], #4
 80080c8:	f85c 3b04 	ldr.w	r3, [ip], #4
 80080cc:	ea4f 4a13 	mov.w	sl, r3, lsr #16
 80080d0:	f8be 3000 	ldrh.w	r3, [lr]
 80080d4:	fb09 330a 	mla	r3, r9, sl, r3
 80080d8:	eb03 4317 	add.w	r3, r3, r7, lsr #16
 80080dc:	4562      	cmp	r2, ip
 80080de:	ea4f 4a13 	mov.w	sl, r3, lsr #16
 80080e2:	d8e5      	bhi.n	80080b0 <__multiply+0x10c>
 80080e4:	9f01      	ldr	r7, [sp, #4]
 80080e6:	51eb      	str	r3, [r5, r7]
 80080e8:	3504      	adds	r5, #4
 80080ea:	e799      	b.n	8008020 <__multiply+0x7c>
 80080ec:	3e01      	subs	r6, #1
 80080ee:	e79b      	b.n	8008028 <__multiply+0x84>
 80080f0:	080097a4 	.word	0x080097a4
 80080f4:	080097b5 	.word	0x080097b5

080080f8 <__pow5mult>:
 80080f8:	e92d 43f8 	stmdb	sp!, {r3, r4, r5, r6, r7, r8, r9, lr}
 80080fc:	4615      	mov	r5, r2
 80080fe:	f012 0203 	ands.w	r2, r2, #3
 8008102:	4607      	mov	r7, r0
 8008104:	460e      	mov	r6, r1
 8008106:	d007      	beq.n	8008118 <__pow5mult+0x20>
 8008108:	4c25      	ldr	r4, [pc, #148]	@ (80081a0 <__pow5mult+0xa8>)
 800810a:	3a01      	subs	r2, #1
 800810c:	2300      	movs	r3, #0
 800810e:	f854 2022 	ldr.w	r2, [r4, r2, lsl #2]
 8008112:	f7ff fe9f 	bl	8007e54 <__multadd>
 8008116:	4606      	mov	r6, r0
 8008118:	10ad      	asrs	r5, r5, #2
 800811a:	d03d      	beq.n	8008198 <__pow5mult+0xa0>
 800811c:	69fc      	ldr	r4, [r7, #28]
 800811e:	b97c      	cbnz	r4, 8008140 <__pow5mult+0x48>
 8008120:	2010      	movs	r0, #16
 8008122:	f7ff fd7f 	bl	8007c24 <malloc>
 8008126:	4602      	mov	r2, r0
 8008128:	61f8      	str	r0, [r7, #28]
 800812a:	b928      	cbnz	r0, 8008138 <__pow5mult+0x40>
 800812c:	4b1d      	ldr	r3, [pc, #116]	@ (80081a4 <__pow5mult+0xac>)
 800812e:	481e      	ldr	r0, [pc, #120]	@ (80081a8 <__pow5mult+0xb0>)
 8008130:	f240 11b3 	movw	r1, #435	@ 0x1b3
 8008134:	f000 fc30 	bl	8008998 <__assert_func>
 8008138:	e9c0 4401 	strd	r4, r4, [r0, #4]
 800813c:	6004      	str	r4, [r0, #0]
 800813e:	60c4      	str	r4, [r0, #12]
 8008140:	f8d7 801c 	ldr.w	r8, [r7, #28]
 8008144:	f8d8 4008 	ldr.w	r4, [r8, #8]
 8008148:	b94c      	cbnz	r4, 800815e <__pow5mult+0x66>
 800814a:	f240 2171 	movw	r1, #625	@ 0x271
 800814e:	4638      	mov	r0, r7
 8008150:	f7ff ff12 	bl	8007f78 <__i2b>
 8008154:	2300      	movs	r3, #0
 8008156:	f8c8 0008 	str.w	r0, [r8, #8]
 800815a:	4604      	mov	r4, r0
 800815c:	6003      	str	r3, [r0, #0]
 800815e:	f04f 0900 	mov.w	r9, #0
 8008162:	07eb      	lsls	r3, r5, #31
 8008164:	d50a      	bpl.n	800817c <__pow5mult+0x84>
 8008166:	4631      	mov	r1, r6
 8008168:	4622      	mov	r2, r4
 800816a:	4638      	mov	r0, r7
 800816c:	f7ff ff1a 	bl	8007fa4 <__multiply>
 8008170:	4631      	mov	r1, r6
 8008172:	4680      	mov	r8, r0
 8008174:	4638      	mov	r0, r7
 8008176:	f7ff fe4b 	bl	8007e10 <_Bfree>
 800817a:	4646      	mov	r6, r8
 800817c:	106d      	asrs	r5, r5, #1
 800817e:	d00b      	beq.n	8008198 <__pow5mult+0xa0>
 8008180:	6820      	ldr	r0, [r4, #0]
 8008182:	b938      	cbnz	r0, 8008194 <__pow5mult+0x9c>
 8008184:	4622      	mov	r2, r4
 8008186:	4621      	mov	r1, r4
 8008188:	4638      	mov	r0, r7
 800818a:	f7ff ff0b 	bl	8007fa4 <__multiply>
 800818e:	6020      	str	r0, [r4, #0]
 8008190:	f8c0 9000 	str.w	r9, [r0]
 8008194:	4604      	mov	r4, r0
 8008196:	e7e4      	b.n	8008162 <__pow5mult+0x6a>
 8008198:	4630      	mov	r0, r6
 800819a:	e8bd 83f8 	ldmia.w	sp!, {r3, r4, r5, r6, r7, r8, r9, pc}
 800819e:	bf00      	nop
 80081a0:	08009810 	.word	0x08009810
 80081a4:	08009735 	.word	0x08009735
 80081a8:	080097b5 	.word	0x080097b5

080081ac <__lshift>:
 80081ac:	e92d 47f0 	stmdb	sp!, {r4, r5, r6, r7, r8, r9, sl, lr}
 80081b0:	460c      	mov	r4, r1
 80081b2:	6849      	ldr	r1, [r1, #4]
 80081b4:	6923      	ldr	r3, [r4, #16]
 80081b6:	eb03 1862 	add.w	r8, r3, r2, asr #5
 80081ba:	68a3      	ldr	r3, [r4, #8]
 80081bc:	4607      	mov	r7, r0
 80081be:	4691      	mov	r9, r2
 80081c0:	ea4f 1a62 	mov.w	sl, r2, asr #5
 80081c4:	f108 0601 	add.w	r6, r8, #1
 80081c8:	42b3      	cmp	r3, r6
 80081ca:	db0b      	blt.n	80081e4 <__lshift+0x38>
 80081cc:	4638      	mov	r0, r7
 80081ce:	f7ff fddf 	bl	8007d90 <_Balloc>
 80081d2:	4605      	mov	r5, r0
 80081d4:	b948      	cbnz	r0, 80081ea <__lshift+0x3e>
 80081d6:	4602      	mov	r2, r0
 80081d8:	4b28      	ldr	r3, [pc, #160]	@ (800827c <__lshift+0xd0>)
 80081da:	4829      	ldr	r0, [pc, #164]	@ (8008280 <__lshift+0xd4>)
 80081dc:	f44f 71ef 	mov.w	r1, #478	@ 0x1de
 80081e0:	f000 fbda 	bl	8008998 <__assert_func>
 80081e4:	3101      	adds	r1, #1
 80081e6:	005b      	lsls	r3, r3, #1
 80081e8:	e7ee      	b.n	80081c8 <__lshift+0x1c>
 80081ea:	2300      	movs	r3, #0
 80081ec:	f100 0114 	add.w	r1, r0, #20
 80081f0:	f100 0210 	add.w	r2, r0, #16
 80081f4:	4618      	mov	r0, r3
 80081f6:	4553      	cmp	r3, sl
 80081f8:	db33      	blt.n	8008262 <__lshift+0xb6>
 80081fa:	6920      	ldr	r0, [r4, #16]
 80081fc:	ea2a 7aea 	bic.w	sl, sl, sl, asr #31
 8008200:	f104 0314 	add.w	r3, r4, #20
 8008204:	f019 091f 	ands.w	r9, r9, #31
 8008208:	eb01 018a 	add.w	r1, r1, sl, lsl #2
 800820c:	eb03 0c80 	add.w	ip, r3, r0, lsl #2
 8008210:	d02b      	beq.n	800826a <__lshift+0xbe>
 8008212:	f1c9 0e20 	rsb	lr, r9, #32
 8008216:	468a      	mov	sl, r1
 8008218:	2200      	movs	r2, #0
 800821a:	6818      	ldr	r0, [r3, #0]
 800821c:	fa00 f009 	lsl.w	r0, r0, r9
 8008220:	4310      	orrs	r0, r2
 8008222:	f84a 0b04 	str.w	r0, [sl], #4
 8008226:	f853 2b04 	ldr.w	r2, [r3], #4
 800822a:	459c      	cmp	ip, r3
 800822c:	fa22 f20e 	lsr.w	r2, r2, lr
 8008230:	d8f3      	bhi.n	800821a <__lshift+0x6e>
 8008232:	ebac 0304 	sub.w	r3, ip, r4
 8008236:	3b15      	subs	r3, #21
 8008238:	f023 0303 	bic.w	r3, r3, #3
 800823c:	3304      	adds	r3, #4
 800823e:	f104 0015 	add.w	r0, r4, #21
 8008242:	4584      	cmp	ip, r0
 8008244:	bf38      	it	cc
 8008246:	2304      	movcc	r3, #4
 8008248:	50ca      	str	r2, [r1, r3]
 800824a:	b10a      	cbz	r2, 8008250 <__lshift+0xa4>
 800824c:	f108 0602 	add.w	r6, r8, #2
 8008250:	3e01      	subs	r6, #1
 8008252:	4638      	mov	r0, r7
 8008254:	612e      	str	r6, [r5, #16]
 8008256:	4621      	mov	r1, r4
 8008258:	f7ff fdda 	bl	8007e10 <_Bfree>
 800825c:	4628      	mov	r0, r5
 800825e:	e8bd 87f0 	ldmia.w	sp!, {r4, r5, r6, r7, r8, r9, sl, pc}
 8008262:	f842 0f04 	str.w	r0, [r2, #4]!
 8008266:	3301      	adds	r3, #1
 8008268:	e7c5      	b.n	80081f6 <__lshift+0x4a>
 800826a:	3904      	subs	r1, #4
 800826c:	f853 2b04 	ldr.w	r2, [r3], #4
 8008270:	f841 2f04 	str.w	r2, [r1, #4]!
 8008274:	459c      	cmp	ip, r3
 8008276:	d8f9      	bhi.n	800826c <__lshift+0xc0>
 8008278:	e7ea      	b.n	8008250 <__lshift+0xa4>
 800827a:	bf00      	nop
 800827c:	080097a4 	.word	0x080097a4
 8008280:	080097b5 	.word	0x080097b5

08008284 <__mcmp>:
 8008284:	690a      	ldr	r2, [r1, #16]
 8008286:	4603      	mov	r3, r0
 8008288:	6900      	ldr	r0, [r0, #16]
 800828a:	1a80      	subs	r0, r0, r2
 800828c:	b530      	push	{r4, r5, lr}
 800828e:	d10e      	bne.n	80082ae <__mcmp+0x2a>
 8008290:	3314      	adds	r3, #20
 8008292:	3114      	adds	r1, #20
 8008294:	eb03 0482 	add.w	r4, r3, r2, lsl #2
 8008298:	eb01 0182 	add.w	r1, r1, r2, lsl #2
 800829c:	f854 5d04 	ldr.w	r5, [r4, #-4]!
 80082a0:	f851 2d04 	ldr.w	r2, [r1, #-4]!
 80082a4:	4295      	cmp	r5, r2
 80082a6:	d003      	beq.n	80082b0 <__mcmp+0x2c>
 80082a8:	d205      	bcs.n	80082b6 <__mcmp+0x32>
 80082aa:	f04f 30ff 	mov.w	r0, #4294967295	@ 0xffffffff
 80082ae:	bd30      	pop	{r4, r5, pc}
 80082b0:	42a3      	cmp	r3, r4
 80082b2:	d3f3      	bcc.n	800829c <__mcmp+0x18>
 80082b4:	e7fb      	b.n	80082ae <__mcmp+0x2a>
 80082b6:	2001      	movs	r0, #1
 80082b8:	e7f9      	b.n	80082ae <__mcmp+0x2a>
	...

080082bc <__mdiff>:
 80082bc:	e92d 4ff7 	stmdb	sp!, {r0, r1, r2, r4, r5, r6, r7, r8, r9, sl, fp, lr}
 80082c0:	4689      	mov	r9, r1
 80082c2:	4606      	mov	r6, r0
 80082c4:	4611      	mov	r1, r2
 80082c6:	4648      	mov	r0, r9
 80082c8:	4614      	mov	r4, r2
 80082ca:	f7ff ffdb 	bl	8008284 <__mcmp>
 80082ce:	1e05      	subs	r5, r0, #0
 80082d0:	d112      	bne.n	80082f8 <__mdiff+0x3c>
 80082d2:	4629      	mov	r1, r5
 80082d4:	4630      	mov	r0, r6
 80082d6:	f7ff fd5b 	bl	8007d90 <_Balloc>
 80082da:	4602      	mov	r2, r0
 80082dc:	b928      	cbnz	r0, 80082ea <__mdiff+0x2e>
 80082de:	4b3f      	ldr	r3, [pc, #252]	@ (80083dc <__mdiff+0x120>)
 80082e0:	f240 2137 	movw	r1, #567	@ 0x237
 80082e4:	483e      	ldr	r0, [pc, #248]	@ (80083e0 <__mdiff+0x124>)
 80082e6:	f000 fb57 	bl	8008998 <__assert_func>
 80082ea:	2301      	movs	r3, #1
 80082ec:	e9c0 3504 	strd	r3, r5, [r0, #16]
 80082f0:	4610      	mov	r0, r2
 80082f2:	b003      	add	sp, #12
 80082f4:	e8bd 8ff0 	ldmia.w	sp!, {r4, r5, r6, r7, r8, r9, sl, fp, pc}
 80082f8:	bfbc      	itt	lt
 80082fa:	464b      	movlt	r3, r9
 80082fc:	46a1      	movlt	r9, r4
 80082fe:	4630      	mov	r0, r6
 8008300:	f8d9 1004 	ldr.w	r1, [r9, #4]
 8008304:	bfba      	itte	lt
 8008306:	461c      	movlt	r4, r3
 8008308:	2501      	movlt	r5, #1
 800830a:	2500      	movge	r5, #0
 800830c:	f7ff fd40 	bl	8007d90 <_Balloc>
 8008310:	4602      	mov	r2, r0
 8008312:	b918      	cbnz	r0, 800831c <__mdiff+0x60>
 8008314:	4b31      	ldr	r3, [pc, #196]	@ (80083dc <__mdiff+0x120>)
 8008316:	f240 2145 	movw	r1, #581	@ 0x245
 800831a:	e7e3      	b.n	80082e4 <__mdiff+0x28>
 800831c:	f8d9 7010 	ldr.w	r7, [r9, #16]
 8008320:	6926      	ldr	r6, [r4, #16]
 8008322:	60c5      	str	r5, [r0, #12]
 8008324:	f109 0310 	add.w	r3, r9, #16
 8008328:	f109 0514 	add.w	r5, r9, #20
 800832c:	f104 0e14 	add.w	lr, r4, #20
 8008330:	f100 0b14 	add.w	fp, r0, #20
 8008334:	eb05 0887 	add.w	r8, r5, r7, lsl #2
 8008338:	eb0e 0686 	add.w	r6, lr, r6, lsl #2
 800833c:	9301      	str	r3, [sp, #4]
 800833e:	46d9      	mov	r9, fp
 8008340:	f04f 0c00 	mov.w	ip, #0
 8008344:	9b01      	ldr	r3, [sp, #4]
 8008346:	f85e 0b04 	ldr.w	r0, [lr], #4
 800834a:	f853 af04 	ldr.w	sl, [r3, #4]!
 800834e:	9301      	str	r3, [sp, #4]
 8008350:	fa1f f38a 	uxth.w	r3, sl
 8008354:	4619      	mov	r1, r3
 8008356:	b283      	uxth	r3, r0
 8008358:	1acb      	subs	r3, r1, r3
 800835a:	0c00      	lsrs	r0, r0, #16
 800835c:	4463      	add	r3, ip
 800835e:	ebc0 401a 	rsb	r0, r0, sl, lsr #16
 8008362:	eb00 4023 	add.w	r0, r0, r3, asr #16
 8008366:	b29b      	uxth	r3, r3
 8008368:	ea43 4300 	orr.w	r3, r3, r0, lsl #16
 800836c:	4576      	cmp	r6, lr
 800836e:	f849 3b04 	str.w	r3, [r9], #4
 8008372:	ea4f 4c20 	mov.w	ip, r0, asr #16
 8008376:	d8e5      	bhi.n	8008344 <__mdiff+0x88>
 8008378:	1b33      	subs	r3, r6, r4
 800837a:	3b15      	subs	r3, #21
 800837c:	f023 0303 	bic.w	r3, r3, #3
 8008380:	3415      	adds	r4, #21
 8008382:	3304      	adds	r3, #4
 8008384:	42a6      	cmp	r6, r4
 8008386:	bf38      	it	cc
 8008388:	2304      	movcc	r3, #4
 800838a:	441d      	add	r5, r3
 800838c:	445b      	add	r3, fp
 800838e:	461e      	mov	r6, r3
 8008390:	462c      	mov	r4, r5
 8008392:	4544      	cmp	r4, r8
 8008394:	d30e      	bcc.n	80083b4 <__mdiff+0xf8>
 8008396:	f108 0103 	add.w	r1, r8, #3
 800839a:	1b49      	subs	r1, r1, r5
 800839c:	f021 0103 	bic.w	r1, r1, #3
 80083a0:	3d03      	subs	r5, #3
 80083a2:	45a8      	cmp	r8, r5
 80083a4:	bf38      	it	cc
 80083a6:	2100      	movcc	r1, #0
 80083a8:	440b      	add	r3, r1
 80083aa:	f853 1d04 	ldr.w	r1, [r3, #-4]!
 80083ae:	b191      	cbz	r1, 80083d6 <__mdiff+0x11a>
 80083b0:	6117      	str	r7, [r2, #16]
 80083b2:	e79d      	b.n	80082f0 <__mdiff+0x34>
 80083b4:	f854 1b04 	ldr.w	r1, [r4], #4
 80083b8:	46e6      	mov	lr, ip
 80083ba:	0c08      	lsrs	r0, r1, #16
 80083bc:	fa1c fc81 	uxtah	ip, ip, r1
 80083c0:	4471      	add	r1, lr
 80083c2:	eb00 402c 	add.w	r0, r0, ip, asr #16
 80083c6:	b289      	uxth	r1, r1
 80083c8:	ea41 4100 	orr.w	r1, r1, r0, lsl #16
 80083cc:	f846 1b04 	str.w	r1, [r6], #4
 80083d0:	ea4f 4c20 	mov.w	ip, r0, asr #16
 80083d4:	e7dd      	b.n	8008392 <__mdiff+0xd6>
 80083d6:	3f01      	subs	r7, #1
 80083d8:	e7e7      	b.n	80083aa <__mdiff+0xee>
 80083da:	bf00      	nop
 80083dc:	080097a4 	.word	0x080097a4
 80083e0:	080097b5 	.word	0x080097b5

080083e4 <__d2b>:
 80083e4:	e92d 43f7 	stmdb	sp!, {r0, r1, r2, r4, r5, r6, r7, r8, r9, lr}
 80083e8:	460f      	mov	r7, r1
 80083ea:	2101      	movs	r1, #1
 80083ec:	ec59 8b10 	vmov	r8, r9, d0
 80083f0:	4616      	mov	r6, r2
 80083f2:	f7ff fccd 	bl	8007d90 <_Balloc>
 80083f6:	4604      	mov	r4, r0
 80083f8:	b930      	cbnz	r0, 8008408 <__d2b+0x24>
 80083fa:	4602      	mov	r2, r0
 80083fc:	4b23      	ldr	r3, [pc, #140]	@ (800848c <__d2b+0xa8>)
 80083fe:	4824      	ldr	r0, [pc, #144]	@ (8008490 <__d2b+0xac>)
 8008400:	f240 310f 	movw	r1, #783	@ 0x30f
 8008404:	f000 fac8 	bl	8008998 <__assert_func>
 8008408:	f3c9 550a 	ubfx	r5, r9, #20, #11
 800840c:	f3c9 0313 	ubfx	r3, r9, #0, #20
 8008410:	b10d      	cbz	r5, 8008416 <__d2b+0x32>
 8008412:	f443 1380 	orr.w	r3, r3, #1048576	@ 0x100000
 8008416:	9301      	str	r3, [sp, #4]
 8008418:	f1b8 0300 	subs.w	r3, r8, #0
 800841c:	d023      	beq.n	8008466 <__d2b+0x82>
 800841e:	4668      	mov	r0, sp
 8008420:	9300      	str	r3, [sp, #0]
 8008422:	f7ff fd7c 	bl	8007f1e <__lo0bits>
 8008426:	e9dd 1200 	ldrd	r1, r2, [sp]
 800842a:	b1d0      	cbz	r0, 8008462 <__d2b+0x7e>
 800842c:	f1c0 0320 	rsb	r3, r0, #32
 8008430:	fa02 f303 	lsl.w	r3, r2, r3
 8008434:	430b      	orrs	r3, r1
 8008436:	40c2      	lsrs	r2, r0
 8008438:	6163      	str	r3, [r4, #20]
 800843a:	9201      	str	r2, [sp, #4]
 800843c:	9b01      	ldr	r3, [sp, #4]
 800843e:	61a3      	str	r3, [r4, #24]
 8008440:	2b00      	cmp	r3, #0
 8008442:	bf0c      	ite	eq
 8008444:	2201      	moveq	r2, #1
 8008446:	2202      	movne	r2, #2
 8008448:	6122      	str	r2, [r4, #16]
 800844a:	b1a5      	cbz	r5, 8008476 <__d2b+0x92>
 800844c:	f2a5 4533 	subw	r5, r5, #1075	@ 0x433
 8008450:	4405      	add	r5, r0
 8008452:	603d      	str	r5, [r7, #0]
 8008454:	f1c0 0035 	rsb	r0, r0, #53	@ 0x35
 8008458:	6030      	str	r0, [r6, #0]
 800845a:	4620      	mov	r0, r4
 800845c:	b003      	add	sp, #12
 800845e:	e8bd 83f0 	ldmia.w	sp!, {r4, r5, r6, r7, r8, r9, pc}
 8008462:	6161      	str	r1, [r4, #20]
 8008464:	e7ea      	b.n	800843c <__d2b+0x58>
 8008466:	a801      	add	r0, sp, #4
 8008468:	f7ff fd59 	bl	8007f1e <__lo0bits>
 800846c:	9b01      	ldr	r3, [sp, #4]
 800846e:	6163      	str	r3, [r4, #20]
 8008470:	3020      	adds	r0, #32
 8008472:	2201      	movs	r2, #1
 8008474:	e7e8      	b.n	8008448 <__d2b+0x64>
 8008476:	eb04 0382 	add.w	r3, r4, r2, lsl #2
 800847a:	f2a0 4032 	subw	r0, r0, #1074	@ 0x432
 800847e:	6038      	str	r0, [r7, #0]
 8008480:	6918      	ldr	r0, [r3, #16]
 8008482:	f7ff fd2d 	bl	8007ee0 <__hi0bits>
 8008486:	ebc0 1042 	rsb	r0, r0, r2, lsl #5
 800848a:	e7e5      	b.n	8008458 <__d2b+0x74>
 800848c:	080097a4 	.word	0x080097a4
 8008490:	080097b5 	.word	0x080097b5

08008494 <__sfputc_r>:
 8008494:	6893      	ldr	r3, [r2, #8]
 8008496:	3b01      	subs	r3, #1
 8008498:	2b00      	cmp	r3, #0
 800849a:	b410      	push	{r4}
 800849c:	6093      	str	r3, [r2, #8]
 800849e:	da08      	bge.n	80084b2 <__sfputc_r+0x1e>
 80084a0:	6994      	ldr	r4, [r2, #24]
 80084a2:	42a3      	cmp	r3, r4
 80084a4:	db01      	blt.n	80084aa <__sfputc_r+0x16>
 80084a6:	290a      	cmp	r1, #10
 80084a8:	d103      	bne.n	80084b2 <__sfputc_r+0x1e>
 80084aa:	f85d 4b04 	ldr.w	r4, [sp], #4
 80084ae:	f7fe bba8 	b.w	8006c02 <__swbuf_r>
 80084b2:	6813      	ldr	r3, [r2, #0]
 80084b4:	1c58      	adds	r0, r3, #1
 80084b6:	6010      	str	r0, [r2, #0]
 80084b8:	7019      	strb	r1, [r3, #0]
 80084ba:	4608      	mov	r0, r1
 80084bc:	f85d 4b04 	ldr.w	r4, [sp], #4
 80084c0:	4770      	bx	lr

080084c2 <__sfputs_r>:
 80084c2:	b5f8      	push	{r3, r4, r5, r6, r7, lr}
 80084c4:	4606      	mov	r6, r0
 80084c6:	460f      	mov	r7, r1
 80084c8:	4614      	mov	r4, r2
 80084ca:	18d5      	adds	r5, r2, r3
 80084cc:	42ac      	cmp	r4, r5
 80084ce:	d101      	bne.n	80084d4 <__sfputs_r+0x12>
 80084d0:	2000      	movs	r0, #0
 80084d2:	e007      	b.n	80084e4 <__sfputs_r+0x22>
 80084d4:	f814 1b01 	ldrb.w	r1, [r4], #1
 80084d8:	463a      	mov	r2, r7
 80084da:	4630      	mov	r0, r6
 80084dc:	f7ff ffda 	bl	8008494 <__sfputc_r>
 80084e0:	1c43      	adds	r3, r0, #1
 80084e2:	d1f3      	bne.n	80084cc <__sfputs_r+0xa>
 80084e4:	bdf8      	pop	{r3, r4, r5, r6, r7, pc}
	...

080084e8 <_vfiprintf_r>:
 80084e8:	e92d 4ff0 	stmdb	sp!, {r4, r5, r6, r7, r8, r9, sl, fp, lr}
 80084ec:	460d      	mov	r5, r1
 80084ee:	b09d      	sub	sp, #116	@ 0x74
 80084f0:	4614      	mov	r4, r2
 80084f2:	4698      	mov	r8, r3
 80084f4:	4606      	mov	r6, r0
 80084f6:	b118      	cbz	r0, 8008500 <_vfiprintf_r+0x18>
 80084f8:	6a03      	ldr	r3, [r0, #32]
 80084fa:	b90b      	cbnz	r3, 8008500 <_vfiprintf_r+0x18>
 80084fc:	f7fe fa98 	bl	8006a30 <__sinit>
 8008500:	6e6b      	ldr	r3, [r5, #100]	@ 0x64
 8008502:	07d9      	lsls	r1, r3, #31
 8008504:	d405      	bmi.n	8008512 <_vfiprintf_r+0x2a>
 8008506:	89ab      	ldrh	r3, [r5, #12]
 8008508:	059a      	lsls	r2, r3, #22
 800850a:	d402      	bmi.n	8008512 <_vfiprintf_r+0x2a>
 800850c:	6da8      	ldr	r0, [r5, #88]	@ 0x58
 800850e:	f7fe fce0 	bl	8006ed2 <__retarget_lock_acquire_recursive>
 8008512:	89ab      	ldrh	r3, [r5, #12]
 8008514:	071b      	lsls	r3, r3, #28
 8008516:	d501      	bpl.n	800851c <_vfiprintf_r+0x34>
 8008518:	692b      	ldr	r3, [r5, #16]
 800851a:	b99b      	cbnz	r3, 8008544 <_vfiprintf_r+0x5c>
 800851c:	4629      	mov	r1, r5
 800851e:	4630      	mov	r0, r6
 8008520:	f7fe fbae 	bl	8006c80 <__swsetup_r>
 8008524:	b170      	cbz	r0, 8008544 <_vfiprintf_r+0x5c>
 8008526:	6e6b      	ldr	r3, [r5, #100]	@ 0x64
 8008528:	07dc      	lsls	r4, r3, #31
 800852a:	d504      	bpl.n	8008536 <_vfiprintf_r+0x4e>
 800852c:	f04f 30ff 	mov.w	r0, #4294967295	@ 0xffffffff
 8008530:	b01d      	add	sp, #116	@ 0x74
 8008532:	e8bd 8ff0 	ldmia.w	sp!, {r4, r5, r6, r7, r8, r9, sl, fp, pc}
 8008536:	89ab      	ldrh	r3, [r5, #12]
 8008538:	0598      	lsls	r0, r3, #22
 800853a:	d4f7      	bmi.n	800852c <_vfiprintf_r+0x44>
 800853c:	6da8      	ldr	r0, [r5, #88]	@ 0x58
 800853e:	f7fe fcc9 	bl	8006ed4 <__retarget_lock_release_recursive>
 8008542:	e7f3      	b.n	800852c <_vfiprintf_r+0x44>
 8008544:	2300      	movs	r3, #0
 8008546:	9309      	str	r3, [sp, #36]	@ 0x24
 8008548:	2320      	movs	r3, #32
 800854a:	f88d 3029 	strb.w	r3, [sp, #41]	@ 0x29
 800854e:	f8cd 800c 	str.w	r8, [sp, #12]
 8008552:	2330      	movs	r3, #48	@ 0x30
 8008554:	f8df 81ac 	ldr.w	r8, [pc, #428]	@ 8008704 <_vfiprintf_r+0x21c>
 8008558:	f88d 302a 	strb.w	r3, [sp, #42]	@ 0x2a
 800855c:	f04f 0901 	mov.w	r9, #1
 8008560:	4623      	mov	r3, r4
 8008562:	469a      	mov	sl, r3
 8008564:	f813 2b01 	ldrb.w	r2, [r3], #1
 8008568:	b10a      	cbz	r2, 800856e <_vfiprintf_r+0x86>
 800856a:	2a25      	cmp	r2, #37	@ 0x25
 800856c:	d1f9      	bne.n	8008562 <_vfiprintf_r+0x7a>
 800856e:	ebba 0b04 	subs.w	fp, sl, r4
 8008572:	d00b      	beq.n	800858c <_vfiprintf_r+0xa4>
 8008574:	465b      	mov	r3, fp
 8008576:	4622      	mov	r2, r4
 8008578:	4629      	mov	r1, r5
 800857a:	4630      	mov	r0, r6
 800857c:	f7ff ffa1 	bl	80084c2 <__sfputs_r>
 8008580:	3001      	adds	r0, #1
 8008582:	f000 80a7 	beq.w	80086d4 <_vfiprintf_r+0x1ec>
 8008586:	9a09      	ldr	r2, [sp, #36]	@ 0x24
 8008588:	445a      	add	r2, fp
 800858a:	9209      	str	r2, [sp, #36]	@ 0x24
 800858c:	f89a 3000 	ldrb.w	r3, [sl]
 8008590:	2b00      	cmp	r3, #0
 8008592:	f000 809f 	beq.w	80086d4 <_vfiprintf_r+0x1ec>
 8008596:	2300      	movs	r3, #0
 8008598:	f04f 32ff 	mov.w	r2, #4294967295	@ 0xffffffff
 800859c:	e9cd 2305 	strd	r2, r3, [sp, #20]
 80085a0:	f10a 0a01 	add.w	sl, sl, #1
 80085a4:	9304      	str	r3, [sp, #16]
 80085a6:	9307      	str	r3, [sp, #28]
 80085a8:	f88d 3053 	strb.w	r3, [sp, #83]	@ 0x53
 80085ac:	931a      	str	r3, [sp, #104]	@ 0x68
 80085ae:	4654      	mov	r4, sl
 80085b0:	2205      	movs	r2, #5
 80085b2:	f814 1b01 	ldrb.w	r1, [r4], #1
 80085b6:	4853      	ldr	r0, [pc, #332]	@ (8008704 <_vfiprintf_r+0x21c>)
 80085b8:	f7f7 fe0a 	bl	80001d0 <memchr>
 80085bc:	9a04      	ldr	r2, [sp, #16]
 80085be:	b9d8      	cbnz	r0, 80085f8 <_vfiprintf_r+0x110>
 80085c0:	06d1      	lsls	r1, r2, #27
 80085c2:	bf44      	itt	mi
 80085c4:	2320      	movmi	r3, #32
 80085c6:	f88d 3053 	strbmi.w	r3, [sp, #83]	@ 0x53
 80085ca:	0713      	lsls	r3, r2, #28
 80085cc:	bf44      	itt	mi
 80085ce:	232b      	movmi	r3, #43	@ 0x2b
 80085d0:	f88d 3053 	strbmi.w	r3, [sp, #83]	@ 0x53
 80085d4:	f89a 3000 	ldrb.w	r3, [sl]
 80085d8:	2b2a      	cmp	r3, #42	@ 0x2a
 80085da:	d015      	beq.n	8008608 <_vfiprintf_r+0x120>
 80085dc:	9a07      	ldr	r2, [sp, #28]
 80085de:	4654      	mov	r4, sl
 80085e0:	2000      	movs	r0, #0
 80085e2:	f04f 0c0a 	mov.w	ip, #10
 80085e6:	4621      	mov	r1, r4
 80085e8:	f811 3b01 	ldrb.w	r3, [r1], #1
 80085ec:	3b30      	subs	r3, #48	@ 0x30
 80085ee:	2b09      	cmp	r3, #9
 80085f0:	d94b      	bls.n	800868a <_vfiprintf_r+0x1a2>
 80085f2:	b1b0      	cbz	r0, 8008622 <_vfiprintf_r+0x13a>
 80085f4:	9207      	str	r2, [sp, #28]
 80085f6:	e014      	b.n	8008622 <_vfiprintf_r+0x13a>
 80085f8:	eba0 0308 	sub.w	r3, r0, r8
 80085fc:	fa09 f303 	lsl.w	r3, r9, r3
 8008600:	4313      	orrs	r3, r2
 8008602:	9304      	str	r3, [sp, #16]
 8008604:	46a2      	mov	sl, r4
 8008606:	e7d2      	b.n	80085ae <_vfiprintf_r+0xc6>
 8008608:	9b03      	ldr	r3, [sp, #12]
 800860a:	1d19      	adds	r1, r3, #4
 800860c:	681b      	ldr	r3, [r3, #0]
 800860e:	9103      	str	r1, [sp, #12]
 8008610:	2b00      	cmp	r3, #0
 8008612:	bfbb      	ittet	lt
 8008614:	425b      	neglt	r3, r3
 8008616:	f042 0202 	orrlt.w	r2, r2, #2
 800861a:	9307      	strge	r3, [sp, #28]
 800861c:	9307      	strlt	r3, [sp, #28]
 800861e:	bfb8      	it	lt
 8008620:	9204      	strlt	r2, [sp, #16]
 8008622:	7823      	ldrb	r3, [r4, #0]
 8008624:	2b2e      	cmp	r3, #46	@ 0x2e
 8008626:	d10a      	bne.n	800863e <_vfiprintf_r+0x156>
 8008628:	7863      	ldrb	r3, [r4, #1]
 800862a:	2b2a      	cmp	r3, #42	@ 0x2a
 800862c:	d132      	bne.n	8008694 <_vfiprintf_r+0x1ac>
 800862e:	9b03      	ldr	r3, [sp, #12]
 8008630:	1d1a      	adds	r2, r3, #4
 8008632:	681b      	ldr	r3, [r3, #0]
 8008634:	9203      	str	r2, [sp, #12]
 8008636:	ea43 73e3 	orr.w	r3, r3, r3, asr #31
 800863a:	3402      	adds	r4, #2
 800863c:	9305      	str	r3, [sp, #20]
 800863e:	f8df a0d4 	ldr.w	sl, [pc, #212]	@ 8008714 <_vfiprintf_r+0x22c>
 8008642:	7821      	ldrb	r1, [r4, #0]
 8008644:	2203      	movs	r2, #3
 8008646:	4650      	mov	r0, sl
 8008648:	f7f7 fdc2 	bl	80001d0 <memchr>
 800864c:	b138      	cbz	r0, 800865e <_vfiprintf_r+0x176>
 800864e:	9b04      	ldr	r3, [sp, #16]
 8008650:	eba0 000a 	sub.w	r0, r0, sl
 8008654:	2240      	movs	r2, #64	@ 0x40
 8008656:	4082      	lsls	r2, r0
 8008658:	4313      	orrs	r3, r2
 800865a:	3401      	adds	r4, #1
 800865c:	9304      	str	r3, [sp, #16]
 800865e:	f814 1b01 	ldrb.w	r1, [r4], #1
 8008662:	4829      	ldr	r0, [pc, #164]	@ (8008708 <_vfiprintf_r+0x220>)
 8008664:	f88d 1028 	strb.w	r1, [sp, #40]	@ 0x28
 8008668:	2206      	movs	r2, #6
 800866a:	f7f7 fdb1 	bl	80001d0 <memchr>
 800866e:	2800      	cmp	r0, #0
 8008670:	d03f      	beq.n	80086f2 <_vfiprintf_r+0x20a>
 8008672:	4b26      	ldr	r3, [pc, #152]	@ (800870c <_vfiprintf_r+0x224>)
 8008674:	bb1b      	cbnz	r3, 80086be <_vfiprintf_r+0x1d6>
 8008676:	9b03      	ldr	r3, [sp, #12]
 8008678:	3307      	adds	r3, #7
 800867a:	f023 0307 	bic.w	r3, r3, #7
 800867e:	3308      	adds	r3, #8
 8008680:	9303      	str	r3, [sp, #12]
 8008682:	9b09      	ldr	r3, [sp, #36]	@ 0x24
 8008684:	443b      	add	r3, r7
 8008686:	9309      	str	r3, [sp, #36]	@ 0x24
 8008688:	e76a      	b.n	8008560 <_vfiprintf_r+0x78>
 800868a:	fb0c 3202 	mla	r2, ip, r2, r3
 800868e:	460c      	mov	r4, r1
 8008690:	2001      	movs	r0, #1
 8008692:	e7a8      	b.n	80085e6 <_vfiprintf_r+0xfe>
 8008694:	2300      	movs	r3, #0
 8008696:	3401      	adds	r4, #1
 8008698:	9305      	str	r3, [sp, #20]
 800869a:	4619      	mov	r1, r3
 800869c:	f04f 0c0a 	mov.w	ip, #10
 80086a0:	4620      	mov	r0, r4
 80086a2:	f810 2b01 	ldrb.w	r2, [r0], #1
 80086a6:	3a30      	subs	r2, #48	@ 0x30
 80086a8:	2a09      	cmp	r2, #9
 80086aa:	d903      	bls.n	80086b4 <_vfiprintf_r+0x1cc>
 80086ac:	2b00      	cmp	r3, #0
 80086ae:	d0c6      	beq.n	800863e <_vfiprintf_r+0x156>
 80086b0:	9105      	str	r1, [sp, #20]
 80086b2:	e7c4      	b.n	800863e <_vfiprintf_r+0x156>
 80086b4:	fb0c 2101 	mla	r1, ip, r1, r2
 80086b8:	4604      	mov	r4, r0
 80086ba:	2301      	movs	r3, #1
 80086bc:	e7f0      	b.n	80086a0 <_vfiprintf_r+0x1b8>
 80086be:	ab03      	add	r3, sp, #12
 80086c0:	9300      	str	r3, [sp, #0]
 80086c2:	462a      	mov	r2, r5
 80086c4:	4b12      	ldr	r3, [pc, #72]	@ (8008710 <_vfiprintf_r+0x228>)
 80086c6:	a904      	add	r1, sp, #16
 80086c8:	4630      	mov	r0, r6
 80086ca:	f7fd fd6d 	bl	80061a8 <_printf_float>
 80086ce:	4607      	mov	r7, r0
 80086d0:	1c78      	adds	r0, r7, #1
 80086d2:	d1d6      	bne.n	8008682 <_vfiprintf_r+0x19a>
 80086d4:	6e6b      	ldr	r3, [r5, #100]	@ 0x64
 80086d6:	07d9      	lsls	r1, r3, #31
 80086d8:	d405      	bmi.n	80086e6 <_vfiprintf_r+0x1fe>
 80086da:	89ab      	ldrh	r3, [r5, #12]
 80086dc:	059a      	lsls	r2, r3, #22
 80086de:	d402      	bmi.n	80086e6 <_vfiprintf_r+0x1fe>
 80086e0:	6da8      	ldr	r0, [r5, #88]	@ 0x58
 80086e2:	f7fe fbf7 	bl	8006ed4 <__retarget_lock_release_recursive>
 80086e6:	89ab      	ldrh	r3, [r5, #12]
 80086e8:	065b      	lsls	r3, r3, #25
 80086ea:	f53f af1f 	bmi.w	800852c <_vfiprintf_r+0x44>
 80086ee:	9809      	ldr	r0, [sp, #36]	@ 0x24
 80086f0:	e71e      	b.n	8008530 <_vfiprintf_r+0x48>
 80086f2:	ab03      	add	r3, sp, #12
 80086f4:	9300      	str	r3, [sp, #0]
 80086f6:	462a      	mov	r2, r5
 80086f8:	4b05      	ldr	r3, [pc, #20]	@ (8008710 <_vfiprintf_r+0x228>)
 80086fa:	a904      	add	r1, sp, #16
 80086fc:	4630      	mov	r0, r6
 80086fe:	f7fd ffeb 	bl	80066d8 <_printf_i>
 8008702:	e7e4      	b.n	80086ce <_vfiprintf_r+0x1e6>
 8008704:	08009910 	.word	0x08009910
 8008708:	0800991a 	.word	0x0800991a
 800870c:	080061a9 	.word	0x080061a9
 8008710:	080084c3 	.word	0x080084c3
 8008714:	08009916 	.word	0x08009916

08008718 <__sflush_r>:
 8008718:	f9b1 200c 	ldrsh.w	r2, [r1, #12]
 800871c:	e92d 41f0 	stmdb	sp!, {r4, r5, r6, r7, r8, lr}
 8008720:	0716      	lsls	r6, r2, #28
 8008722:	4605      	mov	r5, r0
 8008724:	460c      	mov	r4, r1
 8008726:	d454      	bmi.n	80087d2 <__sflush_r+0xba>
 8008728:	684b      	ldr	r3, [r1, #4]
 800872a:	2b00      	cmp	r3, #0
 800872c:	dc02      	bgt.n	8008734 <__sflush_r+0x1c>
 800872e:	6c0b      	ldr	r3, [r1, #64]	@ 0x40
 8008730:	2b00      	cmp	r3, #0
 8008732:	dd48      	ble.n	80087c6 <__sflush_r+0xae>
 8008734:	6ae6      	ldr	r6, [r4, #44]	@ 0x2c
 8008736:	2e00      	cmp	r6, #0
 8008738:	d045      	beq.n	80087c6 <__sflush_r+0xae>
 800873a:	2300      	movs	r3, #0
 800873c:	f412 5280 	ands.w	r2, r2, #4096	@ 0x1000
 8008740:	682f      	ldr	r7, [r5, #0]
 8008742:	6a21      	ldr	r1, [r4, #32]
 8008744:	602b      	str	r3, [r5, #0]
 8008746:	d030      	beq.n	80087aa <__sflush_r+0x92>
 8008748:	6d62      	ldr	r2, [r4, #84]	@ 0x54
 800874a:	89a3      	ldrh	r3, [r4, #12]
 800874c:	0759      	lsls	r1, r3, #29
 800874e:	d505      	bpl.n	800875c <__sflush_r+0x44>
 8008750:	6863      	ldr	r3, [r4, #4]
 8008752:	1ad2      	subs	r2, r2, r3
 8008754:	6b63      	ldr	r3, [r4, #52]	@ 0x34
 8008756:	b10b      	cbz	r3, 800875c <__sflush_r+0x44>
 8008758:	6c23      	ldr	r3, [r4, #64]	@ 0x40
 800875a:	1ad2      	subs	r2, r2, r3
 800875c:	2300      	movs	r3, #0
 800875e:	6ae6      	ldr	r6, [r4, #44]	@ 0x2c
 8008760:	6a21      	ldr	r1, [r4, #32]
 8008762:	4628      	mov	r0, r5
 8008764:	47b0      	blx	r6
 8008766:	1c43      	adds	r3, r0, #1
 8008768:	89a3      	ldrh	r3, [r4, #12]
 800876a:	d106      	bne.n	800877a <__sflush_r+0x62>
 800876c:	6829      	ldr	r1, [r5, #0]
 800876e:	291d      	cmp	r1, #29
 8008770:	d82b      	bhi.n	80087ca <__sflush_r+0xb2>
 8008772:	4a2a      	ldr	r2, [pc, #168]	@ (800881c <__sflush_r+0x104>)
 8008774:	410a      	asrs	r2, r1
 8008776:	07d6      	lsls	r6, r2, #31
 8008778:	d427      	bmi.n	80087ca <__sflush_r+0xb2>
 800877a:	2200      	movs	r2, #0
 800877c:	6062      	str	r2, [r4, #4]
 800877e:	04d9      	lsls	r1, r3, #19
 8008780:	6922      	ldr	r2, [r4, #16]
 8008782:	6022      	str	r2, [r4, #0]
 8008784:	d504      	bpl.n	8008790 <__sflush_r+0x78>
 8008786:	1c42      	adds	r2, r0, #1
 8008788:	d101      	bne.n	800878e <__sflush_r+0x76>
 800878a:	682b      	ldr	r3, [r5, #0]
 800878c:	b903      	cbnz	r3, 8008790 <__sflush_r+0x78>
 800878e:	6560      	str	r0, [r4, #84]	@ 0x54
 8008790:	6b61      	ldr	r1, [r4, #52]	@ 0x34
 8008792:	602f      	str	r7, [r5, #0]
 8008794:	b1b9      	cbz	r1, 80087c6 <__sflush_r+0xae>
 8008796:	f104 0344 	add.w	r3, r4, #68	@ 0x44
 800879a:	4299      	cmp	r1, r3
 800879c:	d002      	beq.n	80087a4 <__sflush_r+0x8c>
 800879e:	4628      	mov	r0, r5
 80087a0:	f7ff f9f6 	bl	8007b90 <_free_r>
 80087a4:	2300      	movs	r3, #0
 80087a6:	6363      	str	r3, [r4, #52]	@ 0x34
 80087a8:	e00d      	b.n	80087c6 <__sflush_r+0xae>
 80087aa:	2301      	movs	r3, #1
 80087ac:	4628      	mov	r0, r5
 80087ae:	47b0      	blx	r6
 80087b0:	4602      	mov	r2, r0
 80087b2:	1c50      	adds	r0, r2, #1
 80087b4:	d1c9      	bne.n	800874a <__sflush_r+0x32>
 80087b6:	682b      	ldr	r3, [r5, #0]
 80087b8:	2b00      	cmp	r3, #0
 80087ba:	d0c6      	beq.n	800874a <__sflush_r+0x32>
 80087bc:	2b1d      	cmp	r3, #29
 80087be:	d001      	beq.n	80087c4 <__sflush_r+0xac>
 80087c0:	2b16      	cmp	r3, #22
 80087c2:	d11e      	bne.n	8008802 <__sflush_r+0xea>
 80087c4:	602f      	str	r7, [r5, #0]
 80087c6:	2000      	movs	r0, #0
 80087c8:	e022      	b.n	8008810 <__sflush_r+0xf8>
 80087ca:	f043 0340 	orr.w	r3, r3, #64	@ 0x40
 80087ce:	b21b      	sxth	r3, r3
 80087d0:	e01b      	b.n	800880a <__sflush_r+0xf2>
 80087d2:	690f      	ldr	r7, [r1, #16]
 80087d4:	2f00      	cmp	r7, #0
 80087d6:	d0f6      	beq.n	80087c6 <__sflush_r+0xae>
 80087d8:	0793      	lsls	r3, r2, #30
 80087da:	680e      	ldr	r6, [r1, #0]
 80087dc:	bf08      	it	eq
 80087de:	694b      	ldreq	r3, [r1, #20]
 80087e0:	600f      	str	r7, [r1, #0]
 80087e2:	bf18      	it	ne
 80087e4:	2300      	movne	r3, #0
 80087e6:	eba6 0807 	sub.w	r8, r6, r7
 80087ea:	608b      	str	r3, [r1, #8]
 80087ec:	f1b8 0f00 	cmp.w	r8, #0
 80087f0:	dde9      	ble.n	80087c6 <__sflush_r+0xae>
 80087f2:	6a21      	ldr	r1, [r4, #32]
 80087f4:	6aa6      	ldr	r6, [r4, #40]	@ 0x28
 80087f6:	4643      	mov	r3, r8
 80087f8:	463a      	mov	r2, r7
 80087fa:	4628      	mov	r0, r5
 80087fc:	47b0      	blx	r6
 80087fe:	2800      	cmp	r0, #0
 8008800:	dc08      	bgt.n	8008814 <__sflush_r+0xfc>
 8008802:	f9b4 300c 	ldrsh.w	r3, [r4, #12]
 8008806:	f043 0340 	orr.w	r3, r3, #64	@ 0x40
 800880a:	81a3      	strh	r3, [r4, #12]
 800880c:	f04f 30ff 	mov.w	r0, #4294967295	@ 0xffffffff
 8008810:	e8bd 81f0 	ldmia.w	sp!, {r4, r5, r6, r7, r8, pc}
 8008814:	4407      	add	r7, r0
 8008816:	eba8 0800 	sub.w	r8, r8, r0
 800881a:	e7e7      	b.n	80087ec <__sflush_r+0xd4>
 800881c:	dfbffffe 	.word	0xdfbffffe

08008820 <_fflush_r>:
 8008820:	b538      	push	{r3, r4, r5, lr}
 8008822:	690b      	ldr	r3, [r1, #16]
 8008824:	4605      	mov	r5, r0
 8008826:	460c      	mov	r4, r1
 8008828:	b913      	cbnz	r3, 8008830 <_fflush_r+0x10>
 800882a:	2500      	movs	r5, #0
 800882c:	4628      	mov	r0, r5
 800882e:	bd38      	pop	{r3, r4, r5, pc}
 8008830:	b118      	cbz	r0, 800883a <_fflush_r+0x1a>
 8008832:	6a03      	ldr	r3, [r0, #32]
 8008834:	b90b      	cbnz	r3, 800883a <_fflush_r+0x1a>
 8008836:	f7fe f8fb 	bl	8006a30 <__sinit>
 800883a:	f9b4 300c 	ldrsh.w	r3, [r4, #12]
 800883e:	2b00      	cmp	r3, #0
 8008840:	d0f3      	beq.n	800882a <_fflush_r+0xa>
 8008842:	6e62      	ldr	r2, [r4, #100]	@ 0x64
 8008844:	07d0      	lsls	r0, r2, #31
 8008846:	d404      	bmi.n	8008852 <_fflush_r+0x32>
 8008848:	0599      	lsls	r1, r3, #22
 800884a:	d402      	bmi.n	8008852 <_fflush_r+0x32>
 800884c:	6da0      	ldr	r0, [r4, #88]	@ 0x58
 800884e:	f7fe fb40 	bl	8006ed2 <__retarget_lock_acquire_recursive>
 8008852:	4628      	mov	r0, r5
 8008854:	4621      	mov	r1, r4
 8008856:	f7ff ff5f 	bl	8008718 <__sflush_r>
 800885a:	6e63      	ldr	r3, [r4, #100]	@ 0x64
 800885c:	07da      	lsls	r2, r3, #31
 800885e:	4605      	mov	r5, r0
 8008860:	d4e4      	bmi.n	800882c <_fflush_r+0xc>
 8008862:	89a3      	ldrh	r3, [r4, #12]
 8008864:	059b      	lsls	r3, r3, #22
 8008866:	d4e1      	bmi.n	800882c <_fflush_r+0xc>
 8008868:	6da0      	ldr	r0, [r4, #88]	@ 0x58
 800886a:	f7fe fb33 	bl	8006ed4 <__retarget_lock_release_recursive>
 800886e:	e7dd      	b.n	800882c <_fflush_r+0xc>

08008870 <__swhatbuf_r>:
 8008870:	b570      	push	{r4, r5, r6, lr}
 8008872:	460c      	mov	r4, r1
 8008874:	f9b1 100e 	ldrsh.w	r1, [r1, #14]
 8008878:	2900      	cmp	r1, #0
 800887a:	b096      	sub	sp, #88	@ 0x58
 800887c:	4615      	mov	r5, r2
 800887e:	461e      	mov	r6, r3
 8008880:	da0d      	bge.n	800889e <__swhatbuf_r+0x2e>
 8008882:	89a3      	ldrh	r3, [r4, #12]
 8008884:	f013 0f80 	tst.w	r3, #128	@ 0x80
 8008888:	f04f 0100 	mov.w	r1, #0
 800888c:	bf14      	ite	ne
 800888e:	2340      	movne	r3, #64	@ 0x40
 8008890:	f44f 6380 	moveq.w	r3, #1024	@ 0x400
 8008894:	2000      	movs	r0, #0
 8008896:	6031      	str	r1, [r6, #0]
 8008898:	602b      	str	r3, [r5, #0]
 800889a:	b016      	add	sp, #88	@ 0x58
 800889c:	bd70      	pop	{r4, r5, r6, pc}
 800889e:	466a      	mov	r2, sp
 80088a0:	f000 f848 	bl	8008934 <_fstat_r>
 80088a4:	2800      	cmp	r0, #0
 80088a6:	dbec      	blt.n	8008882 <__swhatbuf_r+0x12>
 80088a8:	9901      	ldr	r1, [sp, #4]
 80088aa:	f401 4170 	and.w	r1, r1, #61440	@ 0xf000
 80088ae:	f5a1 5300 	sub.w	r3, r1, #8192	@ 0x2000
 80088b2:	4259      	negs	r1, r3
 80088b4:	4159      	adcs	r1, r3
 80088b6:	f44f 6380 	mov.w	r3, #1024	@ 0x400
 80088ba:	e7eb      	b.n	8008894 <__swhatbuf_r+0x24>

080088bc <__smakebuf_r>:
 80088bc:	898b      	ldrh	r3, [r1, #12]
 80088be:	b5f7      	push	{r0, r1, r2, r4, r5, r6, r7, lr}
 80088c0:	079d      	lsls	r5, r3, #30
 80088c2:	4606      	mov	r6, r0
 80088c4:	460c      	mov	r4, r1
 80088c6:	d507      	bpl.n	80088d8 <__smakebuf_r+0x1c>
 80088c8:	f104 0347 	add.w	r3, r4, #71	@ 0x47
 80088cc:	6023      	str	r3, [r4, #0]
 80088ce:	6123      	str	r3, [r4, #16]
 80088d0:	2301      	movs	r3, #1
 80088d2:	6163      	str	r3, [r4, #20]
 80088d4:	b003      	add	sp, #12
 80088d6:	bdf0      	pop	{r4, r5, r6, r7, pc}
 80088d8:	ab01      	add	r3, sp, #4
 80088da:	466a      	mov	r2, sp
 80088dc:	f7ff ffc8 	bl	8008870 <__swhatbuf_r>
 80088e0:	9f00      	ldr	r7, [sp, #0]
 80088e2:	4605      	mov	r5, r0
 80088e4:	4639      	mov	r1, r7
 80088e6:	4630      	mov	r0, r6
 80088e8:	f7ff f9c6 	bl	8007c78 <_malloc_r>
 80088ec:	b948      	cbnz	r0, 8008902 <__smakebuf_r+0x46>
 80088ee:	f9b4 300c 	ldrsh.w	r3, [r4, #12]
 80088f2:	059a      	lsls	r2, r3, #22
 80088f4:	d4ee      	bmi.n	80088d4 <__smakebuf_r+0x18>
 80088f6:	f023 0303 	bic.w	r3, r3, #3
 80088fa:	f043 0302 	orr.w	r3, r3, #2
 80088fe:	81a3      	strh	r3, [r4, #12]
 8008900:	e7e2      	b.n	80088c8 <__smakebuf_r+0xc>
 8008902:	89a3      	ldrh	r3, [r4, #12]
 8008904:	6020      	str	r0, [r4, #0]
 8008906:	f043 0380 	orr.w	r3, r3, #128	@ 0x80
 800890a:	81a3      	strh	r3, [r4, #12]
 800890c:	9b01      	ldr	r3, [sp, #4]
 800890e:	e9c4 0704 	strd	r0, r7, [r4, #16]
 8008912:	b15b      	cbz	r3, 800892c <__smakebuf_r+0x70>
 8008914:	f9b4 100e 	ldrsh.w	r1, [r4, #14]
 8008918:	4630      	mov	r0, r6
 800891a:	f000 f81d 	bl	8008958 <_isatty_r>
 800891e:	b128      	cbz	r0, 800892c <__smakebuf_r+0x70>
 8008920:	89a3      	ldrh	r3, [r4, #12]
 8008922:	f023 0303 	bic.w	r3, r3, #3
 8008926:	f043 0301 	orr.w	r3, r3, #1
 800892a:	81a3      	strh	r3, [r4, #12]
 800892c:	89a3      	ldrh	r3, [r4, #12]
 800892e:	431d      	orrs	r5, r3
 8008930:	81a5      	strh	r5, [r4, #12]
 8008932:	e7cf      	b.n	80088d4 <__smakebuf_r+0x18>

08008934 <_fstat_r>:
 8008934:	b538      	push	{r3, r4, r5, lr}
 8008936:	4d07      	ldr	r5, [pc, #28]	@ (8008954 <_fstat_r+0x20>)
 8008938:	2300      	movs	r3, #0
 800893a:	4604      	mov	r4, r0
 800893c:	4608      	mov	r0, r1
 800893e:	4611      	mov	r1, r2
 8008940:	602b      	str	r3, [r5, #0]
 8008942:	f7f9 f9ac 	bl	8001c9e <_fstat>
 8008946:	1c43      	adds	r3, r0, #1
 8008948:	d102      	bne.n	8008950 <_fstat_r+0x1c>
 800894a:	682b      	ldr	r3, [r5, #0]
 800894c:	b103      	cbz	r3, 8008950 <_fstat_r+0x1c>
 800894e:	6023      	str	r3, [r4, #0]
 8008950:	bd38      	pop	{r3, r4, r5, pc}
 8008952:	bf00      	nop
 8008954:	200015e4 	.word	0x200015e4

08008958 <_isatty_r>:
 8008958:	b538      	push	{r3, r4, r5, lr}
 800895a:	4d06      	ldr	r5, [pc, #24]	@ (8008974 <_isatty_r+0x1c>)
 800895c:	2300      	movs	r3, #0
 800895e:	4604      	mov	r4, r0
 8008960:	4608      	mov	r0, r1
 8008962:	602b      	str	r3, [r5, #0]
 8008964:	f7f9 f9a0 	bl	8001ca8 <_isatty>
 8008968:	1c43      	adds	r3, r0, #1
 800896a:	d102      	bne.n	8008972 <_isatty_r+0x1a>
 800896c:	682b      	ldr	r3, [r5, #0]
 800896e:	b103      	cbz	r3, 8008972 <_isatty_r+0x1a>
 8008970:	6023      	str	r3, [r4, #0]
 8008972:	bd38      	pop	{r3, r4, r5, pc}
 8008974:	200015e4 	.word	0x200015e4

08008978 <_sbrk_r>:
 8008978:	b538      	push	{r3, r4, r5, lr}
 800897a:	4d06      	ldr	r5, [pc, #24]	@ (8008994 <_sbrk_r+0x1c>)
 800897c:	2300      	movs	r3, #0
 800897e:	4604      	mov	r4, r0
 8008980:	4608      	mov	r0, r1
 8008982:	602b      	str	r3, [r5, #0]
 8008984:	f7f9 f994 	bl	8001cb0 <_sbrk>
 8008988:	1c43      	adds	r3, r0, #1
 800898a:	d102      	bne.n	8008992 <_sbrk_r+0x1a>
 800898c:	682b      	ldr	r3, [r5, #0]
 800898e:	b103      	cbz	r3, 8008992 <_sbrk_r+0x1a>
 8008990:	6023      	str	r3, [r4, #0]
 8008992:	bd38      	pop	{r3, r4, r5, pc}
 8008994:	200015e4 	.word	0x200015e4

08008998 <__assert_func>:
 8008998:	b51f      	push	{r0, r1, r2, r3, r4, lr}
 800899a:	4614      	mov	r4, r2
 800899c:	461a      	mov	r2, r3
 800899e:	4b09      	ldr	r3, [pc, #36]	@ (80089c4 <__assert_func+0x2c>)
 80089a0:	681b      	ldr	r3, [r3, #0]
 80089a2:	4605      	mov	r5, r0
 80089a4:	68d8      	ldr	r0, [r3, #12]
 80089a6:	b954      	cbnz	r4, 80089be <__assert_func+0x26>
 80089a8:	4b07      	ldr	r3, [pc, #28]	@ (80089c8 <__assert_func+0x30>)
 80089aa:	461c      	mov	r4, r3
 80089ac:	e9cd 3401 	strd	r3, r4, [sp, #4]
 80089b0:	9100      	str	r1, [sp, #0]
 80089b2:	462b      	mov	r3, r5
 80089b4:	4905      	ldr	r1, [pc, #20]	@ (80089cc <__assert_func+0x34>)
 80089b6:	f000 f841 	bl	8008a3c <fiprintf>
 80089ba:	f000 f851 	bl	8008a60 <abort>
 80089be:	4b04      	ldr	r3, [pc, #16]	@ (80089d0 <__assert_func+0x38>)
 80089c0:	e7f4      	b.n	80089ac <__assert_func+0x14>
 80089c2:	bf00      	nop
 80089c4:	2000003c 	.word	0x2000003c
 80089c8:	08009966 	.word	0x08009966
 80089cc:	08009938 	.word	0x08009938
 80089d0:	0800992b 	.word	0x0800992b

080089d4 <_calloc_r>:
 80089d4:	b570      	push	{r4, r5, r6, lr}
 80089d6:	fba1 5402 	umull	r5, r4, r1, r2
 80089da:	b93c      	cbnz	r4, 80089ec <_calloc_r+0x18>
 80089dc:	4629      	mov	r1, r5
 80089de:	f7ff f94b 	bl	8007c78 <_malloc_r>
 80089e2:	4606      	mov	r6, r0
 80089e4:	b928      	cbnz	r0, 80089f2 <_calloc_r+0x1e>
 80089e6:	2600      	movs	r6, #0
 80089e8:	4630      	mov	r0, r6
 80089ea:	bd70      	pop	{r4, r5, r6, pc}
 80089ec:	220c      	movs	r2, #12
 80089ee:	6002      	str	r2, [r0, #0]
 80089f0:	e7f9      	b.n	80089e6 <_calloc_r+0x12>
 80089f2:	462a      	mov	r2, r5
 80089f4:	4621      	mov	r1, r4
 80089f6:	f7fe f999 	bl	8006d2c <memset>
 80089fa:	e7f5      	b.n	80089e8 <_calloc_r+0x14>

080089fc <__ascii_mbtowc>:
 80089fc:	b082      	sub	sp, #8
 80089fe:	b901      	cbnz	r1, 8008a02 <__ascii_mbtowc+0x6>
 8008a00:	a901      	add	r1, sp, #4
 8008a02:	b142      	cbz	r2, 8008a16 <__ascii_mbtowc+0x1a>
 8008a04:	b14b      	cbz	r3, 8008a1a <__ascii_mbtowc+0x1e>
 8008a06:	7813      	ldrb	r3, [r2, #0]
 8008a08:	600b      	str	r3, [r1, #0]
 8008a0a:	7812      	ldrb	r2, [r2, #0]
 8008a0c:	1e10      	subs	r0, r2, #0
 8008a0e:	bf18      	it	ne
 8008a10:	2001      	movne	r0, #1
 8008a12:	b002      	add	sp, #8
 8008a14:	4770      	bx	lr
 8008a16:	4610      	mov	r0, r2
 8008a18:	e7fb      	b.n	8008a12 <__ascii_mbtowc+0x16>
 8008a1a:	f06f 0001 	mvn.w	r0, #1
 8008a1e:	e7f8      	b.n	8008a12 <__ascii_mbtowc+0x16>

08008a20 <__ascii_wctomb>:
 8008a20:	4603      	mov	r3, r0
 8008a22:	4608      	mov	r0, r1
 8008a24:	b141      	cbz	r1, 8008a38 <__ascii_wctomb+0x18>
 8008a26:	2aff      	cmp	r2, #255	@ 0xff
 8008a28:	d904      	bls.n	8008a34 <__ascii_wctomb+0x14>
 8008a2a:	228a      	movs	r2, #138	@ 0x8a
 8008a2c:	601a      	str	r2, [r3, #0]
 8008a2e:	f04f 30ff 	mov.w	r0, #4294967295	@ 0xffffffff
 8008a32:	4770      	bx	lr
 8008a34:	700a      	strb	r2, [r1, #0]
 8008a36:	2001      	movs	r0, #1
 8008a38:	4770      	bx	lr
	...

08008a3c <fiprintf>:
 8008a3c:	b40e      	push	{r1, r2, r3}
 8008a3e:	b503      	push	{r0, r1, lr}
 8008a40:	4601      	mov	r1, r0
 8008a42:	ab03      	add	r3, sp, #12
 8008a44:	4805      	ldr	r0, [pc, #20]	@ (8008a5c <fiprintf+0x20>)
 8008a46:	f853 2b04 	ldr.w	r2, [r3], #4
 8008a4a:	6800      	ldr	r0, [r0, #0]
 8008a4c:	9301      	str	r3, [sp, #4]
 8008a4e:	f7ff fd4b 	bl	80084e8 <_vfiprintf_r>
 8008a52:	b002      	add	sp, #8
 8008a54:	f85d eb04 	ldr.w	lr, [sp], #4
 8008a58:	b003      	add	sp, #12
 8008a5a:	4770      	bx	lr
 8008a5c:	2000003c 	.word	0x2000003c

08008a60 <abort>:
 8008a60:	b508      	push	{r3, lr}
 8008a62:	2006      	movs	r0, #6
 8008a64:	f000 f82c 	bl	8008ac0 <raise>
 8008a68:	2001      	movs	r0, #1
 8008a6a:	f7f9 f8ff 	bl	8001c6c <_exit>

08008a6e <_raise_r>:
 8008a6e:	291f      	cmp	r1, #31
 8008a70:	b538      	push	{r3, r4, r5, lr}
 8008a72:	4605      	mov	r5, r0
 8008a74:	460c      	mov	r4, r1
 8008a76:	d904      	bls.n	8008a82 <_raise_r+0x14>
 8008a78:	2316      	movs	r3, #22
 8008a7a:	6003      	str	r3, [r0, #0]
 8008a7c:	f04f 30ff 	mov.w	r0, #4294967295	@ 0xffffffff
 8008a80:	bd38      	pop	{r3, r4, r5, pc}
 8008a82:	6bc2      	ldr	r2, [r0, #60]	@ 0x3c
 8008a84:	b112      	cbz	r2, 8008a8c <_raise_r+0x1e>
 8008a86:	f852 3021 	ldr.w	r3, [r2, r1, lsl #2]
 8008a8a:	b94b      	cbnz	r3, 8008aa0 <_raise_r+0x32>
 8008a8c:	4628      	mov	r0, r5
 8008a8e:	f000 f831 	bl	8008af4 <_getpid_r>
 8008a92:	4622      	mov	r2, r4
 8008a94:	4601      	mov	r1, r0
 8008a96:	4628      	mov	r0, r5
 8008a98:	e8bd 4038 	ldmia.w	sp!, {r3, r4, r5, lr}
 8008a9c:	f000 b818 	b.w	8008ad0 <_kill_r>
 8008aa0:	2b01      	cmp	r3, #1
 8008aa2:	d00a      	beq.n	8008aba <_raise_r+0x4c>
 8008aa4:	1c59      	adds	r1, r3, #1
 8008aa6:	d103      	bne.n	8008ab0 <_raise_r+0x42>
 8008aa8:	2316      	movs	r3, #22
 8008aaa:	6003      	str	r3, [r0, #0]
 8008aac:	2001      	movs	r0, #1
 8008aae:	e7e7      	b.n	8008a80 <_raise_r+0x12>
 8008ab0:	2100      	movs	r1, #0
 8008ab2:	f842 1024 	str.w	r1, [r2, r4, lsl #2]
 8008ab6:	4620      	mov	r0, r4
 8008ab8:	4798      	blx	r3
 8008aba:	2000      	movs	r0, #0
 8008abc:	e7e0      	b.n	8008a80 <_raise_r+0x12>
	...

08008ac0 <raise>:
 8008ac0:	4b02      	ldr	r3, [pc, #8]	@ (8008acc <raise+0xc>)
 8008ac2:	4601      	mov	r1, r0
 8008ac4:	6818      	ldr	r0, [r3, #0]
 8008ac6:	f7ff bfd2 	b.w	8008a6e <_raise_r>
 8008aca:	bf00      	nop
 8008acc:	2000003c 	.word	0x2000003c

08008ad0 <_kill_r>:
 8008ad0:	b538      	push	{r3, r4, r5, lr}
 8008ad2:	4d07      	ldr	r5, [pc, #28]	@ (8008af0 <_kill_r+0x20>)
 8008ad4:	2300      	movs	r3, #0
 8008ad6:	4604      	mov	r4, r0
 8008ad8:	4608      	mov	r0, r1
 8008ada:	4611      	mov	r1, r2
 8008adc:	602b      	str	r3, [r5, #0]
 8008ade:	f7f9 f8bd 	bl	8001c5c <_kill>
 8008ae2:	1c43      	adds	r3, r0, #1
 8008ae4:	d102      	bne.n	8008aec <_kill_r+0x1c>
 8008ae6:	682b      	ldr	r3, [r5, #0]
 8008ae8:	b103      	cbz	r3, 8008aec <_kill_r+0x1c>
 8008aea:	6023      	str	r3, [r4, #0]
 8008aec:	bd38      	pop	{r3, r4, r5, pc}
 8008aee:	bf00      	nop
 8008af0:	200015e4 	.word	0x200015e4

08008af4 <_getpid_r>:
 8008af4:	f7f9 b8b0 	b.w	8001c58 <_getpid>

08008af8 <_init>:
 8008af8:	b5f8      	push	{r3, r4, r5, r6, r7, lr}
 8008afa:	bf00      	nop
 8008afc:	bcf8      	pop	{r3, r4, r5, r6, r7}
 8008afe:	bc08      	pop	{r3}
 8008b00:	469e      	mov	lr, r3
 8008b02:	4770      	bx	lr

08008b04 <_fini>:
 8008b04:	b5f8      	push	{r3, r4, r5, r6, r7, lr}
 8008b06:	bf00      	nop
 8008b08:	bcf8      	pop	{r3, r4, r5, r6, r7}
 8008b0a:	bc08      	pop	{r3}
 8008b0c:	469e      	mov	lr, r3
 8008b0e:	4770      	bx	lr
